ARM GAS  C:\Users\ilias\AppData\Local\Temp\ccbZWpbs.s 			page 1


   1              		.cpu cortex-m0
   2              		.fpu softvfp
   3              		.eabi_attribute 20, 1
   4              		.eabi_attribute 21, 1
   5              		.eabi_attribute 23, 3
   6              		.eabi_attribute 24, 1
   7              		.eabi_attribute 25, 1
   8              		.eabi_attribute 26, 1
   9              		.eabi_attribute 30, 6
  10              		.eabi_attribute 34, 0
  11              		.eabi_attribute 18, 4
  12              		.code	16
  13              		.file	"BLE_1.c"
  14              		.text
  15              	.Ltext0:
  16              		.cfi_sections	.debug_frame
  17              		.global	cyBle_initVar
  18              		.bss
  19              		.type	cyBle_initVar, %object
  20              		.size	cyBle_initVar, 1
  21              	cyBle_initVar:
  22 0000 00       		.space	1
  23              		.comm	cyBle_stackMemoryRam,2760,8
  24              		.global	cyBle_discoveryParam
  25              		.data
  26              		.align	2
  27              		.type	cyBle_discoveryParam, %object
  28              		.size	cyBle_discoveryParam, 16
  29              	cyBle_discoveryParam:
  30 0000 2000     		.short	32
  31 0002 6000     		.short	96
  32 0004 00       		.byte	0
  33 0005 00       		.byte	0
  34 0006 00       		.byte	0
  35 0007 00       		.byte	0
  36 0008 00       		.byte	0
  37 0009 00       		.byte	0
  38 000a 50       		.byte	80
  39 000b A0       		.byte	-96
  40 000c 00       		.byte	0
  41 000d 07       		.byte	7
  42 000e 00       		.byte	0
  43 000f 00       		.space	1
  44              		.global	cyBle_discoveryData
  45              		.align	2
  46              		.type	cyBle_discoveryData, %object
  47              		.size	cyBle_discoveryData, 32
  48              	cyBle_discoveryData:
  49 0010 02       		.byte	2
  50 0011 01       		.byte	1
  51 0012 06       		.byte	6
  52 0013 05       		.byte	5
  53 0014 08       		.byte	8
  54 0015 64       		.byte	100
  55 0016 61       		.byte	97
  56 0017 74       		.byte	116
  57 0018 61       		.byte	97
ARM GAS  C:\Users\ilias\AppData\Local\Temp\ccbZWpbs.s 			page 2


  58 0019 13       		.byte	19
  59 001a 21       		.byte	33
  60 001b FB       		.byte	-5
  61 001c 34       		.byte	52
  62 001d 9B       		.byte	-101
  63 001e 5F       		.byte	95
  64 001f 80       		.byte	-128
  65 0020 00       		.byte	0
  66 0021 00       		.byte	0
  67 0022 80       		.byte	-128
  68 0023 00       		.byte	0
  69 0024 10       		.byte	16
  70 0025 00       		.byte	0
  71 0026 00       		.byte	0
  72 0027 00       		.byte	0
  73 0028 00       		.byte	0
  74 0029 00       		.byte	0
  75 002a 00       		.byte	0
  76 002b 67       		.byte	103
  77 002c 05       		.byte	5
  78 002d 00       		.byte	0
  79 002e 00       		.byte	0
  80 002f 1D       		.byte	29
  81              		.global	cyBle_scanRspData
  82              		.bss
  83 0001 000000   		.align	2
  84              		.type	cyBle_scanRspData, %object
  85              		.size	cyBle_scanRspData, 32
  86              	cyBle_scanRspData:
  87 0004 00000000 		.space	32
  87      00000000 
  87      00000000 
  87      00000000 
  87      00000000 
  88              		.global	cyBle_discoveryModeInfo
  89              		.data
  90              		.align	2
  91              		.type	cyBle_discoveryModeInfo, %object
  92              		.size	cyBle_discoveryModeInfo, 20
  93              	cyBle_discoveryModeInfo:
  94 0030 02       		.byte	2
  95 0031 000000   		.space	3
  96 0034 00000000 		.word	cyBle_discoveryParam
  97 0038 00000000 		.word	cyBle_discoveryData
  98 003c 00000000 		.word	cyBle_scanRspData
  99 0040 0000     		.short	0
 100 0042 0000     		.space	2
 101              		.comm	cyBle_peerBonding,1,1
 102              		.comm	cyBle_pendingFlashWrite,1,1
 103              		.comm	CyBle_ApplCallback,4,4
 104              		.global	cyBle_deviceAddress
 105              		.align	2
 106              		.type	cyBle_deviceAddress, %object
 107              		.size	cyBle_deviceAddress, 7
 108              	cyBle_deviceAddress:
 109 0044 00       		.byte	0
 110 0045 00       		.byte	0
ARM GAS  C:\Users\ilias\AppData\Local\Temp\ccbZWpbs.s 			page 3


 111 0046 00       		.byte	0
 112 0047 50       		.byte	80
 113 0048 A0       		.byte	-96
 114 0049 00       		.byte	0
 115 004a 00       		.byte	0
 116              		.global	cyBle_sflashDeviceAddress
 117 004b 00       		.align	2
 118              		.type	cyBle_sflashDeviceAddress, %object
 119              		.size	cyBle_sflashDeviceAddress, 4
 120              	cyBle_sflashDeviceAddress:
 121 004c 00F2FF0F 		.word	268431872
 122              		.global	cyBle_StackFlashptr
 123              		.section	.rodata
 124              		.align	7
 125              		.type	cyBle_StackFlashptr, %object
 126              		.size	cyBle_StackFlashptr, 365
 127              	cyBle_StackFlashptr:
 128 0000 00000000 		.space	365
 128      00000000 
 128      00000000 
 128      00000000 
 128      00000000 
 129              		.section	.text.CyBle_Init,"ax",%progbits
 130              		.align	2
 131              		.global	CyBle_Init
 132              		.code	16
 133              		.thumb_func
 134              		.type	CyBle_Init, %function
 135              	CyBle_Init:
 136              	.LFB2:
 137              		.file 1 ".\\Generated_Source\\PSoC4\\BLE_1.c"
   1:.\Generated_Source\PSoC4/BLE_1.c **** /***************************************************************************//**
   2:.\Generated_Source\PSoC4/BLE_1.c **** * \file CYBLE.c
   3:.\Generated_Source\PSoC4/BLE_1.c **** * \version 2.30
   4:.\Generated_Source\PSoC4/BLE_1.c **** * 
   5:.\Generated_Source\PSoC4/BLE_1.c **** * \brief
   6:.\Generated_Source\PSoC4/BLE_1.c **** *  This file contains the source code for the Common APIs of the BLE Component.
   7:.\Generated_Source\PSoC4/BLE_1.c **** * 
   8:.\Generated_Source\PSoC4/BLE_1.c **** ********************************************************************************
   9:.\Generated_Source\PSoC4/BLE_1.c **** * \copyright
  10:.\Generated_Source\PSoC4/BLE_1.c **** * Copyright 2014-2015, Cypress Semiconductor Corporation.  All rights reserved.
  11:.\Generated_Source\PSoC4/BLE_1.c **** * You may use this file only in accordance with the license, terms, conditions,
  12:.\Generated_Source\PSoC4/BLE_1.c **** * disclaimers, and limitations in the end user license agreement accompanying
  13:.\Generated_Source\PSoC4/BLE_1.c **** * the software package with which this file was provided.
  14:.\Generated_Source\PSoC4/BLE_1.c **** *******************************************************************************/
  15:.\Generated_Source\PSoC4/BLE_1.c **** 
  16:.\Generated_Source\PSoC4/BLE_1.c **** #include "BLE_1_eventHandler.h"
  17:.\Generated_Source\PSoC4/BLE_1.c **** #include "BLE_1_HAL_PVT.h"
  18:.\Generated_Source\PSoC4/BLE_1.c **** #include <stdlib.h>
  19:.\Generated_Source\PSoC4/BLE_1.c **** 
  20:.\Generated_Source\PSoC4/BLE_1.c **** 
  21:.\Generated_Source\PSoC4/BLE_1.c **** /***************************************
  22:.\Generated_Source\PSoC4/BLE_1.c **** * Function Prototypes
  23:.\Generated_Source\PSoC4/BLE_1.c **** ***************************************/
  24:.\Generated_Source\PSoC4/BLE_1.c **** 
  25:.\Generated_Source\PSoC4/BLE_1.c **** #if(CYBLE_GATT_ROLE_SERVER)
  26:.\Generated_Source\PSoC4/BLE_1.c ****     #if(CYBLE_GAP_ROLE_PERIPHERAL)
ARM GAS  C:\Users\ilias\AppData\Local\Temp\ccbZWpbs.s 			page 4


  27:.\Generated_Source\PSoC4/BLE_1.c ****         static void CyBle_ChangeAdLocalName(const char8 name[], uint8 dest);
  28:.\Generated_Source\PSoC4/BLE_1.c ****     #endif /* (CYBLE_GAP_ROLE_PERIPHERAL) */
  29:.\Generated_Source\PSoC4/BLE_1.c **** #endif /* (CYBLE_GATT_ROLE_SERVER) */
  30:.\Generated_Source\PSoC4/BLE_1.c ****     
  31:.\Generated_Source\PSoC4/BLE_1.c **** 
  32:.\Generated_Source\PSoC4/BLE_1.c **** /***************************************
  33:.\Generated_Source\PSoC4/BLE_1.c **** * Global Variables
  34:.\Generated_Source\PSoC4/BLE_1.c **** ***************************************/
  35:.\Generated_Source\PSoC4/BLE_1.c **** 
  36:.\Generated_Source\PSoC4/BLE_1.c **** /* Indicates whether the BLE has been initialized. The variable is initialized to
  37:.\Generated_Source\PSoC4/BLE_1.c ****    0 and set to 1 the first time CyBle_Start() is called. This allows the component
  38:.\Generated_Source\PSoC4/BLE_1.c ****    to restart without reinitialization after the first call to the CyBle_Start() 
  39:.\Generated_Source\PSoC4/BLE_1.c ****    routine. If reinitialization of the component is required, the variable should 
  40:.\Generated_Source\PSoC4/BLE_1.c ****    be set to 0 before the CyBle_Start() routine is called. Alternatively, the BLE
  41:.\Generated_Source\PSoC4/BLE_1.c ****    can be reinitialized by calling the CyBle_Init() function.
  42:.\Generated_Source\PSoC4/BLE_1.c **** */
  43:.\Generated_Source\PSoC4/BLE_1.c **** uint8  cyBle_initVar = 0u;
  44:.\Generated_Source\PSoC4/BLE_1.c **** 
  45:.\Generated_Source\PSoC4/BLE_1.c **** /* Allocate RAM memory for stack. This buffer could be reused by application when 
  46:.\Generated_Source\PSoC4/BLE_1.c ****    BLE component is stopped. For export mode buffer is allocated in heap.
  47:.\Generated_Source\PSoC4/BLE_1.c **** */
  48:.\Generated_Source\PSoC4/BLE_1.c **** #if(CYBLE_SHARING_MODE_EXPORT)
  49:.\Generated_Source\PSoC4/BLE_1.c ****     
  50:.\Generated_Source\PSoC4/BLE_1.c **** uint8 *cyBle_stackMemoryRam = NULL;
  51:.\Generated_Source\PSoC4/BLE_1.c **** 
  52:.\Generated_Source\PSoC4/BLE_1.c **** #else
  53:.\Generated_Source\PSoC4/BLE_1.c **** 
  54:.\Generated_Source\PSoC4/BLE_1.c **** CYBLE_CYALIGNED_BEGIN uint8 cyBle_stackMemoryRam[CYBLE_STACK_RAM_SIZE] CYBLE_CYALIGNED_END;
  55:.\Generated_Source\PSoC4/BLE_1.c **** 
  56:.\Generated_Source\PSoC4/BLE_1.c **** #endif  /* CYBLE_SHARING_MODE_EXPORT */
  57:.\Generated_Source\PSoC4/BLE_1.c **** 
  58:.\Generated_Source\PSoC4/BLE_1.c **** #if(CYBLE_GAP_ROLE_PERIPHERAL || CYBLE_GAP_ROLE_BROADCASTER)
  59:.\Generated_Source\PSoC4/BLE_1.c **** 
  60:.\Generated_Source\PSoC4/BLE_1.c **** CYBLE_GAPP_DISC_PARAM_T cyBle_discoveryParam =
  61:.\Generated_Source\PSoC4/BLE_1.c **** {
  62:.\Generated_Source\PSoC4/BLE_1.c ****     0x0020u,    /* uint16 advertising_interval_min */
  63:.\Generated_Source\PSoC4/BLE_1.c ****     0x0060u,    /* uint16 advertising_interval_max */
  64:.\Generated_Source\PSoC4/BLE_1.c ****     CYBLE_GAPP_CONNECTABLE_UNDIRECTED_ADV, /* uint8 advertising_type */
  65:.\Generated_Source\PSoC4/BLE_1.c ****     0x00u,      /* uint8 own_addr_type */
  66:.\Generated_Source\PSoC4/BLE_1.c ****     0x00u,      /* uint8 direct_addr_type */
  67:.\Generated_Source\PSoC4/BLE_1.c ****     {0x00u, 0x00u, 0x00u, 0x50u, 0xA0u, 0x00u}, /* uint8* direct_addr */
  68:.\Generated_Source\PSoC4/BLE_1.c ****     0x07u,      /* uint8 advertising_channel_map */
  69:.\Generated_Source\PSoC4/BLE_1.c ****     0x00u,      /* uint8 advertising_filter_policy */
  70:.\Generated_Source\PSoC4/BLE_1.c **** };
  71:.\Generated_Source\PSoC4/BLE_1.c **** 
  72:.\Generated_Source\PSoC4/BLE_1.c **** CYBLE_GAPP_DISC_DATA_T cyBle_discoveryData =
  73:.\Generated_Source\PSoC4/BLE_1.c **** {
  74:.\Generated_Source\PSoC4/BLE_1.c ****     { 0x02u, 0x01u, 0x06u, 0x05u, 0x08u, 0x64u, 0x61u,
  75:.\Generated_Source\PSoC4/BLE_1.c ****     0x74u, 0x61u, 0x13u, 0x21u, 0xFBu, 0x34u, 0x9Bu, 0x5Fu,
  76:.\Generated_Source\PSoC4/BLE_1.c ****     0x80u, 0x00u, 0x00u, 0x80u, 0x00u, 0x10u, 0x00u, 0x00u,
  77:.\Generated_Source\PSoC4/BLE_1.c ****     0x00u, 0x00u, 0x00u, 0x00u, 0x67u, 0x05u, 0x00u, 0x00u }, /* uint8 advertising_data[CYBLE_MAX_A
  78:.\Generated_Source\PSoC4/BLE_1.c ****     0x1Du,      /* uint8 adv_data_length */
  79:.\Generated_Source\PSoC4/BLE_1.c **** };
  80:.\Generated_Source\PSoC4/BLE_1.c **** 
  81:.\Generated_Source\PSoC4/BLE_1.c **** CYBLE_GAPP_SCAN_RSP_DATA_T cyBle_scanRspData =
  82:.\Generated_Source\PSoC4/BLE_1.c **** {
  83:.\Generated_Source\PSoC4/BLE_1.c ****     { 0x00u, 0x00u, 0x00u, 0x00u, 0x00u, 0x00u, 0x00u,
ARM GAS  C:\Users\ilias\AppData\Local\Temp\ccbZWpbs.s 			page 5


  84:.\Generated_Source\PSoC4/BLE_1.c ****     0x00u, 0x00u, 0x00u, 0x00u, 0x00u, 0x00u, 0x00u, 0x00u,
  85:.\Generated_Source\PSoC4/BLE_1.c ****     0x00u, 0x00u, 0x00u, 0x00u, 0x00u, 0x00u, 0x00u, 0x00u,
  86:.\Generated_Source\PSoC4/BLE_1.c ****     0x00u, 0x00u, 0x00u, 0x00u, 0x00u, 0x00u, 0x00u, 0x00u }, /* uint8 scan_rsp_data[CYBLE_MAX_SCAN
  87:.\Generated_Source\PSoC4/BLE_1.c ****     0x00u,      /* uint8 scan_rsp_data_length */
  88:.\Generated_Source\PSoC4/BLE_1.c **** };
  89:.\Generated_Source\PSoC4/BLE_1.c **** 
  90:.\Generated_Source\PSoC4/BLE_1.c **** /* This variable of type CYBLE_GAPP_DISC_MODE_INFO_T is present only when 
  91:.\Generated_Source\PSoC4/BLE_1.c ****    the BLE component is configured for Peripheral GAP role or Central and 
  92:.\Generated_Source\PSoC4/BLE_1.c ****    Peripheral GAP role. It contains the Advertisement settings and also the 
  93:.\Generated_Source\PSoC4/BLE_1.c ****    Advertisement and Scan response data parameters entered in the customizer.
  94:.\Generated_Source\PSoC4/BLE_1.c ****    This variable can be used by advanced users to change Advertisement settings,
  95:.\Generated_Source\PSoC4/BLE_1.c ****    Advertisement or Scan response data in runtime. 
  96:.\Generated_Source\PSoC4/BLE_1.c **** */
  97:.\Generated_Source\PSoC4/BLE_1.c **** CYBLE_GAPP_DISC_MODE_INFO_T cyBle_discoveryModeInfo =
  98:.\Generated_Source\PSoC4/BLE_1.c **** {
  99:.\Generated_Source\PSoC4/BLE_1.c ****     0x02u,      /* uint8 discMode */
 100:.\Generated_Source\PSoC4/BLE_1.c ****     &cyBle_discoveryParam,
 101:.\Generated_Source\PSoC4/BLE_1.c ****     &cyBle_discoveryData,
 102:.\Generated_Source\PSoC4/BLE_1.c ****     &cyBle_scanRspData,
 103:.\Generated_Source\PSoC4/BLE_1.c ****     0x0000u,    /* uint16 advTo */
 104:.\Generated_Source\PSoC4/BLE_1.c **** };
 105:.\Generated_Source\PSoC4/BLE_1.c **** 
 106:.\Generated_Source\PSoC4/BLE_1.c **** 
 107:.\Generated_Source\PSoC4/BLE_1.c **** #endif /* CYBLE_GAP_ROLE_PERIPHERAL || CYBLE_GAP_ROLE_BROADCASTER */
 108:.\Generated_Source\PSoC4/BLE_1.c **** 
 109:.\Generated_Source\PSoC4/BLE_1.c **** #if(CYBLE_GAP_ROLE_CENTRAL)
 110:.\Generated_Source\PSoC4/BLE_1.c ****     
 111:.\Generated_Source\PSoC4/BLE_1.c **** CYBLE_GAPC_CONN_PARAM_T cyBle_connectionParameters;
 112:.\Generated_Source\PSoC4/BLE_1.c **** 
 113:.\Generated_Source\PSoC4/BLE_1.c **** /* Connecting timeout is set to 30 seconds in CyBle_Init function. 
 114:.\Generated_Source\PSoC4/BLE_1.c ****    Not zero value starts timer in CyBle_GapcConnectDevice API.
 115:.\Generated_Source\PSoC4/BLE_1.c **** */
 116:.\Generated_Source\PSoC4/BLE_1.c **** uint16 cyBle_connectingTimeout;
 117:.\Generated_Source\PSoC4/BLE_1.c ****     
 118:.\Generated_Source\PSoC4/BLE_1.c **** #endif /* CYBLE_GAP_ROLE_CENTRAL */
 119:.\Generated_Source\PSoC4/BLE_1.c **** 
 120:.\Generated_Source\PSoC4/BLE_1.c **** #if(CYBLE_GAP_ROLE_CENTRAL || CYBLE_GAP_ROLE_OBSERVER)
 121:.\Generated_Source\PSoC4/BLE_1.c ****     
 122:.\Generated_Source\PSoC4/BLE_1.c **** 
 123:.\Generated_Source\PSoC4/BLE_1.c ****     
 124:.\Generated_Source\PSoC4/BLE_1.c **** #endif /* CYBLE_GAP_ROLE_CENTRAL || CYBLE_GAP_ROLE_OBSERVER */
 125:.\Generated_Source\PSoC4/BLE_1.c **** 
 126:.\Generated_Source\PSoC4/BLE_1.c **** #if((CYBLE_GAP_ROLE_PERIPHERAL || CYBLE_GAP_ROLE_CENTRAL) && (CYBLE_BONDING_REQUIREMENT == CYBLE_BO
 127:.\Generated_Source\PSoC4/BLE_1.c **** 
 128:.\Generated_Source\PSoC4/BLE_1.c **** uint8 cyBle_peerBonding;
 129:.\Generated_Source\PSoC4/BLE_1.c **** uint8 cyBle_pendingFlashWrite;
 130:.\Generated_Source\PSoC4/BLE_1.c ****     
 131:.\Generated_Source\PSoC4/BLE_1.c **** #endif  /* (CYBLE_BONDING_REQUIREMENT == CYBLE_BONDING_YES) */
 132:.\Generated_Source\PSoC4/BLE_1.c **** 
 133:.\Generated_Source\PSoC4/BLE_1.c **** CYBLE_CALLBACK_T CyBle_ApplCallback;
 134:.\Generated_Source\PSoC4/BLE_1.c **** CYBLE_GAP_BD_ADDR_T cyBle_deviceAddress = {{0x00u, 0x00u, 0x00u, 0x50u, 0xA0u, 0x00u}, 0x00u };
 135:.\Generated_Source\PSoC4/BLE_1.c **** CYBLE_GAP_BD_ADDR_T * cyBle_sflashDeviceAddress = CYBLE_SFLASH_DEVICE_ADDRESS_PTR;
 136:.\Generated_Source\PSoC4/BLE_1.c **** 
 137:.\Generated_Source\PSoC4/BLE_1.c **** #if(CYBLE_MODE_PROFILE)
 138:.\Generated_Source\PSoC4/BLE_1.c ****     #if defined(__ARMCC_VERSION)
 139:.\Generated_Source\PSoC4/BLE_1.c ****         CY_ALIGN(CYDEV_FLS_ROW_SIZE) const uint8 cyBle_StackFlashptr[CYBLE_STACK_FLASH_SIZE] = {0u}
 140:.\Generated_Source\PSoC4/BLE_1.c ****     #elif defined (__GNUC__)
ARM GAS  C:\Users\ilias\AppData\Local\Temp\ccbZWpbs.s 			page 6


 141:.\Generated_Source\PSoC4/BLE_1.c ****         const uint8 cyBle_StackFlashptr[CYBLE_STACK_FLASH_SIZE] CY_ALIGN(CYDEV_FLS_ROW_SIZE) = {0u}
 142:.\Generated_Source\PSoC4/BLE_1.c ****     #elif defined (__ICCARM__)
 143:.\Generated_Source\PSoC4/BLE_1.c ****         #pragma data_alignment=CY_FLASH_SIZEOF_ROW
 144:.\Generated_Source\PSoC4/BLE_1.c ****         const uint8 cyBle_StackFlashptr[CYBLE_STACK_FLASH_SIZE] = {0u};
 145:.\Generated_Source\PSoC4/BLE_1.c ****     #endif  /* (__ARMCC_VERSION) */
 146:.\Generated_Source\PSoC4/BLE_1.c **** #endif /* (CYBLE_MODE_PROFILE) */
 147:.\Generated_Source\PSoC4/BLE_1.c **** 
 148:.\Generated_Source\PSoC4/BLE_1.c **** 
 149:.\Generated_Source\PSoC4/BLE_1.c **** /******************************************************************************
 150:.\Generated_Source\PSoC4/BLE_1.c **** * Function Name: CyBle_Init
 151:.\Generated_Source\PSoC4/BLE_1.c **** ***************************************************************************//**
 152:.\Generated_Source\PSoC4/BLE_1.c **** *
 153:.\Generated_Source\PSoC4/BLE_1.c **** *   Initializes the component with the parameters set in the customizer.
 154:.\Generated_Source\PSoC4/BLE_1.c **** * 
 155:.\Generated_Source\PSoC4/BLE_1.c **** *  \return
 156:.\Generated_Source\PSoC4/BLE_1.c **** *   None
 157:.\Generated_Source\PSoC4/BLE_1.c **** * 
 158:.\Generated_Source\PSoC4/BLE_1.c **** ******************************************************************************/
 159:.\Generated_Source\PSoC4/BLE_1.c **** void CyBle_Init(void)
 160:.\Generated_Source\PSoC4/BLE_1.c **** {
 138              		.loc 1 160 0
 139              		.cfi_startproc
 140 0000 80B5     		push	{r7, lr}
 141              		.cfi_def_cfa_offset 8
 142              		.cfi_offset 7, -8
 143              		.cfi_offset 14, -4
 144 0002 00AF     		add	r7, sp, #0
 145              		.cfi_def_cfa_register 7
 161:.\Generated_Source\PSoC4/BLE_1.c ****     cyBle_eventHandlerFlag = 0u;
 146              		.loc 1 161 0
 147 0004 094B     		ldr	r3, .L2
 148 0006 0022     		mov	r2, #0
 149 0008 1A70     		strb	r2, [r3]
 162:.\Generated_Source\PSoC4/BLE_1.c ****     cyBle_busyStatus = CYBLE_STACK_STATE_FREE;
 150              		.loc 1 162 0
 151 000a 094B     		ldr	r3, .L2+4
 152 000c 0022     		mov	r2, #0
 153 000e 1A70     		strb	r2, [r3]
 163:.\Generated_Source\PSoC4/BLE_1.c **** 
 164:.\Generated_Source\PSoC4/BLE_1.c ****     #if(CYBLE_GAP_ROLE_PERIPHERAL || CYBLE_GAP_ROLE_BROADCASTER) 
 165:.\Generated_Source\PSoC4/BLE_1.c ****         cyBle_advertisingIntervalType = CYBLE_ADVERTISING_FAST; 
 154              		.loc 1 165 0
 155 0010 084B     		ldr	r3, .L2+8
 156 0012 0022     		mov	r2, #0
 157 0014 1A70     		strb	r2, [r3]
 166:.\Generated_Source\PSoC4/BLE_1.c ****     #endif /* (CYBLE_GAP_ROLE_PERIPHERAL || CYBLE_GAP_ROLE_BROADCASTER)  */
 167:.\Generated_Source\PSoC4/BLE_1.c ****     #if(CYBLE_GAP_ROLE_CENTRAL || CYBLE_GAP_ROLE_OBSERVER)
 168:.\Generated_Source\PSoC4/BLE_1.c ****         cyBle_scanningIntervalType = CYBLE_SCANNING_FAST; 
 169:.\Generated_Source\PSoC4/BLE_1.c ****     #endif /* (CYBLE_GAP_ROLE_CENTRAL || CYBLE_GAP_ROLE_OBSERVER) */
 170:.\Generated_Source\PSoC4/BLE_1.c ****         
 171:.\Generated_Source\PSoC4/BLE_1.c ****     /* Init default connection parameters. 
 172:.\Generated_Source\PSoC4/BLE_1.c ****        Application may change it before initiating a connection */
 173:.\Generated_Source\PSoC4/BLE_1.c ****     #if(CYBLE_GAP_ROLE_CENTRAL)
 174:.\Generated_Source\PSoC4/BLE_1.c ****         cyBle_connectionParameters.scanIntv = cyBle_discoveryInfo.scanIntv;
 175:.\Generated_Source\PSoC4/BLE_1.c ****         cyBle_connectionParameters.scanWindow = cyBle_discoveryInfo.scanWindow;
 176:.\Generated_Source\PSoC4/BLE_1.c ****         cyBle_connectionParameters.ownAddrType = cyBle_discoveryInfo.ownAddrType;
 177:.\Generated_Source\PSoC4/BLE_1.c ****         cyBle_connectionParameters.initiatorFilterPolicy = cyBle_discoveryInfo.scanFilterPolicy;
ARM GAS  C:\Users\ilias\AppData\Local\Temp\ccbZWpbs.s 			page 7


 178:.\Generated_Source\PSoC4/BLE_1.c ****         cyBle_connectionParameters.connIntvMin = CYBLE_GAPC_CONNECTION_INTERVAL_MIN;
 179:.\Generated_Source\PSoC4/BLE_1.c ****         cyBle_connectionParameters.connIntvMax = CYBLE_GAPC_CONNECTION_INTERVAL_MAX;
 180:.\Generated_Source\PSoC4/BLE_1.c ****         cyBle_connectionParameters.connLatency = CYBLE_GAPC_CONNECTION_SLAVE_LATENCY;
 181:.\Generated_Source\PSoC4/BLE_1.c ****         cyBle_connectionParameters.supervisionTO = CYBLE_GAPC_CONNECTION_TIME_OUT;
 182:.\Generated_Source\PSoC4/BLE_1.c ****         cyBle_connectionParameters.minCeLength = 0x0000u;
 183:.\Generated_Source\PSoC4/BLE_1.c ****         cyBle_connectionParameters.maxCeLength = 0xFFFFu;
 184:.\Generated_Source\PSoC4/BLE_1.c ****         
 185:.\Generated_Source\PSoC4/BLE_1.c ****         cyBle_connectingTimeout = CYBLE_GAPC_CONNECTING_TIMEOUT;
 186:.\Generated_Source\PSoC4/BLE_1.c ****     #endif /* CYBLE_GAP_ROLE_CENTRAL */
 187:.\Generated_Source\PSoC4/BLE_1.c **** 
 188:.\Generated_Source\PSoC4/BLE_1.c ****     CyBle_ServiceInit();
 158              		.loc 1 188 0
 159 0016 FFF7FEFF 		bl	CyBle_ServiceInit
 189:.\Generated_Source\PSoC4/BLE_1.c **** 
 190:.\Generated_Source\PSoC4/BLE_1.c ****     #if((CYBLE_GAP_ROLE_PERIPHERAL || CYBLE_GAP_ROLE_CENTRAL) && (CYBLE_BONDING_REQUIREMENT == CYBL
 191:.\Generated_Source\PSoC4/BLE_1.c ****         cyBle_pendingFlashWrite = 0u;
 160              		.loc 1 191 0
 161 001a 074B     		ldr	r3, .L2+12
 162 001c 0022     		mov	r2, #0
 163 001e 1A70     		strb	r2, [r3]
 192:.\Generated_Source\PSoC4/BLE_1.c ****         cyBle_peerBonding = CYBLE_GAP_BONDING_NONE;
 164              		.loc 1 192 0
 165 0020 064B     		ldr	r3, .L2+16
 166 0022 0022     		mov	r2, #0
 167 0024 1A70     		strb	r2, [r3]
 193:.\Generated_Source\PSoC4/BLE_1.c ****     #endif  /* (CYBLE_BONDING_REQUIREMENT == CYBLE_BONDING_YES) */
 194:.\Generated_Source\PSoC4/BLE_1.c **** 
 195:.\Generated_Source\PSoC4/BLE_1.c **** }
 168              		.loc 1 195 0
 169 0026 BD46     		mov	sp, r7
 170              		@ sp needed
 171 0028 80BD     		pop	{r7, pc}
 172              	.L3:
 173 002a C046     		.align	2
 174              	.L2:
 175 002c 00000000 		.word	cyBle_eventHandlerFlag
 176 0030 00000000 		.word	cyBle_busyStatus
 177 0034 00000000 		.word	cyBle_advertisingIntervalType
 178 0038 00000000 		.word	cyBle_pendingFlashWrite
 179 003c 00000000 		.word	cyBle_peerBonding
 180              		.cfi_endproc
 181              	.LFE2:
 182              		.size	CyBle_Init, .-CyBle_Init
 183              		.section	.text.CyBle_ServiceInit,"ax",%progbits
 184              		.align	2
 185              		.global	CyBle_ServiceInit
 186              		.code	16
 187              		.thumb_func
 188              		.type	CyBle_ServiceInit, %function
 189              	CyBle_ServiceInit:
 190              	.LFB3:
 196:.\Generated_Source\PSoC4/BLE_1.c **** 
 197:.\Generated_Source\PSoC4/BLE_1.c **** 
 198:.\Generated_Source\PSoC4/BLE_1.c **** /******************************************************************************
 199:.\Generated_Source\PSoC4/BLE_1.c **** * Function Name: CyBle_ServiceInit
 200:.\Generated_Source\PSoC4/BLE_1.c **** ***************************************************************************//**
 201:.\Generated_Source\PSoC4/BLE_1.c **** * 
ARM GAS  C:\Users\ilias\AppData\Local\Temp\ccbZWpbs.s 			page 8


 202:.\Generated_Source\PSoC4/BLE_1.c **** *  Initializes all included services.
 203:.\Generated_Source\PSoC4/BLE_1.c **** * 
 204:.\Generated_Source\PSoC4/BLE_1.c **** * \return
 205:.\Generated_Source\PSoC4/BLE_1.c **** *  None
 206:.\Generated_Source\PSoC4/BLE_1.c **** * 
 207:.\Generated_Source\PSoC4/BLE_1.c **** ******************************************************************************/
 208:.\Generated_Source\PSoC4/BLE_1.c **** void CyBle_ServiceInit(void)
 209:.\Generated_Source\PSoC4/BLE_1.c **** {
 191              		.loc 1 209 0
 192              		.cfi_startproc
 193 0000 80B5     		push	{r7, lr}
 194              		.cfi_def_cfa_offset 8
 195              		.cfi_offset 7, -8
 196              		.cfi_offset 14, -4
 197 0002 00AF     		add	r7, sp, #0
 198              		.cfi_def_cfa_register 7
 210:.\Generated_Source\PSoC4/BLE_1.c ****     #if(CYBLE_GATT_ROLE_CLIENT)
 211:.\Generated_Source\PSoC4/BLE_1.c ****         (void)memset(&cyBle_gapc, 0, sizeof(cyBle_gapc));
 212:.\Generated_Source\PSoC4/BLE_1.c ****         (void)memset(&cyBle_gattc, 0, sizeof(cyBle_gattc));
 213:.\Generated_Source\PSoC4/BLE_1.c ****     #endif /* CYBLE_GATT_ROLE_CLIENT */
 214:.\Generated_Source\PSoC4/BLE_1.c ****     
 215:.\Generated_Source\PSoC4/BLE_1.c **** 	#ifdef CYBLE_ANCS
 216:.\Generated_Source\PSoC4/BLE_1.c ****         CyBle_AncsInit();
 217:.\Generated_Source\PSoC4/BLE_1.c ****     #endif /* CYBLE_ANCS */
 218:.\Generated_Source\PSoC4/BLE_1.c **** 	
 219:.\Generated_Source\PSoC4/BLE_1.c ****     #ifdef CYBLE_ANS
 220:.\Generated_Source\PSoC4/BLE_1.c ****         CyBle_AnsInit();
 221:.\Generated_Source\PSoC4/BLE_1.c ****     #endif /* CYBLE_ANS */
 222:.\Generated_Source\PSoC4/BLE_1.c ****     
 223:.\Generated_Source\PSoC4/BLE_1.c ****     #ifdef CYBLE_BAS
 224:.\Generated_Source\PSoC4/BLE_1.c ****         CyBle_BasInit();
 225:.\Generated_Source\PSoC4/BLE_1.c ****     #endif /* CYBLE_BAS */
 226:.\Generated_Source\PSoC4/BLE_1.c ****     
 227:.\Generated_Source\PSoC4/BLE_1.c ****     #ifdef CYBLE_BLS
 228:.\Generated_Source\PSoC4/BLE_1.c ****         CyBle_BlsInit();
 229:.\Generated_Source\PSoC4/BLE_1.c ****     #endif /* CYBLE_BLS */
 230:.\Generated_Source\PSoC4/BLE_1.c ****     
 231:.\Generated_Source\PSoC4/BLE_1.c ****     #ifdef CYBLE_BMS
 232:.\Generated_Source\PSoC4/BLE_1.c ****         CyBle_BmsInit();
 233:.\Generated_Source\PSoC4/BLE_1.c ****     #endif /* CYBLE_BMS */
 234:.\Generated_Source\PSoC4/BLE_1.c ****     
 235:.\Generated_Source\PSoC4/BLE_1.c ****     #ifdef CYBLE_CGMS
 236:.\Generated_Source\PSoC4/BLE_1.c ****         CyBle_CgmsInit();
 237:.\Generated_Source\PSoC4/BLE_1.c ****     #endif /* CYBLE_CGMS */
 238:.\Generated_Source\PSoC4/BLE_1.c **** 
 239:.\Generated_Source\PSoC4/BLE_1.c ****     #ifdef CYBLE_CPS
 240:.\Generated_Source\PSoC4/BLE_1.c ****         CyBle_CpsInit();
 241:.\Generated_Source\PSoC4/BLE_1.c ****     #endif /* CYBLE_CPS */
 242:.\Generated_Source\PSoC4/BLE_1.c **** 
 243:.\Generated_Source\PSoC4/BLE_1.c ****     #ifdef CYBLE_CSCS
 244:.\Generated_Source\PSoC4/BLE_1.c ****         CyBle_CscsInit();
 245:.\Generated_Source\PSoC4/BLE_1.c ****     #endif /* CYBLE_CSCS */
 246:.\Generated_Source\PSoC4/BLE_1.c ****     
 247:.\Generated_Source\PSoC4/BLE_1.c ****     #ifdef CYBLE_CTS
 248:.\Generated_Source\PSoC4/BLE_1.c ****         CyBle_CtsInit();
 249:.\Generated_Source\PSoC4/BLE_1.c ****     #endif /* CYBLE_CTS */
 250:.\Generated_Source\PSoC4/BLE_1.c **** 
ARM GAS  C:\Users\ilias\AppData\Local\Temp\ccbZWpbs.s 			page 9


 251:.\Generated_Source\PSoC4/BLE_1.c ****     #ifdef CYBLE_DIS
 252:.\Generated_Source\PSoC4/BLE_1.c ****         CyBle_DisInit();
 253:.\Generated_Source\PSoC4/BLE_1.c ****     #endif /* CYBLE_DIS */
 254:.\Generated_Source\PSoC4/BLE_1.c **** 
 255:.\Generated_Source\PSoC4/BLE_1.c ****     #ifdef CYBLE_ESS
 256:.\Generated_Source\PSoC4/BLE_1.c ****         CyBle_EssInit();
 257:.\Generated_Source\PSoC4/BLE_1.c ****     #endif /* CYBLE_ESS */
 258:.\Generated_Source\PSoC4/BLE_1.c ****     
 259:.\Generated_Source\PSoC4/BLE_1.c ****     #ifdef CYBLE_GLS
 260:.\Generated_Source\PSoC4/BLE_1.c ****         CyBle_GlsInit();
 261:.\Generated_Source\PSoC4/BLE_1.c ****     #endif /* CYBLE_GLS */
 262:.\Generated_Source\PSoC4/BLE_1.c ****     
 263:.\Generated_Source\PSoC4/BLE_1.c ****     #ifdef CYBLE_CUSTOM
 264:.\Generated_Source\PSoC4/BLE_1.c ****         CyBle_CustomInit();
 199              		.loc 1 264 0
 200 0004 FFF7FEFF 		bl	CyBle_CustomInit
 265:.\Generated_Source\PSoC4/BLE_1.c ****     #endif /* CYBLE_CUSTOM */
 266:.\Generated_Source\PSoC4/BLE_1.c **** 
 267:.\Generated_Source\PSoC4/BLE_1.c ****     #ifdef CYBLE_HIDS
 268:.\Generated_Source\PSoC4/BLE_1.c ****         CyBle_HidsInit();
 269:.\Generated_Source\PSoC4/BLE_1.c ****     #endif /* CYBLE_HIDS */
 270:.\Generated_Source\PSoC4/BLE_1.c **** 
 271:.\Generated_Source\PSoC4/BLE_1.c ****     #ifdef CYBLE_HRS
 272:.\Generated_Source\PSoC4/BLE_1.c ****         CyBle_HrsInit();
 273:.\Generated_Source\PSoC4/BLE_1.c ****     #endif /* CYBLE_HRS */
 274:.\Generated_Source\PSoC4/BLE_1.c ****     
 275:.\Generated_Source\PSoC4/BLE_1.c ****     #ifdef CYBLE_HTS
 276:.\Generated_Source\PSoC4/BLE_1.c ****         CyBle_HtsInit();
 277:.\Generated_Source\PSoC4/BLE_1.c ****     #endif /* CYBLE_RSCS */
 278:.\Generated_Source\PSoC4/BLE_1.c **** 
 279:.\Generated_Source\PSoC4/BLE_1.c ****     #ifdef CYBLE_IAS
 280:.\Generated_Source\PSoC4/BLE_1.c ****         CyBle_IasInit();
 281:.\Generated_Source\PSoC4/BLE_1.c ****     #endif /* CYBLE_IAS */
 282:.\Generated_Source\PSoC4/BLE_1.c **** 
 283:.\Generated_Source\PSoC4/BLE_1.c ****     #ifdef CYBLE_LLS
 284:.\Generated_Source\PSoC4/BLE_1.c ****         CyBle_LlsInit();
 285:.\Generated_Source\PSoC4/BLE_1.c ****     #endif /* CYBLE_LLS */
 286:.\Generated_Source\PSoC4/BLE_1.c **** 
 287:.\Generated_Source\PSoC4/BLE_1.c ****     #ifdef CYBLE_RTUS
 288:.\Generated_Source\PSoC4/BLE_1.c ****         CyBle_RtusInit();
 289:.\Generated_Source\PSoC4/BLE_1.c ****     #endif /* CYBLE_RTUS */
 290:.\Generated_Source\PSoC4/BLE_1.c **** 
 291:.\Generated_Source\PSoC4/BLE_1.c ****     #ifdef CYBLE_LNS
 292:.\Generated_Source\PSoC4/BLE_1.c ****         CyBle_LnsInit();
 293:.\Generated_Source\PSoC4/BLE_1.c ****     #endif /* CYBLE_LNS */
 294:.\Generated_Source\PSoC4/BLE_1.c ****     
 295:.\Generated_Source\PSoC4/BLE_1.c ****     #ifdef CYBLE_PASS
 296:.\Generated_Source\PSoC4/BLE_1.c ****         CyBle_PassInit();
 297:.\Generated_Source\PSoC4/BLE_1.c ****     #endif /* CYBLE_PASS */
 298:.\Generated_Source\PSoC4/BLE_1.c ****     
 299:.\Generated_Source\PSoC4/BLE_1.c ****     #ifdef CYBLE_RSCS
 300:.\Generated_Source\PSoC4/BLE_1.c ****         CyBle_RscsInit();
 301:.\Generated_Source\PSoC4/BLE_1.c ****     #endif /* CYBLE_RSCS */
 302:.\Generated_Source\PSoC4/BLE_1.c **** 
 303:.\Generated_Source\PSoC4/BLE_1.c ****     #ifdef CYBLE_SCPS
 304:.\Generated_Source\PSoC4/BLE_1.c ****         CyBle_ScpsInit();
 305:.\Generated_Source\PSoC4/BLE_1.c ****     #endif /* CYBLE_SCPS */
ARM GAS  C:\Users\ilias\AppData\Local\Temp\ccbZWpbs.s 			page 10


 306:.\Generated_Source\PSoC4/BLE_1.c ****     
 307:.\Generated_Source\PSoC4/BLE_1.c ****     #ifdef CYBLE_TPS
 308:.\Generated_Source\PSoC4/BLE_1.c ****         CyBle_TpsInit();
 309:.\Generated_Source\PSoC4/BLE_1.c ****     #endif /* CYBLE_TPS */
 310:.\Generated_Source\PSoC4/BLE_1.c ****     
 311:.\Generated_Source\PSoC4/BLE_1.c ****     #ifdef CYBLE_UDS
 312:.\Generated_Source\PSoC4/BLE_1.c ****         CyBle_UdsInit();
 313:.\Generated_Source\PSoC4/BLE_1.c ****     #endif /* CYBLE_UDS */
 314:.\Generated_Source\PSoC4/BLE_1.c **** 
 315:.\Generated_Source\PSoC4/BLE_1.c ****     #ifdef CYBLE_WPTS
 316:.\Generated_Source\PSoC4/BLE_1.c ****         CyBle_WptsInit();
 317:.\Generated_Source\PSoC4/BLE_1.c ****     #endif /* CYBLE_WPTS */
 318:.\Generated_Source\PSoC4/BLE_1.c **** 
 319:.\Generated_Source\PSoC4/BLE_1.c ****     #ifdef CYBLE_WSS
 320:.\Generated_Source\PSoC4/BLE_1.c ****         CyBle_WssInit();
 321:.\Generated_Source\PSoC4/BLE_1.c ****     #endif /* CYBLE_WSS */
 322:.\Generated_Source\PSoC4/BLE_1.c **** }
 201              		.loc 1 322 0
 202 0008 BD46     		mov	sp, r7
 203              		@ sp needed
 204 000a 80BD     		pop	{r7, pc}
 205              		.cfi_endproc
 206              	.LFE3:
 207              		.size	CyBle_ServiceInit, .-CyBle_ServiceInit
 208              		.section	.rodata
 209 016d 000000   		.align	2
 210              	.LC0:
 211 0170 2400     		.short	36
 212 0172 03       		.byte	3
 213 0173 00       		.space	1
 214 0174 1C00     		.short	28
 215 0176 01       		.byte	1
 216 0177 00       		.space	1
 217 0178 3000     		.short	48
 218 017a 01       		.byte	1
 219 017b 00       		.space	1
 220 017c 4800     		.short	72
 221 017e 01       		.byte	1
 222 017f 00       		.space	1
 223 0180 2400     		.short	36
 224 0182 01       		.byte	1
 225 0183 00       		.space	1
 226 0184 2400     		.short	36
 227 0186 01       		.byte	1
 228 0187 00       		.space	1
 229 0188 00000000 		.section	.text.CyBle_Start,"ax",%progbits
 229      00000000 
 229      00000000 
 229      00000000 
 229      00000000 
 230              		.align	2
 231              		.global	CyBle_Start
 232              		.code	16
 233              		.thumb_func
 234              		.type	CyBle_Start, %function
 235              	CyBle_Start:
 236              	.LFB4:
ARM GAS  C:\Users\ilias\AppData\Local\Temp\ccbZWpbs.s 			page 11


 323:.\Generated_Source\PSoC4/BLE_1.c **** 
 324:.\Generated_Source\PSoC4/BLE_1.c **** 
 325:.\Generated_Source\PSoC4/BLE_1.c **** /******************************************************************************
 326:.\Generated_Source\PSoC4/BLE_1.c **** * Function Name: CyBle_Start
 327:.\Generated_Source\PSoC4/BLE_1.c **** ***************************************************************************//**
 328:.\Generated_Source\PSoC4/BLE_1.c **** * 
 329:.\Generated_Source\PSoC4/BLE_1.c **** *  This function initializes the BLE Stack, which consists of the BLE Stack 
 330:.\Generated_Source\PSoC4/BLE_1.c **** *  Manager, BLE Controller, and BLE Host modules. It takes care of initializing
 331:.\Generated_Source\PSoC4/BLE_1.c **** *  the Profile layer, schedulers, Timer and other platform related
 332:.\Generated_Source\PSoC4/BLE_1.c **** *  resources required for the BLE component. It also registers the callback 
 333:.\Generated_Source\PSoC4/BLE_1.c **** *  function for BLE events that will be registered in the BLE stack.
 334:.\Generated_Source\PSoC4/BLE_1.c **** * 
 335:.\Generated_Source\PSoC4/BLE_1.c **** *  Note that this function does not reset the BLE Stack.
 336:.\Generated_Source\PSoC4/BLE_1.c **** * 
 337:.\Generated_Source\PSoC4/BLE_1.c **** *  For HCI-Mode of operation, this function will not initialize the BLE Host 
 338:.\Generated_Source\PSoC4/BLE_1.c **** *  module.
 339:.\Generated_Source\PSoC4/BLE_1.c **** * 
 340:.\Generated_Source\PSoC4/BLE_1.c **** *  Calling this function results in the generation of CYBLE_EVT_STACK_ON event
 341:.\Generated_Source\PSoC4/BLE_1.c **** *  on successful initialization of the BLE Stack.
 342:.\Generated_Source\PSoC4/BLE_1.c **** * 
 343:.\Generated_Source\PSoC4/BLE_1.c **** *  \param callbackFunc: Event callback function to receive events from BLE stack.
 344:.\Generated_Source\PSoC4/BLE_1.c **** *   CYBLE_CALLBACK_T is a function pointer type.
 345:.\Generated_Source\PSoC4/BLE_1.c **** * 
 346:.\Generated_Source\PSoC4/BLE_1.c **** * \return
 347:.\Generated_Source\PSoC4/BLE_1.c **** *  CYBLE_API_RESULT_T : Return value indicates if the function succeeded or 
 348:.\Generated_Source\PSoC4/BLE_1.c **** *  failed. Following are the possible error codes.
 349:.\Generated_Source\PSoC4/BLE_1.c **** * 
 350:.\Generated_Source\PSoC4/BLE_1.c **** *   <table>
 351:.\Generated_Source\PSoC4/BLE_1.c **** *  	  <tr>
 352:.\Generated_Source\PSoC4/BLE_1.c **** *       <th>Error codes</th>
 353:.\Generated_Source\PSoC4/BLE_1.c **** *       <th>Description</th>
 354:.\Generated_Source\PSoC4/BLE_1.c **** *     </tr>
 355:.\Generated_Source\PSoC4/BLE_1.c **** *     <tr>
 356:.\Generated_Source\PSoC4/BLE_1.c **** *       <td>CYBLE_ERROR_OK</td>
 357:.\Generated_Source\PSoC4/BLE_1.c **** *       <td>On successful operation.</td>
 358:.\Generated_Source\PSoC4/BLE_1.c **** *     </tr>
 359:.\Generated_Source\PSoC4/BLE_1.c **** *     <tr>
 360:.\Generated_Source\PSoC4/BLE_1.c **** *       <td>CYBLE_ERROR_INVALID_PARAMETER</td>
 361:.\Generated_Source\PSoC4/BLE_1.c **** *       <td>On passing a NULL pointer to the function when the BLE stack is not built in HCI mode. 
 362:.\Generated_Source\PSoC4/BLE_1.c **** *			CYBLE_ERROR_INVALID_PARAMETER is never returned in HCI mode.</td>
 363:.\Generated_Source\PSoC4/BLE_1.c **** *     </tr>
 364:.\Generated_Source\PSoC4/BLE_1.c **** *     <tr>
 365:.\Generated_Source\PSoC4/BLE_1.c **** *       <td>CYBLE_ERROR_REPEATED_ATTEMPTS</td>
 366:.\Generated_Source\PSoC4/BLE_1.c **** *       <td>On invoking this function more than once without calling CyBle_Shutdown() 
 367:.\Generated_Source\PSoC4/BLE_1.c **** *           function between calls to this function.</td>
 368:.\Generated_Source\PSoC4/BLE_1.c **** *     </tr>
 369:.\Generated_Source\PSoC4/BLE_1.c **** *     <tr>
 370:.\Generated_Source\PSoC4/BLE_1.c **** *       <td>CYBLE_ERROR_MEMORY_ALLOCATION_FAILED</td>
 371:.\Generated_Source\PSoC4/BLE_1.c **** *       <td>There is insufficient memory available.</td>
 372:.\Generated_Source\PSoC4/BLE_1.c **** *     </tr>
 373:.\Generated_Source\PSoC4/BLE_1.c **** *   </table>
 374:.\Generated_Source\PSoC4/BLE_1.c **** * 
 375:.\Generated_Source\PSoC4/BLE_1.c **** *  \globalvars
 376:.\Generated_Source\PSoC4/BLE_1.c **** *   The CyBle_initVar variable is used to indicate initial
 377:.\Generated_Source\PSoC4/BLE_1.c **** *   configuration of this component. The variable is initialized to zero (0u)
 378:.\Generated_Source\PSoC4/BLE_1.c **** *   and set to one (1u) the first time CyBle_Start() is called. This
 379:.\Generated_Source\PSoC4/BLE_1.c **** *   allows for component initialization without re-initialization in all
ARM GAS  C:\Users\ilias\AppData\Local\Temp\ccbZWpbs.s 			page 12


 380:.\Generated_Source\PSoC4/BLE_1.c **** *   subsequent calls to the CyBle_Start() routine.
 381:.\Generated_Source\PSoC4/BLE_1.c **** * 
 382:.\Generated_Source\PSoC4/BLE_1.c **** ******************************************************************************/
 383:.\Generated_Source\PSoC4/BLE_1.c **** CYBLE_API_RESULT_T CyBle_Start(CYBLE_CALLBACK_T callbackFunc)
 384:.\Generated_Source\PSoC4/BLE_1.c **** {
 237              		.loc 1 384 0
 238              		.cfi_startproc
 239 0000 F0B5     		push	{r4, r5, r6, r7, lr}
 240              		.cfi_def_cfa_offset 20
 241              		.cfi_offset 4, -20
 242              		.cfi_offset 5, -16
 243              		.cfi_offset 6, -12
 244              		.cfi_offset 7, -8
 245              		.cfi_offset 14, -4
 246 0002 8FB0     		sub	sp, sp, #60
 247              		.cfi_def_cfa_offset 80
 248 0004 04AF     		add	r7, sp, #16
 249              		.cfi_def_cfa 7, 64
 250 0006 7860     		str	r0, [r7, #4]
 385:.\Generated_Source\PSoC4/BLE_1.c ****     CYBLE_API_RESULT_T apiResult = CYBLE_ERROR_OK;
 251              		.loc 1 385 0
 252 0008 2623     		mov	r3, #38
 253 000a FB18     		add	r3, r7, r3
 254 000c 0022     		mov	r2, #0
 255 000e 1A80     		strh	r2, [r3]
 386:.\Generated_Source\PSoC4/BLE_1.c ****     
 387:.\Generated_Source\PSoC4/BLE_1.c ****     #if(CYBLE_MODE_PROFILE)
 388:.\Generated_Source\PSoC4/BLE_1.c ****     
 389:.\Generated_Source\PSoC4/BLE_1.c ****     CYBLE_STK_APP_DATA_BUFF_T cyBle_stackDataBuff[CYBLE_STACK_BUF_COUNT] = 
 256              		.loc 1 389 0
 257 0010 0C23     		mov	r3, #12
 258 0012 FA18     		add	r2, r7, r3
 259 0014 284B     		ldr	r3, .L11
 260 0016 111C     		mov	r1, r2
 261 0018 1A1C     		mov	r2, r3
 262 001a 1823     		mov	r3, #24
 263 001c 081C     		mov	r0, r1
 264 001e 111C     		mov	r1, r2
 265 0020 1A1C     		mov	r2, r3
 266 0022 FFF7FEFF 		bl	memcpy
 390:.\Generated_Source\PSoC4/BLE_1.c ****     {
 391:.\Generated_Source\PSoC4/BLE_1.c ****         {CYBLE_GATT_MTU_PLUS_L2CAP_MEM_EXT, CYBLE_GATT_MTU_BUF_COUNT},
 392:.\Generated_Source\PSoC4/BLE_1.c ****         {CYBLE_GATT_MAX_ATTR_LEN_PLUS_L2CAP_MEM_EXT, 1u},
 393:.\Generated_Source\PSoC4/BLE_1.c ****         {CYBLE_L2CAP_PSM_PLUS_L2CAP_MEM_EXT, CYBLE_L2CAP_PSM_COUNT},
 394:.\Generated_Source\PSoC4/BLE_1.c ****         {CYBLE_L2CAP_CBFC_PLUS_L2CAP_MEM_EXT, CYBLE_L2CAP_LOGICAL_CHANNEL_COUNT},
 395:.\Generated_Source\PSoC4/BLE_1.c ****         {CYBLE_L2CAP_MTU_PLUS_L2CAP_MEM_EXT, CYBLE_L2CAP_LOGICAL_CHANNEL_COUNT},
 396:.\Generated_Source\PSoC4/BLE_1.c ****         {CYBLE_L2CAP_MPS_PLUS_L2CAP_MEM_EXT, CYBLE_L2CAP_LOGICAL_CHANNEL_COUNT * (CYBLE_L2CAP_MTU/C
 397:.\Generated_Source\PSoC4/BLE_1.c ****     }; 
 398:.\Generated_Source\PSoC4/BLE_1.c **** 
 399:.\Generated_Source\PSoC4/BLE_1.c ****     #endif /* CYBLE_MODE_PROFILE */
 400:.\Generated_Source\PSoC4/BLE_1.c ****     
 401:.\Generated_Source\PSoC4/BLE_1.c ****     /* If not initialized then initialize all the required hardware and software */
 402:.\Generated_Source\PSoC4/BLE_1.c ****     if(cyBle_initVar == 0u)
 267              		.loc 1 402 0
 268 0026 254B     		ldr	r3, .L11+4
 269 0028 1B78     		ldrb	r3, [r3]
 270 002a 002B     		cmp	r3, #0
ARM GAS  C:\Users\ilias\AppData\Local\Temp\ccbZWpbs.s 			page 13


 271 002c 04D1     		bne	.L6
 403:.\Generated_Source\PSoC4/BLE_1.c ****     {
 404:.\Generated_Source\PSoC4/BLE_1.c ****         CyBle_Init();
 272              		.loc 1 404 0
 273 002e FFF7FEFF 		bl	CyBle_Init
 405:.\Generated_Source\PSoC4/BLE_1.c ****         cyBle_initVar = 1u;
 274              		.loc 1 405 0
 275 0032 224B     		ldr	r3, .L11+4
 276 0034 0122     		mov	r2, #1
 277 0036 1A70     		strb	r2, [r3]
 278              	.L6:
 406:.\Generated_Source\PSoC4/BLE_1.c ****     }
 407:.\Generated_Source\PSoC4/BLE_1.c ****     
 408:.\Generated_Source\PSoC4/BLE_1.c ****     if(callbackFunc != NULL)
 279              		.loc 1 408 0
 280 0038 7B68     		ldr	r3, [r7, #4]
 281 003a 002B     		cmp	r3, #0
 282 003c 30D0     		beq	.L7
 409:.\Generated_Source\PSoC4/BLE_1.c ****     {
 410:.\Generated_Source\PSoC4/BLE_1.c ****     #if(CYBLE_SHARING_MODE_EXPORT)
 411:.\Generated_Source\PSoC4/BLE_1.c ****         if(cyBle_stackMemoryRam == NULL)
 412:.\Generated_Source\PSoC4/BLE_1.c ****         {
 413:.\Generated_Source\PSoC4/BLE_1.c ****             cyBle_stackMemoryRam = (uint8 *)malloc(CYBLE_STACK_RAM_SIZE);
 414:.\Generated_Source\PSoC4/BLE_1.c ****             if(cyBle_stackMemoryRam == NULL)
 415:.\Generated_Source\PSoC4/BLE_1.c ****             {
 416:.\Generated_Source\PSoC4/BLE_1.c ****                 apiResult = CYBLE_ERROR_MEMORY_ALLOCATION_FAILED;
 417:.\Generated_Source\PSoC4/BLE_1.c ****             } 
 418:.\Generated_Source\PSoC4/BLE_1.c ****         }
 419:.\Generated_Source\PSoC4/BLE_1.c ****     #endif /* CYBLE_SHARING_MODE_EXPORT */
 420:.\Generated_Source\PSoC4/BLE_1.c ****         if(apiResult == CYBLE_ERROR_OK)
 283              		.loc 1 420 0
 284 003e 2623     		mov	r3, #38
 285 0040 FB18     		add	r3, r7, r3
 286 0042 1B88     		ldrh	r3, [r3]
 287 0044 002B     		cmp	r3, #0
 288 0046 2FD1     		bne	.L9
 421:.\Generated_Source\PSoC4/BLE_1.c ****         {
 422:.\Generated_Source\PSoC4/BLE_1.c ****             CyBle_ApplCallback = callbackFunc;
 289              		.loc 1 422 0
 290 0048 1D4B     		ldr	r3, .L11+8
 291 004a 7A68     		ldr	r2, [r7, #4]
 292 004c 1A60     		str	r2, [r3]
 423:.\Generated_Source\PSoC4/BLE_1.c ****             
 424:.\Generated_Source\PSoC4/BLE_1.c ****         #if(CYBLE_MODE_PROFILE)
 425:.\Generated_Source\PSoC4/BLE_1.c ****             apiResult = CyBle_StackInit(&CyBle_EventHandler, cyBle_stackMemoryRam, CYBLE_STACK_RAM_
 293              		.loc 1 425 0
 294 004e 2623     		mov	r3, #38
 295 0050 FC18     		add	r4, r7, r3
 296 0052 1C49     		ldr	r1, .L11+12
 297 0054 1C4A     		ldr	r2, .L11+16
 298 0056 1D4E     		ldr	r6, .L11+20
 299 0058 0C23     		mov	r3, #12
 300 005a FD18     		add	r5, r7, r3
 301 005c 0623     		mov	r3, #6
 302 005e 0093     		str	r3, [sp]
 303 0060 1B4B     		ldr	r3, .L11+24
 304 0062 0193     		str	r3, [sp, #4]
ARM GAS  C:\Users\ilias\AppData\Local\Temp\ccbZWpbs.s 			page 14


 305 0064 6E23     		mov	r3, #110
 306 0066 FF33     		add	r3, r3, #255
 307 0068 0293     		str	r3, [sp, #8]
 308 006a 081C     		mov	r0, r1
 309 006c 111C     		mov	r1, r2
 310 006e 321C     		mov	r2, r6
 311 0070 2B1C     		mov	r3, r5
 312 0072 FFF7FEFF 		bl	CyBle_StackInit
 313 0076 031C     		mov	r3, r0
 314 0078 2380     		strh	r3, [r4]
 426:.\Generated_Source\PSoC4/BLE_1.c ****                 cyBle_stackDataBuff, CYBLE_STACK_BUF_COUNT, cyBle_flashStorage.stackFlashptr, CYBLE
 427:.\Generated_Source\PSoC4/BLE_1.c ****         #else
 428:.\Generated_Source\PSoC4/BLE_1.c ****             apiResult = CyBle_StackInit(&CyBle_EventHandler, cyBle_stackMemoryRam, CYBLE_STACK_RAM_
 429:.\Generated_Source\PSoC4/BLE_1.c ****                 NULL, 0u, NULL, 0u);
 430:.\Generated_Source\PSoC4/BLE_1.c ****         #endif /* CYBLE_MODE_PROFILE */
 431:.\Generated_Source\PSoC4/BLE_1.c **** 
 432:.\Generated_Source\PSoC4/BLE_1.c ****             if(apiResult == CYBLE_ERROR_OK)
 315              		.loc 1 432 0
 316 007a 2623     		mov	r3, #38
 317 007c FB18     		add	r3, r7, r3
 318 007e 1B88     		ldrh	r3, [r3]
 319 0080 002B     		cmp	r3, #0
 320 0082 11D1     		bne	.L9
 433:.\Generated_Source\PSoC4/BLE_1.c ****             {
 434:.\Generated_Source\PSoC4/BLE_1.c ****                 CyBle_SetState(CYBLE_STATE_INITIALIZING);
 321              		.loc 1 434 0
 322 0084 134B     		ldr	r3, .L11+28
 323 0086 0122     		mov	r2, #1
 324 0088 1A70     		strb	r2, [r3]
 435:.\Generated_Source\PSoC4/BLE_1.c ****                 
 436:.\Generated_Source\PSoC4/BLE_1.c ****             #if (CYBLE_GATT_ROLE_CLIENT)
 437:.\Generated_Source\PSoC4/BLE_1.c ****                 CyBle_SetClientState(CYBLE_CLIENT_STATE_DISCONNECTED);
 438:.\Generated_Source\PSoC4/BLE_1.c ****             #endif /* CYBLE_GATT_ROLE_CLIENT */
 439:.\Generated_Source\PSoC4/BLE_1.c ****                 
 440:.\Generated_Source\PSoC4/BLE_1.c ****             #if(CYBLE_GATT_ROLE_SERVER)
 441:.\Generated_Source\PSoC4/BLE_1.c ****                 apiResult = CyBle_GattsDbRegister(cyBle_gattDB, CYBLE_GATT_DB_INDEX_COUNT, CYBLE_GA
 325              		.loc 1 441 0
 326 008a 2623     		mov	r3, #38
 327 008c FC18     		add	r4, r7, r3
 328 008e 124B     		ldr	r3, .L11+32
 329 0090 181C     		mov	r0, r3
 330 0092 1021     		mov	r1, #16
 331 0094 0D22     		mov	r2, #13
 332 0096 FFF7FEFF 		bl	CyBle_GattsDbRegister
 333 009a 031C     		mov	r3, r0
 334 009c 2380     		strh	r3, [r4]
 335 009e 03E0     		b	.L9
 336              	.L7:
 442:.\Generated_Source\PSoC4/BLE_1.c ****             #endif /* CYBLE_GATT_ROLE_SERVER */
 443:.\Generated_Source\PSoC4/BLE_1.c ****             }
 444:.\Generated_Source\PSoC4/BLE_1.c ****         }
 445:.\Generated_Source\PSoC4/BLE_1.c ****     }
 446:.\Generated_Source\PSoC4/BLE_1.c ****     else
 447:.\Generated_Source\PSoC4/BLE_1.c ****     {
 448:.\Generated_Source\PSoC4/BLE_1.c ****         apiResult = CYBLE_ERROR_INVALID_PARAMETER;
 337              		.loc 1 448 0
 338 00a0 2623     		mov	r3, #38
ARM GAS  C:\Users\ilias\AppData\Local\Temp\ccbZWpbs.s 			page 15


 339 00a2 FB18     		add	r3, r7, r3
 340 00a4 0122     		mov	r2, #1
 341 00a6 1A80     		strh	r2, [r3]
 342              	.L9:
 449:.\Generated_Source\PSoC4/BLE_1.c ****     }
 450:.\Generated_Source\PSoC4/BLE_1.c **** 
 451:.\Generated_Source\PSoC4/BLE_1.c ****     return (apiResult);
 343              		.loc 1 451 0
 344 00a8 2623     		mov	r3, #38
 345 00aa FB18     		add	r3, r7, r3
 346 00ac 1B88     		ldrh	r3, [r3]
 452:.\Generated_Source\PSoC4/BLE_1.c **** }
 347              		.loc 1 452 0
 348 00ae 181C     		mov	r0, r3
 349 00b0 BD46     		mov	sp, r7
 350 00b2 0BB0     		add	sp, sp, #44
 351              		@ sp needed
 352 00b4 F0BD     		pop	{r4, r5, r6, r7, pc}
 353              	.L12:
 354 00b6 C046     		.align	2
 355              	.L11:
 356 00b8 70010000 		.word	.LC0
 357 00bc 00000000 		.word	cyBle_initVar
 358 00c0 00000000 		.word	CyBle_ApplCallback
 359 00c4 00000000 		.word	CyBle_EventHandler
 360 00c8 00000000 		.word	cyBle_stackMemoryRam
 361 00cc C80A0000 		.word	2760
 362 00d0 00000000 		.word	cyBle_flashStorage
 363 00d4 00000000 		.word	cyBle_state
 364 00d8 00000000 		.word	cyBle_gattDB
 365              		.cfi_endproc
 366              	.LFE4:
 367              		.size	CyBle_Start, .-CyBle_Start
 368              		.section	.text.CyBle_Stop,"ax",%progbits
 369              		.align	2
 370              		.global	CyBle_Stop
 371              		.code	16
 372              		.thumb_func
 373              		.type	CyBle_Stop, %function
 374              	CyBle_Stop:
 375              	.LFB5:
 453:.\Generated_Source\PSoC4/BLE_1.c **** 
 454:.\Generated_Source\PSoC4/BLE_1.c **** 
 455:.\Generated_Source\PSoC4/BLE_1.c **** /******************************************************************************
 456:.\Generated_Source\PSoC4/BLE_1.c **** * Function Name: CyBle_Stop
 457:.\Generated_Source\PSoC4/BLE_1.c **** ***************************************************************************//**
 458:.\Generated_Source\PSoC4/BLE_1.c **** * 
 459:.\Generated_Source\PSoC4/BLE_1.c **** *  This function stops any ongoing operation in the BLE Stack and forces the 
 460:.\Generated_Source\PSoC4/BLE_1.c **** *  BLE Stack to shut down. The only function that can be called after calling
 461:.\Generated_Source\PSoC4/BLE_1.c **** *  this function is CyBle_Start(). 
 462:.\Generated_Source\PSoC4/BLE_1.c **** * 
 463:.\Generated_Source\PSoC4/BLE_1.c **** * \return
 464:.\Generated_Source\PSoC4/BLE_1.c **** *  None
 465:.\Generated_Source\PSoC4/BLE_1.c **** * 
 466:.\Generated_Source\PSoC4/BLE_1.c **** ******************************************************************************/
 467:.\Generated_Source\PSoC4/BLE_1.c **** void CyBle_Stop(void)
 468:.\Generated_Source\PSoC4/BLE_1.c **** {
ARM GAS  C:\Users\ilias\AppData\Local\Temp\ccbZWpbs.s 			page 16


 376              		.loc 1 468 0
 377              		.cfi_startproc
 378 0000 80B5     		push	{r7, lr}
 379              		.cfi_def_cfa_offset 8
 380              		.cfi_offset 7, -8
 381              		.cfi_offset 14, -4
 382 0002 00AF     		add	r7, sp, #0
 383              		.cfi_def_cfa_register 7
 469:.\Generated_Source\PSoC4/BLE_1.c ****     CyBle_Shutdown();                         /* Stop all ongoing activities */
 384              		.loc 1 469 0
 385 0004 FFF7FEFF 		bl	CyBle_Shutdown
 470:.\Generated_Source\PSoC4/BLE_1.c ****     CyBle_SetState(CYBLE_STATE_STOPPED);
 386              		.loc 1 470 0
 387 0008 024B     		ldr	r3, .L14
 388 000a 0022     		mov	r2, #0
 389 000c 1A70     		strb	r2, [r3]
 471:.\Generated_Source\PSoC4/BLE_1.c ****     #if(CYBLE_SHARING_MODE_EXPORT)
 472:.\Generated_Source\PSoC4/BLE_1.c ****         if(cyBle_stackMemoryRam != NULL)
 473:.\Generated_Source\PSoC4/BLE_1.c ****         {
 474:.\Generated_Source\PSoC4/BLE_1.c ****             free(cyBle_stackMemoryRam);
 475:.\Generated_Source\PSoC4/BLE_1.c ****         }
 476:.\Generated_Source\PSoC4/BLE_1.c ****     #endif /* CYBLE_SHARING_MODE_EXPORT */
 477:.\Generated_Source\PSoC4/BLE_1.c **** }
 390              		.loc 1 477 0
 391 000e BD46     		mov	sp, r7
 392              		@ sp needed
 393 0010 80BD     		pop	{r7, pc}
 394              	.L15:
 395 0012 C046     		.align	2
 396              	.L14:
 397 0014 00000000 		.word	cyBle_state
 398              		.cfi_endproc
 399              	.LFE5:
 400              		.size	CyBle_Stop, .-CyBle_Stop
 401              		.section	.text.CyBle_StoreBondingData,"ax",%progbits
 402              		.align	2
 403              		.global	CyBle_StoreBondingData
 404              		.code	16
 405              		.thumb_func
 406              		.type	CyBle_StoreBondingData, %function
 407              	CyBle_StoreBondingData:
 408              	.LFB6:
 478:.\Generated_Source\PSoC4/BLE_1.c **** 
 479:.\Generated_Source\PSoC4/BLE_1.c **** 
 480:.\Generated_Source\PSoC4/BLE_1.c **** #if((CYBLE_GAP_ROLE_PERIPHERAL || CYBLE_GAP_ROLE_CENTRAL) && (CYBLE_BONDING_REQUIREMENT == CYBLE_BO
 481:.\Generated_Source\PSoC4/BLE_1.c **** 
 482:.\Generated_Source\PSoC4/BLE_1.c ****     
 483:.\Generated_Source\PSoC4/BLE_1.c **** /******************************************************************************
 484:.\Generated_Source\PSoC4/BLE_1.c **** * Function Name: CyBle_StoreBondingData
 485:.\Generated_Source\PSoC4/BLE_1.c **** ***************************************************************************//**
 486:.\Generated_Source\PSoC4/BLE_1.c **** * 
 487:.\Generated_Source\PSoC4/BLE_1.c **** *  This function writes the new bonding data from RAM to the dedicated Flash 
 488:.\Generated_Source\PSoC4/BLE_1.c **** *  location as defined by the component. It performs data comparing between RAM
 489:.\Generated_Source\PSoC4/BLE_1.c **** *  and Flash before writing to Flash. If there is no change between RAM and Flash
 490:.\Generated_Source\PSoC4/BLE_1.c **** *  data, then no write is performed. It writes only one flash row in one call.
 491:.\Generated_Source\PSoC4/BLE_1.c **** *  Application should keep calling this function till API return CYBLE_ERROR_OK. 
 492:.\Generated_Source\PSoC4/BLE_1.c **** *  This function is available only when Bonding requirement is selected in
ARM GAS  C:\Users\ilias\AppData\Local\Temp\ccbZWpbs.s 			page 17


 493:.\Generated_Source\PSoC4/BLE_1.c **** *  Security settings.    
 494:.\Generated_Source\PSoC4/BLE_1.c **** * 
 495:.\Generated_Source\PSoC4/BLE_1.c **** *  \param isForceWrite:  If value is set to 0, then stack will check if flash write 
 496:.\Generated_Source\PSoC4/BLE_1.c **** *                 is permissible. 
 497:.\Generated_Source\PSoC4/BLE_1.c **** *  
 498:.\Generated_Source\PSoC4/BLE_1.c **** * \return
 499:.\Generated_Source\PSoC4/BLE_1.c **** *  Return value is of type CYBLE_API_RESULT_T.
 500:.\Generated_Source\PSoC4/BLE_1.c **** *
 501:.\Generated_Source\PSoC4/BLE_1.c **** *   Errors codes                         | Description
 502:.\Generated_Source\PSoC4/BLE_1.c **** *   ----------------------------------   | ------------------------------------
 503:.\Generated_Source\PSoC4/BLE_1.c **** *   CYBLE_ERROR_OK                       | On successful operation
 504:.\Generated_Source\PSoC4/BLE_1.c **** *   CYBLE_ERROR_FLASH_WRITE_NOT_PERMITED | Flash Write is not complete
 505:.\Generated_Source\PSoC4/BLE_1.c **** *    
 506:.\Generated_Source\PSoC4/BLE_1.c **** *  \sideeffect
 507:.\Generated_Source\PSoC4/BLE_1.c **** *   For BLE devices with 128K of Flash memory this API will automatically 
 508:.\Generated_Source\PSoC4/BLE_1.c **** *   modify the clock settings for the device.
 509:.\Generated_Source\PSoC4/BLE_1.c **** *   Writing to flash requires changes to be done to the IMO (set to 48 MHz)
 510:.\Generated_Source\PSoC4/BLE_1.c **** *   and HFCLK (source set to IMO) settings. The configuration is restored before
 511:.\Generated_Source\PSoC4/BLE_1.c **** *   returning. This will impact the operation of most of the hardware in the
 512:.\Generated_Source\PSoC4/BLE_1.c **** *   device.
 513:.\Generated_Source\PSoC4/BLE_1.c **** * 
 514:.\Generated_Source\PSoC4/BLE_1.c **** *  \globalvars
 515:.\Generated_Source\PSoC4/BLE_1.c **** *   The BLE_1_pendingFlashWrite variable is used to detect status
 516:.\Generated_Source\PSoC4/BLE_1.c **** *   of pending write to flash operation for stack data and CCCD.
 517:.\Generated_Source\PSoC4/BLE_1.c **** *   This API automatically clears pending bits after write operation complete.
 518:.\Generated_Source\PSoC4/BLE_1.c **** *     
 519:.\Generated_Source\PSoC4/BLE_1.c **** ******************************************************************************/
 520:.\Generated_Source\PSoC4/BLE_1.c **** CYBLE_API_RESULT_T CyBle_StoreBondingData(uint8 isForceWrite)
 521:.\Generated_Source\PSoC4/BLE_1.c **** {
 409              		.loc 1 521 0
 410              		.cfi_startproc
 411 0000 90B5     		push	{r4, r7, lr}
 412              		.cfi_def_cfa_offset 12
 413              		.cfi_offset 4, -12
 414              		.cfi_offset 7, -8
 415              		.cfi_offset 14, -4
 416 0002 85B0     		sub	sp, sp, #20
 417              		.cfi_def_cfa_offset 32
 418 0004 00AF     		add	r7, sp, #0
 419              		.cfi_def_cfa_register 7
 420 0006 021C     		mov	r2, r0
 421 0008 FB1D     		add	r3, r7, #7
 422 000a 1A70     		strb	r2, [r3]
 522:.\Generated_Source\PSoC4/BLE_1.c ****     CYBLE_API_RESULT_T apiResult = CYBLE_ERROR_OK;
 423              		.loc 1 522 0
 424 000c 0E23     		mov	r3, #14
 425 000e FB18     		add	r3, r7, r3
 426 0010 0022     		mov	r2, #0
 427 0012 1A80     		strh	r2, [r3]
 523:.\Generated_Source\PSoC4/BLE_1.c ****     
 524:.\Generated_Source\PSoC4/BLE_1.c ****     /* Store Stack data */
 525:.\Generated_Source\PSoC4/BLE_1.c ****     if((cyBle_pendingFlashWrite & CYBLE_PENDING_STACK_FLASH_WRITE_BIT) != 0u)
 428              		.loc 1 525 0
 429 0014 2E4B     		ldr	r3, .L21
 430 0016 1B78     		ldrb	r3, [r3]
 431 0018 1A1C     		mov	r2, r3
 432 001a 0123     		mov	r3, #1
ARM GAS  C:\Users\ilias\AppData\Local\Temp\ccbZWpbs.s 			page 18


 433 001c 1340     		and	r3, r2
 434 001e 1ED0     		beq	.L17
 526:.\Generated_Source\PSoC4/BLE_1.c ****     {
 527:.\Generated_Source\PSoC4/BLE_1.c ****         apiResult = CyBle_StoreStackData(isForceWrite);
 435              		.loc 1 527 0
 436 0020 0E23     		mov	r3, #14
 437 0022 FC18     		add	r4, r7, r3
 438 0024 FB1D     		add	r3, r7, #7
 439 0026 1B78     		ldrb	r3, [r3]
 440 0028 181C     		mov	r0, r3
 441 002a FFF7FEFF 		bl	CyBle_StoreStackData
 442 002e 031C     		mov	r3, r0
 443 0030 2380     		strh	r3, [r4]
 528:.\Generated_Source\PSoC4/BLE_1.c ****         if(apiResult == CYBLE_ERROR_OK)
 444              		.loc 1 528 0
 445 0032 0E23     		mov	r3, #14
 446 0034 FB18     		add	r3, r7, r3
 447 0036 1B88     		ldrh	r3, [r3]
 448 0038 002B     		cmp	r3, #0
 449 003a 10D1     		bne	.L17
 529:.\Generated_Source\PSoC4/BLE_1.c ****         {
 530:.\Generated_Source\PSoC4/BLE_1.c ****             cyBle_pendingFlashWrite &= (uint8)~CYBLE_PENDING_STACK_FLASH_WRITE_BIT;
 450              		.loc 1 530 0
 451 003c 244B     		ldr	r3, .L21
 452 003e 1B78     		ldrb	r3, [r3]
 453 0040 0122     		mov	r2, #1
 454 0042 9343     		bic	r3, r2
 455 0044 DAB2     		uxtb	r2, r3
 456 0046 224B     		ldr	r3, .L21
 457 0048 1A70     		strb	r2, [r3]
 531:.\Generated_Source\PSoC4/BLE_1.c ****             /* Change apiResult if there are more pending data to store */
 532:.\Generated_Source\PSoC4/BLE_1.c ****             if((cyBle_pendingFlashWrite & CYBLE_PENDING_CCCD_FLASH_WRITE_BIT) != 0u)
 458              		.loc 1 532 0
 459 004a 214B     		ldr	r3, .L21
 460 004c 1B78     		ldrb	r3, [r3]
 461 004e 1A1C     		mov	r2, r3
 462 0050 0223     		mov	r3, #2
 463 0052 1340     		and	r3, r2
 464 0054 03D0     		beq	.L17
 533:.\Generated_Source\PSoC4/BLE_1.c ****             {
 534:.\Generated_Source\PSoC4/BLE_1.c ****                 apiResult = CYBLE_ERROR_FLASH_WRITE_NOT_PERMITED;
 465              		.loc 1 534 0
 466 0056 0E23     		mov	r3, #14
 467 0058 FB18     		add	r3, r7, r3
 468 005a 2822     		mov	r2, #40
 469 005c 1A80     		strh	r2, [r3]
 470              	.L17:
 535:.\Generated_Source\PSoC4/BLE_1.c ****             }
 536:.\Generated_Source\PSoC4/BLE_1.c ****         }
 537:.\Generated_Source\PSoC4/BLE_1.c ****     }
 538:.\Generated_Source\PSoC4/BLE_1.c **** #if(CYBLE_GATT_DB_CCCD_COUNT != 0u)
 539:.\Generated_Source\PSoC4/BLE_1.c ****     /* Store CCCD values */
 540:.\Generated_Source\PSoC4/BLE_1.c ****     if( ((apiResult == CYBLE_ERROR_OK) || (isForceWrite != 0u)) && 
 471              		.loc 1 540 0
 472 005e 0E23     		mov	r3, #14
 473 0060 FB18     		add	r3, r7, r3
 474 0062 1B88     		ldrh	r3, [r3]
ARM GAS  C:\Users\ilias\AppData\Local\Temp\ccbZWpbs.s 			page 19


 475 0064 002B     		cmp	r3, #0
 476 0066 03D0     		beq	.L18
 477              		.loc 1 540 0 is_stmt 0 discriminator 2
 478 0068 FB1D     		add	r3, r7, #7
 479 006a 1B78     		ldrb	r3, [r3]
 480 006c 002B     		cmp	r3, #0
 481 006e 28D0     		beq	.L19
 482              	.L18:
 541:.\Generated_Source\PSoC4/BLE_1.c ****         ((cyBle_pendingFlashWrite & CYBLE_PENDING_CCCD_FLASH_WRITE_BIT) != 0u) &&
 483              		.loc 1 541 0 is_stmt 1 discriminator 3
 484 0070 174B     		ldr	r3, .L21
 485 0072 1B78     		ldrb	r3, [r3]
 486 0074 1A1C     		mov	r2, r3
 487 0076 0223     		mov	r3, #2
 488 0078 1340     		and	r3, r2
 540:.\Generated_Source\PSoC4/BLE_1.c ****         ((cyBle_pendingFlashWrite & CYBLE_PENDING_CCCD_FLASH_WRITE_BIT) != 0u) &&
 489              		.loc 1 540 0 discriminator 3
 490 007a 22D0     		beq	.L19
 542:.\Generated_Source\PSoC4/BLE_1.c ****         (cyBle_connHandle.bdHandle <= CYBLE_GAP_MAX_BONDED_DEVICE))
 491              		.loc 1 542 0
 492 007c 154B     		ldr	r3, .L21+4
 493 007e 1B78     		ldrb	r3, [r3]
 541:.\Generated_Source\PSoC4/BLE_1.c ****         ((cyBle_pendingFlashWrite & CYBLE_PENDING_CCCD_FLASH_WRITE_BIT) != 0u) &&
 494              		.loc 1 541 0
 495 0080 042B     		cmp	r3, #4
 496 0082 1ED8     		bhi	.L19
 543:.\Generated_Source\PSoC4/BLE_1.c ****     {
 544:.\Generated_Source\PSoC4/BLE_1.c ****         apiResult = CyBle_StoreAppData(cyBle_attValuesCCCD, cyBle_flashStorage.attValuesCCCDFlashMe
 497              		.loc 1 544 0
 498 0084 134B     		ldr	r3, .L21+4
 499 0086 1B78     		ldrb	r3, [r3]
 500 0088 5A33     		add	r3, r3, #90
 501 008a 9A00     		lsl	r2, r3, #2
 502 008c 124B     		ldr	r3, .L21+8
 503 008e D318     		add	r3, r2, r3
 504 0090 5A1D     		add	r2, r3, #5
 505 0092 0E23     		mov	r3, #14
 506 0094 FC18     		add	r4, r7, r3
 507 0096 1149     		ldr	r1, .L21+12
 508 0098 FB1D     		add	r3, r7, #7
 509 009a 1B78     		ldrb	r3, [r3]
 510 009c 081C     		mov	r0, r1
 511 009e 111C     		mov	r1, r2
 512 00a0 0422     		mov	r2, #4
 513 00a2 FFF7FEFF 		bl	CyBle_StoreAppData
 514 00a6 031C     		mov	r3, r0
 515 00a8 2380     		strh	r3, [r4]
 545:.\Generated_Source\PSoC4/BLE_1.c ****                                        CYBLE_GATT_DB_CCCD_COUNT, isForceWrite);
 546:.\Generated_Source\PSoC4/BLE_1.c ****         if(apiResult == CYBLE_ERROR_OK)
 516              		.loc 1 546 0
 517 00aa 0E23     		mov	r3, #14
 518 00ac FB18     		add	r3, r7, r3
 519 00ae 1B88     		ldrh	r3, [r3]
 520 00b0 002B     		cmp	r3, #0
 521 00b2 06D1     		bne	.L19
 547:.\Generated_Source\PSoC4/BLE_1.c ****         {
 548:.\Generated_Source\PSoC4/BLE_1.c ****             cyBle_pendingFlashWrite &= (uint8)~CYBLE_PENDING_CCCD_FLASH_WRITE_BIT;
ARM GAS  C:\Users\ilias\AppData\Local\Temp\ccbZWpbs.s 			page 20


 522              		.loc 1 548 0
 523 00b4 064B     		ldr	r3, .L21
 524 00b6 1B78     		ldrb	r3, [r3]
 525 00b8 0222     		mov	r2, #2
 526 00ba 9343     		bic	r3, r2
 527 00bc DAB2     		uxtb	r2, r3
 528 00be 044B     		ldr	r3, .L21
 529 00c0 1A70     		strb	r2, [r3]
 530              	.L19:
 549:.\Generated_Source\PSoC4/BLE_1.c ****         }
 550:.\Generated_Source\PSoC4/BLE_1.c ****     }
 551:.\Generated_Source\PSoC4/BLE_1.c **** #endif /* CYBLE_GATT_DB_CCCD_COUNT != 0u */
 552:.\Generated_Source\PSoC4/BLE_1.c ****     return(apiResult);
 531              		.loc 1 552 0
 532 00c2 0E23     		mov	r3, #14
 533 00c4 FB18     		add	r3, r7, r3
 534 00c6 1B88     		ldrh	r3, [r3]
 553:.\Generated_Source\PSoC4/BLE_1.c **** }
 535              		.loc 1 553 0
 536 00c8 181C     		mov	r0, r3
 537 00ca BD46     		mov	sp, r7
 538 00cc 05B0     		add	sp, sp, #20
 539              		@ sp needed
 540 00ce 90BD     		pop	{r4, r7, pc}
 541              	.L22:
 542              		.align	2
 543              	.L21:
 544 00d0 00000000 		.word	cyBle_pendingFlashWrite
 545 00d4 00000000 		.word	cyBle_connHandle
 546 00d8 00000000 		.word	cyBle_flashStorage
 547 00dc 00000000 		.word	cyBle_attValuesCCCD
 548              		.cfi_endproc
 549              	.LFE6:
 550              		.size	CyBle_StoreBondingData, .-CyBle_StoreBondingData
 551              		.section	.text.CyBle_GappStartAdvertisement,"ax",%progbits
 552              		.align	2
 553              		.global	CyBle_GappStartAdvertisement
 554              		.code	16
 555              		.thumb_func
 556              		.type	CyBle_GappStartAdvertisement, %function
 557              	CyBle_GappStartAdvertisement:
 558              	.LFB7:
 554:.\Generated_Source\PSoC4/BLE_1.c **** 
 555:.\Generated_Source\PSoC4/BLE_1.c **** 
 556:.\Generated_Source\PSoC4/BLE_1.c **** #endif /* (CYBLE_GAP_ROLE_PERIPHERAL || CYBLE_GAP_ROLE_CENTRAL) && (CYBLE_BONDING_REQUIREMENT == CY
 557:.\Generated_Source\PSoC4/BLE_1.c **** 
 558:.\Generated_Source\PSoC4/BLE_1.c **** 
 559:.\Generated_Source\PSoC4/BLE_1.c **** #if(CYBLE_GAP_ROLE_PERIPHERAL || CYBLE_GAP_ROLE_BROADCASTER)
 560:.\Generated_Source\PSoC4/BLE_1.c **** 
 561:.\Generated_Source\PSoC4/BLE_1.c ****     /******************************************************************************
 562:.\Generated_Source\PSoC4/BLE_1.c ****     *  Function Name: CyBle_GappStartAdvertisement
 563:.\Generated_Source\PSoC4/BLE_1.c ****     ***************************************************************************//**
 564:.\Generated_Source\PSoC4/BLE_1.c ****     *     
 565:.\Generated_Source\PSoC4/BLE_1.c ****     *  This function is used to start the advertisement using the advertisement data 
 566:.\Generated_Source\PSoC4/BLE_1.c ****     *  set in the component customizer's GUI. After invoking this API, the device 
 567:.\Generated_Source\PSoC4/BLE_1.c ****     *  will be available for connection by the devices configured for GAP central 
 568:.\Generated_Source\PSoC4/BLE_1.c ****     *  role. It is only included if the device is configured for GAP Peripheral or 
ARM GAS  C:\Users\ilias\AppData\Local\Temp\ccbZWpbs.s 			page 21


 569:.\Generated_Source\PSoC4/BLE_1.c ****     *  GAP Peripheral + Central role.
 570:.\Generated_Source\PSoC4/BLE_1.c ****     *  
 571:.\Generated_Source\PSoC4/BLE_1.c ****     *  On start of advertisement, GAP Peripheral receives the
 572:.\Generated_Source\PSoC4/BLE_1.c ****     *  CYBLE_EVT_GAPP_ADVERTISEMENT_START_STOP event. The following events are 
 573:.\Generated_Source\PSoC4/BLE_1.c ****     *  possible on invoking this function:
 574:.\Generated_Source\PSoC4/BLE_1.c ****     *  
 575:.\Generated_Source\PSoC4/BLE_1.c ****     *  * CYBLE_EVT_GAP_DEVICE_CONNECTED: If the device connects to remote GAP 
 576:.\Generated_Source\PSoC4/BLE_1.c ****     *                                      Central device
 577:.\Generated_Source\PSoC4/BLE_1.c ****     *  * CYBLE_EVT_TIMEOUT: If no device in GAP Central mode connects to this 
 578:.\Generated_Source\PSoC4/BLE_1.c ****     *                       device within the specified timeout limit. Stack 
 579:.\Generated_Source\PSoC4/BLE_1.c ****     *                       automatically initiate stop advertising when Slow 
 580:.\Generated_Source\PSoC4/BLE_1.c ****     *                       advertising was initiated, or starts Slow advertising
 581:.\Generated_Source\PSoC4/BLE_1.c ****     *                       after Fast advertising timeout occur.
 582:.\Generated_Source\PSoC4/BLE_1.c ****     *  * CYBLE_EVT_GAPP_ADVERTISEMENT_START_STOP: If device started or stopped
 583:.\Generated_Source\PSoC4/BLE_1.c ****     *                                               advertising. Use CyBle_GetState()
 584:.\Generated_Source\PSoC4/BLE_1.c ****     *                                               to determine the state. Sequential 
 585:.\Generated_Source\PSoC4/BLE_1.c ****     *                                               advertising could be started when
 586:.\Generated_Source\PSoC4/BLE_1.c ****     *                                               CYBLE_STATE_DISCONNECTED state is
 587:.\Generated_Source\PSoC4/BLE_1.c ****     *                                               returned.
 588:.\Generated_Source\PSoC4/BLE_1.c ****     * 
 589:.\Generated_Source\PSoC4/BLE_1.c ****     *  \param advertisingIntervalType: Fast or slow advertising interval with timings
 590:.\Generated_Source\PSoC4/BLE_1.c ****     *                                 entered in Advertising settings section of the
 591:.\Generated_Source\PSoC4/BLE_1.c ****     *                                 customizer.
 592:.\Generated_Source\PSoC4/BLE_1.c ****     *  * CYBLE_ADVERTISING_FAST   0x00u
 593:.\Generated_Source\PSoC4/BLE_1.c ****     *  * CYBLE_ADVERTISING_SLOW   0x01u
 594:.\Generated_Source\PSoC4/BLE_1.c ****     *  * CYBLE_ADVERTISING_CUSTOM 0x02u
 595:.\Generated_Source\PSoC4/BLE_1.c ****     * 
 596:.\Generated_Source\PSoC4/BLE_1.c ****     * \return
 597:.\Generated_Source\PSoC4/BLE_1.c ****     *  CYBLE_API_RESULT_T : Return value indicates if the function succeeded or
 598:.\Generated_Source\PSoC4/BLE_1.c ****     *  failed. Following are the possible error codes.
 599:.\Generated_Source\PSoC4/BLE_1.c ****     * 
 600:.\Generated_Source\PSoC4/BLE_1.c ****     *   Errors codes                      |  Description
 601:.\Generated_Source\PSoC4/BLE_1.c ****     *   --------------------------------- |  --------------------------------
 602:.\Generated_Source\PSoC4/BLE_1.c ****     *   CYBLE_ERROR_OK                    |  On successful operation.
 603:.\Generated_Source\PSoC4/BLE_1.c ****     *   CYBLE_ERROR_INVALID_PARAMETER     |  On passing an invalid parameter.
 604:.\Generated_Source\PSoC4/BLE_1.c ****     *   CYBLE_ERROR_INVALID_STATE         |  On calling this API not in Disconnected state.
 605:.\Generated_Source\PSoC4/BLE_1.c ****     *
 606:.\Generated_Source\PSoC4/BLE_1.c ****     * 
 607:.\Generated_Source\PSoC4/BLE_1.c ****     *******************************************************************************/
 608:.\Generated_Source\PSoC4/BLE_1.c ****     CYBLE_API_RESULT_T CyBle_GappStartAdvertisement(uint8 advertisingIntervalType)
 609:.\Generated_Source\PSoC4/BLE_1.c ****     {
 559              		.loc 1 609 0
 560              		.cfi_startproc
 561 0000 90B5     		push	{r4, r7, lr}
 562              		.cfi_def_cfa_offset 12
 563              		.cfi_offset 4, -12
 564              		.cfi_offset 7, -8
 565              		.cfi_offset 14, -4
 566 0002 85B0     		sub	sp, sp, #20
 567              		.cfi_def_cfa_offset 32
 568 0004 00AF     		add	r7, sp, #0
 569              		.cfi_def_cfa_register 7
 570 0006 021C     		mov	r2, r0
 571 0008 FB1D     		add	r3, r7, #7
 572 000a 1A70     		strb	r2, [r3]
 610:.\Generated_Source\PSoC4/BLE_1.c ****         CYBLE_API_RESULT_T apiResult;
 611:.\Generated_Source\PSoC4/BLE_1.c ****         
ARM GAS  C:\Users\ilias\AppData\Local\Temp\ccbZWpbs.s 			page 22


 612:.\Generated_Source\PSoC4/BLE_1.c ****         if(advertisingIntervalType > CYBLE_ADVERTISING_CUSTOM)
 573              		.loc 1 612 0
 574 000c FB1D     		add	r3, r7, #7
 575 000e 1B78     		ldrb	r3, [r3]
 576 0010 022B     		cmp	r3, #2
 577 0012 04D9     		bls	.L24
 613:.\Generated_Source\PSoC4/BLE_1.c ****         {
 614:.\Generated_Source\PSoC4/BLE_1.c ****             apiResult = CYBLE_ERROR_INVALID_PARAMETER;
 578              		.loc 1 614 0
 579 0014 0E23     		mov	r3, #14
 580 0016 FB18     		add	r3, r7, r3
 581 0018 0122     		mov	r2, #1
 582 001a 1A80     		strh	r2, [r3]
 583 001c 4BE0     		b	.L25
 584              	.L24:
 615:.\Generated_Source\PSoC4/BLE_1.c ****         }
 616:.\Generated_Source\PSoC4/BLE_1.c ****         else if((CYBLE_STATE_DISCONNECTED == CyBle_GetState()) && ((cyBle_eventHandlerFlag & CYBLE_
 585              		.loc 1 616 0
 586 001e 294B     		ldr	r3, .L31
 587 0020 1B78     		ldrb	r3, [r3]
 588 0022 042B     		cmp	r3, #4
 589 0024 42D1     		bne	.L26
 590              		.loc 1 616 0 is_stmt 0 discriminator 1
 591 0026 284B     		ldr	r3, .L31+4
 592 0028 1B78     		ldrb	r3, [r3]
 593 002a DBB2     		uxtb	r3, r3
 594 002c 1A1C     		mov	r2, r3
 595 002e 0423     		mov	r3, #4
 596 0030 1340     		and	r3, r2
 597 0032 3BD1     		bne	.L26
 617:.\Generated_Source\PSoC4/BLE_1.c ****         {   
 618:.\Generated_Source\PSoC4/BLE_1.c ****             if(advertisingIntervalType == CYBLE_ADVERTISING_FAST)
 598              		.loc 1 618 0 is_stmt 1
 599 0034 FB1D     		add	r3, r7, #7
 600 0036 1B78     		ldrb	r3, [r3]
 601 0038 002B     		cmp	r3, #0
 602 003a 0BD1     		bne	.L27
 619:.\Generated_Source\PSoC4/BLE_1.c ****             {
 620:.\Generated_Source\PSoC4/BLE_1.c ****                 cyBle_discoveryModeInfo.advTo = CYBLE_FAST_ADV_TIMEOUT;
 603              		.loc 1 620 0
 604 003c 234B     		ldr	r3, .L31+8
 605 003e 0022     		mov	r2, #0
 606 0040 1A82     		strh	r2, [r3, #16]
 621:.\Generated_Source\PSoC4/BLE_1.c ****                 cyBle_discoveryModeInfo.advParam->advIntvMin = CYBLE_FAST_ADV_INT_MIN;
 607              		.loc 1 621 0
 608 0042 224B     		ldr	r3, .L31+8
 609 0044 5B68     		ldr	r3, [r3, #4]
 610 0046 2022     		mov	r2, #32
 611 0048 1A80     		strh	r2, [r3]
 622:.\Generated_Source\PSoC4/BLE_1.c ****                 cyBle_discoveryModeInfo.advParam->advIntvMax = CYBLE_FAST_ADV_INT_MAX;
 612              		.loc 1 622 0
 613 004a 204B     		ldr	r3, .L31+8
 614 004c 5B68     		ldr	r3, [r3, #4]
 615 004e 6022     		mov	r2, #96
 616 0050 5A80     		strh	r2, [r3, #2]
 617 0052 10E0     		b	.L28
 618              	.L27:
ARM GAS  C:\Users\ilias\AppData\Local\Temp\ccbZWpbs.s 			page 23


 623:.\Generated_Source\PSoC4/BLE_1.c ****             }
 624:.\Generated_Source\PSoC4/BLE_1.c ****             else if(advertisingIntervalType == CYBLE_ADVERTISING_SLOW)
 619              		.loc 1 624 0
 620 0054 FB1D     		add	r3, r7, #7
 621 0056 1B78     		ldrb	r3, [r3]
 622 0058 012B     		cmp	r3, #1
 623 005a 0CD1     		bne	.L28
 625:.\Generated_Source\PSoC4/BLE_1.c ****             {
 626:.\Generated_Source\PSoC4/BLE_1.c ****                 cyBle_discoveryModeInfo.advTo = CYBLE_SLOW_ADV_TIMEOUT;
 624              		.loc 1 626 0
 625 005c 1B4B     		ldr	r3, .L31+8
 626 005e 9622     		mov	r2, #150
 627 0060 1A82     		strh	r2, [r3, #16]
 627:.\Generated_Source\PSoC4/BLE_1.c ****                 cyBle_discoveryModeInfo.advParam->advIntvMin = CYBLE_SLOW_ADV_INT_MIN;
 628              		.loc 1 627 0
 629 0062 1A4B     		ldr	r3, .L31+8
 630 0064 5B68     		ldr	r3, [r3, #4]
 631 0066 C822     		mov	r2, #200
 632 0068 D200     		lsl	r2, r2, #3
 633 006a 1A80     		strh	r2, [r3]
 628:.\Generated_Source\PSoC4/BLE_1.c ****                 cyBle_discoveryModeInfo.advParam->advIntvMax = CYBLE_SLOW_ADV_INT_MAX;
 634              		.loc 1 628 0
 635 006c 174B     		ldr	r3, .L31+8
 636 006e 5B68     		ldr	r3, [r3, #4]
 637 0070 8022     		mov	r2, #128
 638 0072 D201     		lsl	r2, r2, #7
 639 0074 5A80     		strh	r2, [r3, #2]
 640              	.L28:
 629:.\Generated_Source\PSoC4/BLE_1.c ****             }       
 630:.\Generated_Source\PSoC4/BLE_1.c ****             else /* Do not update advertising intervals */
 631:.\Generated_Source\PSoC4/BLE_1.c ****             {
 632:.\Generated_Source\PSoC4/BLE_1.c ****             }
 633:.\Generated_Source\PSoC4/BLE_1.c ****             cyBle_advertisingIntervalType = advertisingIntervalType;
 641              		.loc 1 633 0
 642 0076 164B     		ldr	r3, .L31+12
 643 0078 FA1D     		add	r2, r7, #7
 644 007a 1278     		ldrb	r2, [r2]
 645 007c 1A70     		strb	r2, [r3]
 634:.\Generated_Source\PSoC4/BLE_1.c ****             apiResult = CyBle_GappEnterDiscoveryMode(&cyBle_discoveryModeInfo);
 646              		.loc 1 634 0
 647 007e 0E23     		mov	r3, #14
 648 0080 FC18     		add	r4, r7, r3
 649 0082 124B     		ldr	r3, .L31+8
 650 0084 181C     		mov	r0, r3
 651 0086 FFF7FEFF 		bl	CyBle_GappEnterDiscoveryMode
 652 008a 031C     		mov	r3, r0
 653 008c 2380     		strh	r3, [r4]
 635:.\Generated_Source\PSoC4/BLE_1.c ****         
 636:.\Generated_Source\PSoC4/BLE_1.c ****             if(CYBLE_ERROR_OK == apiResult)
 654              		.loc 1 636 0
 655 008e 0E23     		mov	r3, #14
 656 0090 FB18     		add	r3, r7, r3
 657 0092 1B88     		ldrh	r3, [r3]
 658 0094 002B     		cmp	r3, #0
 659 0096 08D1     		bne	.L29
 637:.\Generated_Source\PSoC4/BLE_1.c ****             {
 638:.\Generated_Source\PSoC4/BLE_1.c ****                 cyBle_eventHandlerFlag |= CYBLE_START_FLAG;
ARM GAS  C:\Users\ilias\AppData\Local\Temp\ccbZWpbs.s 			page 24


 660              		.loc 1 638 0
 661 0098 0B4B     		ldr	r3, .L31+4
 662 009a 1B78     		ldrb	r3, [r3]
 663 009c DBB2     		uxtb	r3, r3
 664 009e 0422     		mov	r2, #4
 665 00a0 1343     		orr	r3, r2
 666 00a2 DAB2     		uxtb	r2, r3
 667 00a4 084B     		ldr	r3, .L31+4
 668 00a6 1A70     		strb	r2, [r3]
 636:.\Generated_Source\PSoC4/BLE_1.c ****             {
 669              		.loc 1 636 0
 670 00a8 05E0     		b	.L25
 671              	.L29:
 672 00aa 04E0     		b	.L25
 673              	.L26:
 639:.\Generated_Source\PSoC4/BLE_1.c ****             }
 640:.\Generated_Source\PSoC4/BLE_1.c ****         }
 641:.\Generated_Source\PSoC4/BLE_1.c ****         else
 642:.\Generated_Source\PSoC4/BLE_1.c ****         {
 643:.\Generated_Source\PSoC4/BLE_1.c ****             apiResult = CYBLE_ERROR_INVALID_STATE;
 674              		.loc 1 643 0
 675 00ac 0E23     		mov	r3, #14
 676 00ae FB18     		add	r3, r7, r3
 677 00b0 0422     		mov	r2, #4
 678 00b2 FF32     		add	r2, r2, #255
 679 00b4 1A80     		strh	r2, [r3]
 680              	.L25:
 644:.\Generated_Source\PSoC4/BLE_1.c ****         }
 645:.\Generated_Source\PSoC4/BLE_1.c **** 
 646:.\Generated_Source\PSoC4/BLE_1.c ****         return (apiResult);
 681              		.loc 1 646 0
 682 00b6 0E23     		mov	r3, #14
 683 00b8 FB18     		add	r3, r7, r3
 684 00ba 1B88     		ldrh	r3, [r3]
 647:.\Generated_Source\PSoC4/BLE_1.c ****     }
 685              		.loc 1 647 0
 686 00bc 181C     		mov	r0, r3
 687 00be BD46     		mov	sp, r7
 688 00c0 05B0     		add	sp, sp, #20
 689              		@ sp needed
 690 00c2 90BD     		pop	{r4, r7, pc}
 691              	.L32:
 692              		.align	2
 693              	.L31:
 694 00c4 00000000 		.word	cyBle_state
 695 00c8 00000000 		.word	cyBle_eventHandlerFlag
 696 00cc 00000000 		.word	cyBle_discoveryModeInfo
 697 00d0 00000000 		.word	cyBle_advertisingIntervalType
 698              		.cfi_endproc
 699              	.LFE7:
 700              		.size	CyBle_GappStartAdvertisement, .-CyBle_GappStartAdvertisement
 701              		.section	.text.CyBle_GappStopAdvertisement,"ax",%progbits
 702              		.align	2
 703              		.global	CyBle_GappStopAdvertisement
 704              		.code	16
 705              		.thumb_func
 706              		.type	CyBle_GappStopAdvertisement, %function
ARM GAS  C:\Users\ilias\AppData\Local\Temp\ccbZWpbs.s 			page 25


 707              	CyBle_GappStopAdvertisement:
 708              	.LFB8:
 648:.\Generated_Source\PSoC4/BLE_1.c **** 
 649:.\Generated_Source\PSoC4/BLE_1.c ****     
 650:.\Generated_Source\PSoC4/BLE_1.c ****     /******************************************************************************
 651:.\Generated_Source\PSoC4/BLE_1.c ****     * Function Name: CyBle_GappStopAdvertisement
 652:.\Generated_Source\PSoC4/BLE_1.c ****     ***************************************************************************//**
 653:.\Generated_Source\PSoC4/BLE_1.c ****     * 
 654:.\Generated_Source\PSoC4/BLE_1.c ****     *   This function can be used to exit from discovery mode. After the execution 
 655:.\Generated_Source\PSoC4/BLE_1.c ****     *   of this function, there will no longer be any advertisements. On stopping 
 656:.\Generated_Source\PSoC4/BLE_1.c ****     *   advertising, GAP Peripheral receives CYBLE_EVT_GAPP_ADVERTISEMENT_START_STOP
 657:.\Generated_Source\PSoC4/BLE_1.c ****     *   event. It is expected that the application layer tracks the function call 
 658:.\Generated_Source\PSoC4/BLE_1.c ****     *   performed before occurrence of this event as this event can occur on making 
 659:.\Generated_Source\PSoC4/BLE_1.c ****     *   a call to Cy_BleGappStartAdvertisement(), CyBle_GappEnterDiscoveryMode(), 
 660:.\Generated_Source\PSoC4/BLE_1.c ****     *   or CyBle_GappStartAdvertisement() functions as well.
 661:.\Generated_Source\PSoC4/BLE_1.c ****     *   
 662:.\Generated_Source\PSoC4/BLE_1.c ****     *   The following event occurs on invoking this function:
 663:.\Generated_Source\PSoC4/BLE_1.c ****     *   * CYBLE_EVT_GAPP_ADVERTISEMENT_START_STOP
 664:.\Generated_Source\PSoC4/BLE_1.c ****     * 
 665:.\Generated_Source\PSoC4/BLE_1.c ****     *  \return
 666:.\Generated_Source\PSoC4/BLE_1.c ****     *   None
 667:.\Generated_Source\PSoC4/BLE_1.c ****     * 
 668:.\Generated_Source\PSoC4/BLE_1.c ****     *******************************************************************************/
 669:.\Generated_Source\PSoC4/BLE_1.c ****     void CyBle_GappStopAdvertisement(void)
 670:.\Generated_Source\PSoC4/BLE_1.c ****     {
 709              		.loc 1 670 0
 710              		.cfi_startproc
 711 0000 80B5     		push	{r7, lr}
 712              		.cfi_def_cfa_offset 8
 713              		.cfi_offset 7, -8
 714              		.cfi_offset 14, -4
 715 0002 00AF     		add	r7, sp, #0
 716              		.cfi_def_cfa_register 7
 671:.\Generated_Source\PSoC4/BLE_1.c ****         CyBle_GappExitDiscoveryMode();
 717              		.loc 1 671 0
 718 0004 FFF7FEFF 		bl	CyBle_GappExitDiscoveryMode
 672:.\Generated_Source\PSoC4/BLE_1.c ****         cyBle_eventHandlerFlag |= CYBLE_STOP_FLAG;
 719              		.loc 1 672 0
 720 0008 044B     		ldr	r3, .L34
 721 000a 1B78     		ldrb	r3, [r3]
 722 000c DBB2     		uxtb	r3, r3
 723 000e 0822     		mov	r2, #8
 724 0010 1343     		orr	r3, r2
 725 0012 DAB2     		uxtb	r2, r3
 726 0014 014B     		ldr	r3, .L34
 727 0016 1A70     		strb	r2, [r3]
 673:.\Generated_Source\PSoC4/BLE_1.c ****     }
 728              		.loc 1 673 0
 729 0018 BD46     		mov	sp, r7
 730              		@ sp needed
 731 001a 80BD     		pop	{r7, pc}
 732              	.L35:
 733              		.align	2
 734              	.L34:
 735 001c 00000000 		.word	cyBle_eventHandlerFlag
 736              		.cfi_endproc
 737              	.LFE8:
ARM GAS  C:\Users\ilias\AppData\Local\Temp\ccbZWpbs.s 			page 26


 738              		.size	CyBle_GappStopAdvertisement, .-CyBle_GappStopAdvertisement
 739              		.section	.text.CyBle_ChangeAdDeviceAddress,"ax",%progbits
 740              		.align	2
 741              		.global	CyBle_ChangeAdDeviceAddress
 742              		.code	16
 743              		.thumb_func
 744              		.type	CyBle_ChangeAdDeviceAddress, %function
 745              	CyBle_ChangeAdDeviceAddress:
 746              	.LFB9:
 674:.\Generated_Source\PSoC4/BLE_1.c ****     
 675:.\Generated_Source\PSoC4/BLE_1.c ****     
 676:.\Generated_Source\PSoC4/BLE_1.c ****     /******************************************************************************
 677:.\Generated_Source\PSoC4/BLE_1.c ****     * Function Name: CyBle_ChangeAdDeviceAddress
 678:.\Generated_Source\PSoC4/BLE_1.c ****     ***************************************************************************//**
 679:.\Generated_Source\PSoC4/BLE_1.c ****     * 
 680:.\Generated_Source\PSoC4/BLE_1.c ****     *  This API is used to set the Bluetooth device address into the advertisement 
 681:.\Generated_Source\PSoC4/BLE_1.c ****     *  or scan response data structure.
 682:.\Generated_Source\PSoC4/BLE_1.c ****     * 
 683:.\Generated_Source\PSoC4/BLE_1.c ****     *  \param bdAddr: Bluetooth Device address. The variable is of type CYBLE_GAP_BD_ADDR_T
 684:.\Generated_Source\PSoC4/BLE_1.c ****     *  \param dest: 0 - selects advertisement structure, not zero value selects scan 
 685:.\Generated_Source\PSoC4/BLE_1.c ****     *               response structure.
 686:.\Generated_Source\PSoC4/BLE_1.c ****     * 
 687:.\Generated_Source\PSoC4/BLE_1.c ****     * \return
 688:.\Generated_Source\PSoC4/BLE_1.c ****     *  None
 689:.\Generated_Source\PSoC4/BLE_1.c ****     *  
 690:.\Generated_Source\PSoC4/BLE_1.c ****     *******************************************************************************/
 691:.\Generated_Source\PSoC4/BLE_1.c ****     void CyBle_ChangeAdDeviceAddress(const CYBLE_GAP_BD_ADDR_T* bdAddr, uint8 dest)
 692:.\Generated_Source\PSoC4/BLE_1.c ****     {
 747              		.loc 1 692 0
 748              		.cfi_startproc
 749 0000 80B5     		push	{r7, lr}
 750              		.cfi_def_cfa_offset 8
 751              		.cfi_offset 7, -8
 752              		.cfi_offset 14, -4
 753 0002 84B0     		sub	sp, sp, #16
 754              		.cfi_def_cfa_offset 24
 755 0004 00AF     		add	r7, sp, #0
 756              		.cfi_def_cfa_register 7
 757 0006 7860     		str	r0, [r7, #4]
 758 0008 0A1C     		mov	r2, r1
 759 000a FB1C     		add	r3, r7, #3
 760 000c 1A70     		strb	r2, [r3]
 693:.\Generated_Source\PSoC4/BLE_1.c ****         uint8 i;
 694:.\Generated_Source\PSoC4/BLE_1.c ****         uint8 *destBuffer = NULL;
 761              		.loc 1 694 0
 762 000e 0023     		mov	r3, #0
 763 0010 BB60     		str	r3, [r7, #8]
 695:.\Generated_Source\PSoC4/BLE_1.c ****         
 696:.\Generated_Source\PSoC4/BLE_1.c ****         if(dest == 0u)      /* Destination - advertising structure */
 697:.\Generated_Source\PSoC4/BLE_1.c ****         {
 698:.\Generated_Source\PSoC4/BLE_1.c ****             #ifdef CYBLE_ADV_PKT_INDEX_BLUETOOTH_DEVICE_ADDRESS
 699:.\Generated_Source\PSoC4/BLE_1.c ****                 destBuffer = &cyBle_discoveryData.advData[CYBLE_ADV_PKT_INDEX_BLUETOOTH_DEVICE_ADDR
 700:.\Generated_Source\PSoC4/BLE_1.c ****             #endif /* CYBLE_ADV_PKT_INDEX_BLUETOOTH_DEVICE_ADDRESS */
 701:.\Generated_Source\PSoC4/BLE_1.c ****         }
 702:.\Generated_Source\PSoC4/BLE_1.c ****         else                /* Destination - scan response structure */
 703:.\Generated_Source\PSoC4/BLE_1.c ****         {
 704:.\Generated_Source\PSoC4/BLE_1.c ****             #ifdef CYBLE_SCN_PKT_INDEX_BLUETOOTH_DEVICE_ADDRESS
ARM GAS  C:\Users\ilias\AppData\Local\Temp\ccbZWpbs.s 			page 27


 705:.\Generated_Source\PSoC4/BLE_1.c ****                 destBuffer = &cyBle_scanRspData.scanRspData[CYBLE_SCN_PKT_INDEX_BLUETOOTH_DEVICE_AD
 706:.\Generated_Source\PSoC4/BLE_1.c ****             #endif /* CYBLE_SCN_PKT_INDEX_BLUETOOTH_DEVICE_ADDRESS */    
 707:.\Generated_Source\PSoC4/BLE_1.c ****         }
 708:.\Generated_Source\PSoC4/BLE_1.c ****         
 709:.\Generated_Source\PSoC4/BLE_1.c ****         if(destBuffer != NULL)
 764              		.loc 1 709 0
 765 0012 BB68     		ldr	r3, [r7, #8]
 766 0014 002B     		cmp	r3, #0
 767 0016 20D0     		beq	.L36
 710:.\Generated_Source\PSoC4/BLE_1.c ****         {
 711:.\Generated_Source\PSoC4/BLE_1.c ****             /* Update Device Address type */
 712:.\Generated_Source\PSoC4/BLE_1.c ****             destBuffer[0u] = bdAddr->type;
 768              		.loc 1 712 0
 769 0018 7B68     		ldr	r3, [r7, #4]
 770 001a 9A79     		ldrb	r2, [r3, #6]
 771 001c BB68     		ldr	r3, [r7, #8]
 772 001e 1A70     		strb	r2, [r3]
 713:.\Generated_Source\PSoC4/BLE_1.c ****             
 714:.\Generated_Source\PSoC4/BLE_1.c ****             for(i = 0u; i < CYBLE_GAP_BD_ADDR_SIZE; i++)
 773              		.loc 1 714 0
 774 0020 0F23     		mov	r3, #15
 775 0022 FB18     		add	r3, r7, r3
 776 0024 0022     		mov	r2, #0
 777 0026 1A70     		strb	r2, [r3]
 778 0028 12E0     		b	.L38
 779              	.L39:
 715:.\Generated_Source\PSoC4/BLE_1.c ****             {
 716:.\Generated_Source\PSoC4/BLE_1.c ****                 destBuffer[i + 1u] = bdAddr->bdAddr[i];
 780              		.loc 1 716 0 discriminator 3
 781 002a 0F23     		mov	r3, #15
 782 002c FB18     		add	r3, r7, r3
 783 002e 1B78     		ldrb	r3, [r3]
 784 0030 0133     		add	r3, r3, #1
 785 0032 BA68     		ldr	r2, [r7, #8]
 786 0034 D318     		add	r3, r2, r3
 787 0036 0F22     		mov	r2, #15
 788 0038 BA18     		add	r2, r7, r2
 789 003a 1278     		ldrb	r2, [r2]
 790 003c 7968     		ldr	r1, [r7, #4]
 791 003e 8A5C     		ldrb	r2, [r1, r2]
 792 0040 1A70     		strb	r2, [r3]
 714:.\Generated_Source\PSoC4/BLE_1.c ****             {
 793              		.loc 1 714 0 discriminator 3
 794 0042 0F23     		mov	r3, #15
 795 0044 FB18     		add	r3, r7, r3
 796 0046 1A78     		ldrb	r2, [r3]
 797 0048 0F23     		mov	r3, #15
 798 004a FB18     		add	r3, r7, r3
 799 004c 0132     		add	r2, r2, #1
 800 004e 1A70     		strb	r2, [r3]
 801              	.L38:
 714:.\Generated_Source\PSoC4/BLE_1.c ****             {
 802              		.loc 1 714 0 is_stmt 0 discriminator 1
 803 0050 0F23     		mov	r3, #15
 804 0052 FB18     		add	r3, r7, r3
 805 0054 1B78     		ldrb	r3, [r3]
 806 0056 052B     		cmp	r3, #5
ARM GAS  C:\Users\ilias\AppData\Local\Temp\ccbZWpbs.s 			page 28


 807 0058 E7D9     		bls	.L39
 808              	.L36:
 717:.\Generated_Source\PSoC4/BLE_1.c ****             }
 718:.\Generated_Source\PSoC4/BLE_1.c ****         }
 719:.\Generated_Source\PSoC4/BLE_1.c ****     }
 809              		.loc 1 719 0 is_stmt 1
 810 005a BD46     		mov	sp, r7
 811 005c 04B0     		add	sp, sp, #16
 812              		@ sp needed
 813 005e 80BD     		pop	{r7, pc}
 814              		.cfi_endproc
 815              	.LFE9:
 816              		.size	CyBle_ChangeAdDeviceAddress, .-CyBle_ChangeAdDeviceAddress
 817              		.section	.text.CyBle_ChangeAdLocalName,"ax",%progbits
 818              		.align	2
 819              		.code	16
 820              		.thumb_func
 821              		.type	CyBle_ChangeAdLocalName, %function
 822              	CyBle_ChangeAdLocalName:
 823              	.LFB10:
 720:.\Generated_Source\PSoC4/BLE_1.c ****   
 721:.\Generated_Source\PSoC4/BLE_1.c **** #endif /* CYBLE_GAP_ROLE_PERIPHERAL || CYBLE_GAP_ROLE_BROADCASTER */
 722:.\Generated_Source\PSoC4/BLE_1.c **** 
 723:.\Generated_Source\PSoC4/BLE_1.c **** 
 724:.\Generated_Source\PSoC4/BLE_1.c **** #if(CYBLE_GAP_ROLE_CENTRAL || CYBLE_GAP_ROLE_OBSERVER)
 725:.\Generated_Source\PSoC4/BLE_1.c **** 
 726:.\Generated_Source\PSoC4/BLE_1.c ****     /******************************************************************************
 727:.\Generated_Source\PSoC4/BLE_1.c ****     * Function Name: CyBle_GapcStartScan
 728:.\Generated_Source\PSoC4/BLE_1.c ****     ***************************************************************************//**
 729:.\Generated_Source\PSoC4/BLE_1.c ****     * 
 730:.\Generated_Source\PSoC4/BLE_1.c ****     *   This function is used for discovering GAP peripheral devices that are 
 731:.\Generated_Source\PSoC4/BLE_1.c ****     *   available for connection. It performs the scanning routine using the 
 732:.\Generated_Source\PSoC4/BLE_1.c ****     *   parameters entered in the component's customizer.
 733:.\Generated_Source\PSoC4/BLE_1.c ****     *   
 734:.\Generated_Source\PSoC4/BLE_1.c ****     *   As soon as the discovery operation starts, CYBLE_EVT_GAPC_SCAN_START_STOP 
 735:.\Generated_Source\PSoC4/BLE_1.c ****     *   event is generated. The CYBLE_EVT_GAPC_SCAN_PROGRESS_RESULT event is 
 736:.\Generated_Source\PSoC4/BLE_1.c ****     *   generated when a GAP peripheral device is located. There are three discovery
 737:.\Generated_Source\PSoC4/BLE_1.c ****     *   procedures can be selected in the customizer's GUI:
 738:.\Generated_Source\PSoC4/BLE_1.c ****     *   
 739:.\Generated_Source\PSoC4/BLE_1.c ****     *   * Observation procedure: A device performing the observer role receives only
 740:.\Generated_Source\PSoC4/BLE_1.c ****     *                            advertisement data from devices irrespective of 
 741:.\Generated_Source\PSoC4/BLE_1.c ****     *                            their discoverable mode settings. Advertisement 
 742:.\Generated_Source\PSoC4/BLE_1.c ****     *                            data received is provided by the event,      
 743:.\Generated_Source\PSoC4/BLE_1.c ****     *                            CYBLE_EVT_GAPC_SCAN_PROGRESS_RESULT. This procedure
 744:.\Generated_Source\PSoC4/BLE_1.c ****     *                            requires the scanType sub parameter to be passive
 745:.\Generated_Source\PSoC4/BLE_1.c ****     *                            scanning. 
 746:.\Generated_Source\PSoC4/BLE_1.c ****     *   
 747:.\Generated_Source\PSoC4/BLE_1.c ****     *   * Limited Discovery procedure: A device performing the limited discovery
 748:.\Generated_Source\PSoC4/BLE_1.c ****     *                                  procedure receives advertisement data and 
 749:.\Generated_Source\PSoC4/BLE_1.c ****     *                                  scan# response data from devices in the 
 750:.\Generated_Source\PSoC4/BLE_1.c ****     *                                  limited discoverable mode only. Received data
 751:.\Generated_Source\PSoC4/BLE_1.c ****     *                                  is provided by the event, 
 752:.\Generated_Source\PSoC4/BLE_1.c ****     *                                  CYBLE_EVT_GAPC_SCAN_PROGRESS_RESULT. This 
 753:.\Generated_Source\PSoC4/BLE_1.c ****     *                                  procedure requires the scanType sub-parameter 
 754:.\Generated_Source\PSoC4/BLE_1.c ****     *                                  to be active scanning.
 755:.\Generated_Source\PSoC4/BLE_1.c ****     *   
 756:.\Generated_Source\PSoC4/BLE_1.c ****     *   * General Discovery procedure: A device performing the general discovery 
ARM GAS  C:\Users\ilias\AppData\Local\Temp\ccbZWpbs.s 			page 29


 757:.\Generated_Source\PSoC4/BLE_1.c ****     *                                  procedure receives the advertisement data and
 758:.\Generated_Source\PSoC4/BLE_1.c ****     *                                  scan response data from devices in both 
 759:.\Generated_Source\PSoC4/BLE_1.c ****     *                                  limited discoverable mode and the general 
 760:.\Generated_Source\PSoC4/BLE_1.c ****     *                                  discoverable mode. Received data is provided
 761:.\Generated_Source\PSoC4/BLE_1.c ****     *                                  by the event,
 762:.\Generated_Source\PSoC4/BLE_1.c ****     *                                  CYBLE_EVT_GAPC_SCAN_PROGRESS_RESULT. This 
 763:.\Generated_Source\PSoC4/BLE_1.c ****     *                                  procedure requires the scanType sub-parameter
 764:.\Generated_Source\PSoC4/BLE_1.c ****     *                                  to be active scanning.
 765:.\Generated_Source\PSoC4/BLE_1.c ****     *   
 766:.\Generated_Source\PSoC4/BLE_1.c ****     *   Every Advertisement / Scan response packet received results in a new event, 
 767:.\Generated_Source\PSoC4/BLE_1.c ****     *   CYBLE_EVT_GAPC_SCAN_PROGRESS_RESULT.
 768:.\Generated_Source\PSoC4/BLE_1.c ****     *   If 'scanTo' sub-parameter is a non-zero value, then upon commencement of 
 769:.\Generated_Source\PSoC4/BLE_1.c ****     *   discovery procedure and elapsed time = 'scanTo', CYBLE_EVT_TIMEOUT event
 770:.\Generated_Source\PSoC4/BLE_1.c ****     *   is generated with the event parameter indicating CYBLE_GAP_SCAN_TO.
 771:.\Generated_Source\PSoC4/BLE_1.c ****     *   Possible generated events are:
 772:.\Generated_Source\PSoC4/BLE_1.c ****     *   * CYBLE_EVT_GAPC_SCAN_START_STOP: If a device started or stopped scanning. 
 773:.\Generated_Source\PSoC4/BLE_1.c ****     *                                     Use CyBle_GetState() to determine the 
 774:.\Generated_Source\PSoC4/BLE_1.c ****     *                                     state. Sequential scanning could be 
 775:.\Generated_Source\PSoC4/BLE_1.c ****     *                                     started when CYBLE_STATE_DISCONNECTED 
 776:.\Generated_Source\PSoC4/BLE_1.c ****     *                                     state is returned. 
 777:.\Generated_Source\PSoC4/BLE_1.c ****     *   * CYBLE_EVT_GAPC_SCAN_PROGRESS_RESULT 
 778:.\Generated_Source\PSoC4/BLE_1.c ****     *   * CYBLE_EVT_TIMEOUT (CYBLE_GAP_SCAN_TO)
 779:.\Generated_Source\PSoC4/BLE_1.c ****     * 
 780:.\Generated_Source\PSoC4/BLE_1.c ****     *   \param scanningIntervalType:  Fast or slow scanning interval with
 781:.\Generated_Source\PSoC4/BLE_1.c ****     *       timings entered in Scan settings section of the customizer.
 782:.\Generated_Source\PSoC4/BLE_1.c ****     * 	  * CYBLE_SCANNING_FAST   0x00u
 783:.\Generated_Source\PSoC4/BLE_1.c ****     * 	  * CYBLE_SCANNING_SLOW   0x01u
 784:.\Generated_Source\PSoC4/BLE_1.c ****     * 	  * CYBLE_SCANNING_CUSTOM 0x02u
 785:.\Generated_Source\PSoC4/BLE_1.c ****     * 
 786:.\Generated_Source\PSoC4/BLE_1.c ****     * \return
 787:.\Generated_Source\PSoC4/BLE_1.c ****     *  CYBLE_API_RESULT_T : Return value indicates if the function succeeded or
 788:.\Generated_Source\PSoC4/BLE_1.c ****     *  failed. Following are the possible error codes.
 789:.\Generated_Source\PSoC4/BLE_1.c ****     *
 790:.\Generated_Source\PSoC4/BLE_1.c ****     *   Errors codes                       | Description
 791:.\Generated_Source\PSoC4/BLE_1.c ****     *   ---------------------------------- | -----------------------------------
 792:.\Generated_Source\PSoC4/BLE_1.c ****     *   CYBLE_ERROR_OK                     | On successful operation.
 793:.\Generated_Source\PSoC4/BLE_1.c ****     *   CYBLE_ERROR_STACK_INTERNAL         | An error occurred in the BLE stack.
 794:.\Generated_Source\PSoC4/BLE_1.c ****     *   CYBLE_ERROR_INVALID_PARAMETER      | On passing an invalid parameter.
 795:.\Generated_Source\PSoC4/BLE_1.c ****     *  
 796:.\Generated_Source\PSoC4/BLE_1.c ****     *******************************************************************************/
 797:.\Generated_Source\PSoC4/BLE_1.c ****     CYBLE_API_RESULT_T CyBle_GapcStartScan(uint8 scanningIntervalType)
 798:.\Generated_Source\PSoC4/BLE_1.c ****     {
 799:.\Generated_Source\PSoC4/BLE_1.c ****         CYBLE_API_RESULT_T apiResult;
 800:.\Generated_Source\PSoC4/BLE_1.c **** 
 801:.\Generated_Source\PSoC4/BLE_1.c ****         if(scanningIntervalType > CYBLE_SCANNING_CUSTOM)
 802:.\Generated_Source\PSoC4/BLE_1.c ****         {
 803:.\Generated_Source\PSoC4/BLE_1.c ****             apiResult = CYBLE_ERROR_INVALID_PARAMETER;
 804:.\Generated_Source\PSoC4/BLE_1.c ****         }
 805:.\Generated_Source\PSoC4/BLE_1.c ****         else
 806:.\Generated_Source\PSoC4/BLE_1.c ****         {
 807:.\Generated_Source\PSoC4/BLE_1.c ****             if(scanningIntervalType == CYBLE_SCANNING_FAST)
 808:.\Generated_Source\PSoC4/BLE_1.c ****             {
 809:.\Generated_Source\PSoC4/BLE_1.c ****                 cyBle_discoveryInfo.scanTo = CYBLE_FAST_SCAN_TIMEOUT;
 810:.\Generated_Source\PSoC4/BLE_1.c ****                 cyBle_discoveryInfo.scanIntv = CYBLE_FAST_SCAN_INTERVAL;
 811:.\Generated_Source\PSoC4/BLE_1.c ****                 cyBle_discoveryInfo.scanWindow = CYBLE_FAST_SCAN_WINDOW;
 812:.\Generated_Source\PSoC4/BLE_1.c ****             }
 813:.\Generated_Source\PSoC4/BLE_1.c ****             else if(scanningIntervalType == CYBLE_SCANNING_SLOW)
ARM GAS  C:\Users\ilias\AppData\Local\Temp\ccbZWpbs.s 			page 30


 814:.\Generated_Source\PSoC4/BLE_1.c ****             {
 815:.\Generated_Source\PSoC4/BLE_1.c ****                 cyBle_discoveryInfo.scanTo = CYBLE_SLOW_SCAN_TIMEOUT;
 816:.\Generated_Source\PSoC4/BLE_1.c ****                 cyBle_discoveryInfo.scanIntv = CYBLE_SLOW_SCAN_INTERVAL;
 817:.\Generated_Source\PSoC4/BLE_1.c ****                 cyBle_discoveryInfo.scanWindow = CYBLE_SLOW_SCAN_WINDOW;
 818:.\Generated_Source\PSoC4/BLE_1.c ****             }       
 819:.\Generated_Source\PSoC4/BLE_1.c ****             else /* Do not update scanning intervals */
 820:.\Generated_Source\PSoC4/BLE_1.c ****             {
 821:.\Generated_Source\PSoC4/BLE_1.c ****             }
 822:.\Generated_Source\PSoC4/BLE_1.c ****             
 823:.\Generated_Source\PSoC4/BLE_1.c ****             cyBle_scanningIntervalType = scanningIntervalType;
 824:.\Generated_Source\PSoC4/BLE_1.c ****             apiResult = CyBle_GapcStartDiscovery(&cyBle_discoveryInfo);
 825:.\Generated_Source\PSoC4/BLE_1.c ****         
 826:.\Generated_Source\PSoC4/BLE_1.c ****             if(CYBLE_ERROR_OK == apiResult)
 827:.\Generated_Source\PSoC4/BLE_1.c ****             {
 828:.\Generated_Source\PSoC4/BLE_1.c ****                 cyBle_eventHandlerFlag |= CYBLE_START_FLAG;
 829:.\Generated_Source\PSoC4/BLE_1.c ****             }
 830:.\Generated_Source\PSoC4/BLE_1.c ****         }
 831:.\Generated_Source\PSoC4/BLE_1.c ****        
 832:.\Generated_Source\PSoC4/BLE_1.c ****         return (apiResult);
 833:.\Generated_Source\PSoC4/BLE_1.c ****     }
 834:.\Generated_Source\PSoC4/BLE_1.c ****     
 835:.\Generated_Source\PSoC4/BLE_1.c ****     
 836:.\Generated_Source\PSoC4/BLE_1.c ****     /******************************************************************************
 837:.\Generated_Source\PSoC4/BLE_1.c ****     * Function Name: CyBle_GapcStopScan
 838:.\Generated_Source\PSoC4/BLE_1.c ****     ***************************************************************************//**
 839:.\Generated_Source\PSoC4/BLE_1.c ****     * 
 840:.\Generated_Source\PSoC4/BLE_1.c ****     *   This function used to stop the discovery of devices. On stopping discovery
 841:.\Generated_Source\PSoC4/BLE_1.c ****     *   operation, CYBLE_EVT_GAPC_SCAN_START_STOP event is generated. Application
 842:.\Generated_Source\PSoC4/BLE_1.c ****     *   layer needs to keep track of the function call made before receiving this
 843:.\Generated_Source\PSoC4/BLE_1.c ****     *   event to associate this event with either the start or stop discovery
 844:.\Generated_Source\PSoC4/BLE_1.c ****     *   function.
 845:.\Generated_Source\PSoC4/BLE_1.c ****     * 
 846:.\Generated_Source\PSoC4/BLE_1.c ****     *   Possible events generated are:
 847:.\Generated_Source\PSoC4/BLE_1.c ****     *    * CYBLE_EVT_GAPC_SCAN_START_STOP
 848:.\Generated_Source\PSoC4/BLE_1.c ****     * 
 849:.\Generated_Source\PSoC4/BLE_1.c ****     *  \return
 850:.\Generated_Source\PSoC4/BLE_1.c ****     *   None
 851:.\Generated_Source\PSoC4/BLE_1.c ****     * 
 852:.\Generated_Source\PSoC4/BLE_1.c ****     *******************************************************************************/
 853:.\Generated_Source\PSoC4/BLE_1.c ****     void CyBle_GapcStopScan(void)
 854:.\Generated_Source\PSoC4/BLE_1.c ****     {
 855:.\Generated_Source\PSoC4/BLE_1.c ****         CyBle_GapcStopDiscovery();
 856:.\Generated_Source\PSoC4/BLE_1.c ****         
 857:.\Generated_Source\PSoC4/BLE_1.c ****         cyBle_eventHandlerFlag |= CYBLE_STOP_FLAG;
 858:.\Generated_Source\PSoC4/BLE_1.c ****     }
 859:.\Generated_Source\PSoC4/BLE_1.c **** 
 860:.\Generated_Source\PSoC4/BLE_1.c ****     
 861:.\Generated_Source\PSoC4/BLE_1.c **** #endif /* CYBLE_GAP_ROLE_CENTRAL || CYBLE_GAP_ROLE_OBSERVER */
 862:.\Generated_Source\PSoC4/BLE_1.c **** 
 863:.\Generated_Source\PSoC4/BLE_1.c **** 
 864:.\Generated_Source\PSoC4/BLE_1.c **** #if(CYBLE_GAP_ROLE_CENTRAL)
 865:.\Generated_Source\PSoC4/BLE_1.c **** 
 866:.\Generated_Source\PSoC4/BLE_1.c ****     /******************************************************************************
 867:.\Generated_Source\PSoC4/BLE_1.c ****     * Function Name: CyBle_GapcConnectDevice
 868:.\Generated_Source\PSoC4/BLE_1.c ****     ***************************************************************************//**
 869:.\Generated_Source\PSoC4/BLE_1.c ****     * 
 870:.\Generated_Source\PSoC4/BLE_1.c ****     *  This function is used to send a connection request to the remote device with
ARM GAS  C:\Users\ilias\AppData\Local\Temp\ccbZWpbs.s 			page 31


 871:.\Generated_Source\PSoC4/BLE_1.c ****     *  the connection parameters set in the component customizer. This function needs
 872:.\Generated_Source\PSoC4/BLE_1.c ****     *  to be called only once after the target device is discovered by 
 873:.\Generated_Source\PSoC4/BLE_1.c ****     *  CyBle_GapcStartScan() and further scanning has stopped. Scanning is 
 874:.\Generated_Source\PSoC4/BLE_1.c ****     *  successfully stopped on invoking CyBle_GapcStopScan() and then receiving the
 875:.\Generated_Source\PSoC4/BLE_1.c ****     *  event CYBLE_EVT_GAPC_SCAN_START_STOP with sub-parameter 'success' = 0x01u.
 876:.\Generated_Source\PSoC4/BLE_1.c ****     *  
 877:.\Generated_Source\PSoC4/BLE_1.c ****     *  On successful connection, the following events are generated at the GAP 
 878:.\Generated_Source\PSoC4/BLE_1.c ****     *  Central device (as well as the GAP Peripheral device), in the following order.
 879:.\Generated_Source\PSoC4/BLE_1.c ****     *  * CYBLE_EVT_GATT_CONNECT_IND
 880:.\Generated_Source\PSoC4/BLE_1.c ****     *  * CYBLE_EVT_GAP_DEVICE_CONNECTED
 881:.\Generated_Source\PSoC4/BLE_1.c ****     *  
 882:.\Generated_Source\PSoC4/BLE_1.c ****     *  A procedure is considered to have timed out if a connection response packet is 
 883:.\Generated_Source\PSoC4/BLE_1.c ****     *  not received within time set by cyBle_connectingTimeout global variable
 884:.\Generated_Source\PSoC4/BLE_1.c ****     *  (30 seconds by default). CYBLE_EVT_TIMEOUT event with CYBLE_GENERIC_TO parameter
 885:.\Generated_Source\PSoC4/BLE_1.c ****     *  will indicate about connection procedure timeout. Connection will automatically
 886:.\Generated_Source\PSoC4/BLE_1.c ****     *  be canceled and state will be changed to CYBLE_STATE_DISCONNECTED.
 887:.\Generated_Source\PSoC4/BLE_1.c ****     * 
 888:.\Generated_Source\PSoC4/BLE_1.c ****     *  \param address: The device address of the remote device to connect to. 
 889:.\Generated_Source\PSoC4/BLE_1.c ****     *  \param timeout: Timeout for which timer to be started in seconds.
 890:.\Generated_Source\PSoC4/BLE_1.c ****     *  
 891:.\Generated_Source\PSoC4/BLE_1.c ****     * \return
 892:.\Generated_Source\PSoC4/BLE_1.c ****     *  CYBLE_API_RESULT_T : Return value indicates if the function succeeded or 
 893:.\Generated_Source\PSoC4/BLE_1.c ****     *  failed. Following are the possible error codes.
 894:.\Generated_Source\PSoC4/BLE_1.c ****     *
 895:.\Generated_Source\PSoC4/BLE_1.c ****     *   Errors codes                       | Description
 896:.\Generated_Source\PSoC4/BLE_1.c ****     *   ------------                       | -----------
 897:.\Generated_Source\PSoC4/BLE_1.c ****     *   CYBLE_ERROR_OK                     | On successful operation.
 898:.\Generated_Source\PSoC4/BLE_1.c ****     *   CYBLE_ERROR_STACK_INTERNAL         | On error occurred in the BLE stack.
 899:.\Generated_Source\PSoC4/BLE_1.c ****     *   CYBLE_ERROR_INVALID_PARAMETER      | On passing an invalid parameter.
 900:.\Generated_Source\PSoC4/BLE_1.c ****     *   CYBLE_ERROR_INVALID_STATE          | On calling this API not in Disconnected state.
 901:.\Generated_Source\PSoC4/BLE_1.c ****     *  
 902:.\Generated_Source\PSoC4/BLE_1.c ****     ******************************************************************************/
 903:.\Generated_Source\PSoC4/BLE_1.c ****     CYBLE_API_RESULT_T CyBle_GapcConnectDevice(const CYBLE_GAP_BD_ADDR_T * address)
 904:.\Generated_Source\PSoC4/BLE_1.c ****     {
 905:.\Generated_Source\PSoC4/BLE_1.c ****         CYBLE_API_RESULT_T apiResult;
 906:.\Generated_Source\PSoC4/BLE_1.c ****         uint8 i;
 907:.\Generated_Source\PSoC4/BLE_1.c **** 
 908:.\Generated_Source\PSoC4/BLE_1.c ****         if(CYBLE_STATE_DISCONNECTED != CyBle_GetState())
 909:.\Generated_Source\PSoC4/BLE_1.c ****         {
 910:.\Generated_Source\PSoC4/BLE_1.c ****             apiResult = CYBLE_ERROR_INVALID_STATE;
 911:.\Generated_Source\PSoC4/BLE_1.c ****         }
 912:.\Generated_Source\PSoC4/BLE_1.c ****         else if(address == NULL)
 913:.\Generated_Source\PSoC4/BLE_1.c ****         {
 914:.\Generated_Source\PSoC4/BLE_1.c ****             apiResult = CYBLE_ERROR_INVALID_PARAMETER;
 915:.\Generated_Source\PSoC4/BLE_1.c ****         }
 916:.\Generated_Source\PSoC4/BLE_1.c ****         else
 917:.\Generated_Source\PSoC4/BLE_1.c ****         {
 918:.\Generated_Source\PSoC4/BLE_1.c ****             for(i = 0u; i < CYBLE_GAP_BD_ADDR_SIZE; i++)
 919:.\Generated_Source\PSoC4/BLE_1.c ****             {
 920:.\Generated_Source\PSoC4/BLE_1.c ****                 cyBle_connectionParameters.peerBdAddr[i] = address->bdAddr[i];
 921:.\Generated_Source\PSoC4/BLE_1.c ****             }
 922:.\Generated_Source\PSoC4/BLE_1.c ****             cyBle_connectionParameters.peerAddrType = address -> type;
 923:.\Generated_Source\PSoC4/BLE_1.c ****             apiResult = CyBle_GapcInitConnection(&cyBle_connectionParameters);
 924:.\Generated_Source\PSoC4/BLE_1.c ****             
 925:.\Generated_Source\PSoC4/BLE_1.c ****             if(CYBLE_ERROR_OK == apiResult)
 926:.\Generated_Source\PSoC4/BLE_1.c ****             {
 927:.\Generated_Source\PSoC4/BLE_1.c ****                 CyBle_SetState(CYBLE_STATE_CONNECTING);
ARM GAS  C:\Users\ilias\AppData\Local\Temp\ccbZWpbs.s 			page 32


 928:.\Generated_Source\PSoC4/BLE_1.c ****                 if(cyBle_connectingTimeout != 0u)
 929:.\Generated_Source\PSoC4/BLE_1.c ****                 {
 930:.\Generated_Source\PSoC4/BLE_1.c ****                     (void)CyBle_StartTimer(cyBle_connectingTimeout);
 931:.\Generated_Source\PSoC4/BLE_1.c ****                 }
 932:.\Generated_Source\PSoC4/BLE_1.c ****             }
 933:.\Generated_Source\PSoC4/BLE_1.c ****         }
 934:.\Generated_Source\PSoC4/BLE_1.c ****         return (apiResult);
 935:.\Generated_Source\PSoC4/BLE_1.c ****     }
 936:.\Generated_Source\PSoC4/BLE_1.c ****     
 937:.\Generated_Source\PSoC4/BLE_1.c **** 
 938:.\Generated_Source\PSoC4/BLE_1.c ****     /******************************************************************************
 939:.\Generated_Source\PSoC4/BLE_1.c ****     * Function Name: CyBle_GapcCancelDeviceConnection
 940:.\Generated_Source\PSoC4/BLE_1.c ****     ***************************************************************************//**
 941:.\Generated_Source\PSoC4/BLE_1.c ****     * 
 942:.\Generated_Source\PSoC4/BLE_1.c ****     *  This function cancels a previously initiated connection with the remote 
 943:.\Generated_Source\PSoC4/BLE_1.c ****     *  device. It is a blocking function. No event is generated on calling this 
 944:.\Generated_Source\PSoC4/BLE_1.c ****     *  function. If the devices are already connected then this function should not
 945:.\Generated_Source\PSoC4/BLE_1.c ****     *  be used. If you intend to disconnect from an existing connection, the function
 946:.\Generated_Source\PSoC4/BLE_1.c ****     *  CyBle_GapDisconnect() should be used.
 947:.\Generated_Source\PSoC4/BLE_1.c ****     * 
 948:.\Generated_Source\PSoC4/BLE_1.c ****     * \return
 949:.\Generated_Source\PSoC4/BLE_1.c ****     *  CYBLE_API_RESULT_T : Return value indicates if the function succeeded or 
 950:.\Generated_Source\PSoC4/BLE_1.c ****     *  failed. Following are the possible error codes.
 951:.\Generated_Source\PSoC4/BLE_1.c ****     *
 952:.\Generated_Source\PSoC4/BLE_1.c ****     *   Errors codes                       | Description
 953:.\Generated_Source\PSoC4/BLE_1.c ****     *   ---------------------------------- | --------------------------------------
 954:.\Generated_Source\PSoC4/BLE_1.c ****     *   CYBLE_ERROR_OK                     | On successful operation.
 955:.\Generated_Source\PSoC4/BLE_1.c ****     *   CYBLE_ERROR_STACK_INTERNAL         | An error occurred in the BLE stack.
 956:.\Generated_Source\PSoC4/BLE_1.c ****     *   CYBLE_ERROR_INVALID_OPERATION      | Device is already connected.
 957:.\Generated_Source\PSoC4/BLE_1.c ****     *  
 958:.\Generated_Source\PSoC4/BLE_1.c ****     *******************************************************************************/
 959:.\Generated_Source\PSoC4/BLE_1.c ****     CYBLE_API_RESULT_T CyBle_GapcCancelDeviceConnection(void)
 960:.\Generated_Source\PSoC4/BLE_1.c ****     {
 961:.\Generated_Source\PSoC4/BLE_1.c ****         CYBLE_API_RESULT_T apiResult;
 962:.\Generated_Source\PSoC4/BLE_1.c ****         
 963:.\Generated_Source\PSoC4/BLE_1.c ****         apiResult = CyBle_GapcCancelConnection();
 964:.\Generated_Source\PSoC4/BLE_1.c ****             
 965:.\Generated_Source\PSoC4/BLE_1.c ****         if(cyBle_connectingTimeout != 0u)
 966:.\Generated_Source\PSoC4/BLE_1.c ****         {
 967:.\Generated_Source\PSoC4/BLE_1.c ****             (void)CyBle_StopTimer();
 968:.\Generated_Source\PSoC4/BLE_1.c ****         }
 969:.\Generated_Source\PSoC4/BLE_1.c **** 
 970:.\Generated_Source\PSoC4/BLE_1.c ****         if(CYBLE_ERROR_OK == apiResult)
 971:.\Generated_Source\PSoC4/BLE_1.c ****         {
 972:.\Generated_Source\PSoC4/BLE_1.c ****             CyBle_SetState(CYBLE_STATE_DISCONNECTED);
 973:.\Generated_Source\PSoC4/BLE_1.c ****         }
 974:.\Generated_Source\PSoC4/BLE_1.c ****         return (apiResult);
 975:.\Generated_Source\PSoC4/BLE_1.c ****     }    
 976:.\Generated_Source\PSoC4/BLE_1.c **** 
 977:.\Generated_Source\PSoC4/BLE_1.c ****     
 978:.\Generated_Source\PSoC4/BLE_1.c **** #endif /* CYBLE_GAP_ROLE_CENTRAL */
 979:.\Generated_Source\PSoC4/BLE_1.c **** 
 980:.\Generated_Source\PSoC4/BLE_1.c **** 
 981:.\Generated_Source\PSoC4/BLE_1.c **** #if(CYBLE_GATT_ROLE_SERVER)
 982:.\Generated_Source\PSoC4/BLE_1.c **** 
 983:.\Generated_Source\PSoC4/BLE_1.c **** #if(CYBLE_GAP_ROLE_PERIPHERAL)
 984:.\Generated_Source\PSoC4/BLE_1.c **** 
ARM GAS  C:\Users\ilias\AppData\Local\Temp\ccbZWpbs.s 			page 33


 985:.\Generated_Source\PSoC4/BLE_1.c ****         /******************************************************************************
 986:.\Generated_Source\PSoC4/BLE_1.c ****         * Function Name: CyBle_ChangeAdLocalName
 987:.\Generated_Source\PSoC4/BLE_1.c ****         ***************************************************************************//**
 988:.\Generated_Source\PSoC4/BLE_1.c ****         *  This API is used to set the local device name in the advertisement or scan 
 989:.\Generated_Source\PSoC4/BLE_1.c ****         *  response data structure.
 990:.\Generated_Source\PSoC4/BLE_1.c ****         * 
 991:.\Generated_Source\PSoC4/BLE_1.c ****         *  \param name: The local device name string to be set in advertisement data 
 992:.\Generated_Source\PSoC4/BLE_1.c ****         *            structure.
 993:.\Generated_Source\PSoC4/BLE_1.c ****         *  \param dest: 0 - advertisement structure, not zero value selects scan response
 994:.\Generated_Source\PSoC4/BLE_1.c ****         *              structure.
 995:.\Generated_Source\PSoC4/BLE_1.c ****         * 
 996:.\Generated_Source\PSoC4/BLE_1.c ****         * \return
 997:.\Generated_Source\PSoC4/BLE_1.c ****         *  None
 998:.\Generated_Source\PSoC4/BLE_1.c ****         *  
 999:.\Generated_Source\PSoC4/BLE_1.c ****         *******************************************************************************/
1000:.\Generated_Source\PSoC4/BLE_1.c ****         static void CyBle_ChangeAdLocalName(const char8 name[], uint8 dest)
1001:.\Generated_Source\PSoC4/BLE_1.c ****         {
 824              		.loc 1 1001 0
 825              		.cfi_startproc
 826 0000 80B5     		push	{r7, lr}
 827              		.cfi_def_cfa_offset 8
 828              		.cfi_offset 7, -8
 829              		.cfi_offset 14, -4
 830 0002 86B0     		sub	sp, sp, #24
 831              		.cfi_def_cfa_offset 32
 832 0004 00AF     		add	r7, sp, #0
 833              		.cfi_def_cfa_register 7
 834 0006 7860     		str	r0, [r7, #4]
 835 0008 0A1C     		mov	r2, r1
 836 000a FB1C     		add	r3, r7, #3
 837 000c 1A70     		strb	r2, [r3]
1002:.\Generated_Source\PSoC4/BLE_1.c ****             uint8 i;
1003:.\Generated_Source\PSoC4/BLE_1.c ****             uint8 flag = 0u;
 838              		.loc 1 1003 0
 839 000e 1623     		mov	r3, #22
 840 0010 FB18     		add	r3, r7, r3
 841 0012 0022     		mov	r2, #0
 842 0014 1A70     		strb	r2, [r3]
1004:.\Generated_Source\PSoC4/BLE_1.c ****             uint8 adLength = 0u;
 843              		.loc 1 1004 0
 844 0016 1523     		mov	r3, #21
 845 0018 FB18     		add	r3, r7, r3
 846 001a 0022     		mov	r2, #0
 847 001c 1A70     		strb	r2, [r3]
1005:.\Generated_Source\PSoC4/BLE_1.c ****             uint8 byteCounter = 0u;
 848              		.loc 1 1005 0
 849 001e 1423     		mov	r3, #20
 850 0020 FB18     		add	r3, r7, r3
 851 0022 0022     		mov	r2, #0
 852 0024 1A70     		strb	r2, [r3]
1006:.\Generated_Source\PSoC4/BLE_1.c ****             uint8 *destBuffer;
1007:.\Generated_Source\PSoC4/BLE_1.c ****             uint8 maxLength;
1008:.\Generated_Source\PSoC4/BLE_1.c ****             
1009:.\Generated_Source\PSoC4/BLE_1.c ****             if(dest == 0u)      /* Destination - advertising structure */
 853              		.loc 1 1009 0
 854 0026 FB1C     		add	r3, r7, #3
 855 0028 1B78     		ldrb	r3, [r3]
ARM GAS  C:\Users\ilias\AppData\Local\Temp\ccbZWpbs.s 			page 34


 856 002a 002B     		cmp	r3, #0
 857 002c 07D1     		bne	.L41
1010:.\Generated_Source\PSoC4/BLE_1.c ****             {
1011:.\Generated_Source\PSoC4/BLE_1.c ****                 destBuffer = cyBle_discoveryData.advData;
 858              		.loc 1 1011 0
 859 002e 5B4B     		ldr	r3, .L56
 860 0030 3B61     		str	r3, [r7, #16]
1012:.\Generated_Source\PSoC4/BLE_1.c ****                 maxLength = cyBle_discoveryData.advDataLen;
 861              		.loc 1 1012 0
 862 0032 0F23     		mov	r3, #15
 863 0034 FB18     		add	r3, r7, r3
 864 0036 594A     		ldr	r2, .L56
 865 0038 D27F     		ldrb	r2, [r2, #31]
 866 003a 1A70     		strb	r2, [r3]
 867 003c 06E0     		b	.L42
 868              	.L41:
1013:.\Generated_Source\PSoC4/BLE_1.c ****             }
1014:.\Generated_Source\PSoC4/BLE_1.c ****             else                /* Destination - scan response structure */
1015:.\Generated_Source\PSoC4/BLE_1.c ****             {
1016:.\Generated_Source\PSoC4/BLE_1.c ****                 destBuffer = cyBle_scanRspData.scanRspData;
 869              		.loc 1 1016 0
 870 003e 584B     		ldr	r3, .L56+4
 871 0040 3B61     		str	r3, [r7, #16]
1017:.\Generated_Source\PSoC4/BLE_1.c ****                 maxLength = cyBle_scanRspData.scanRspDataLen;
 872              		.loc 1 1017 0
 873 0042 0F23     		mov	r3, #15
 874 0044 FB18     		add	r3, r7, r3
 875 0046 564A     		ldr	r2, .L56+4
 876 0048 D27F     		ldrb	r2, [r2, #31]
 877 004a 1A70     		strb	r2, [r3]
 878              	.L42:
1018:.\Generated_Source\PSoC4/BLE_1.c ****             }
1019:.\Generated_Source\PSoC4/BLE_1.c ****             
1020:.\Generated_Source\PSoC4/BLE_1.c ****             while((byteCounter < maxLength) && (0u == flag))
 879              		.loc 1 1020 0
 880 004c 35E0     		b	.L43
 881              	.L49:
1021:.\Generated_Source\PSoC4/BLE_1.c ****             {
1022:.\Generated_Source\PSoC4/BLE_1.c ****                 adLength = destBuffer[byteCounter];
 882              		.loc 1 1022 0
 883 004e 1423     		mov	r3, #20
 884 0050 FB18     		add	r3, r7, r3
 885 0052 1B78     		ldrb	r3, [r3]
 886 0054 3A69     		ldr	r2, [r7, #16]
 887 0056 D218     		add	r2, r2, r3
 888 0058 1523     		mov	r3, #21
 889 005a FB18     		add	r3, r7, r3
 890 005c 1278     		ldrb	r2, [r2]
 891 005e 1A70     		strb	r2, [r3]
1023:.\Generated_Source\PSoC4/BLE_1.c ****                 
1024:.\Generated_Source\PSoC4/BLE_1.c ****                 if(0u != adLength)
 892              		.loc 1 1024 0
 893 0060 1523     		mov	r3, #21
 894 0062 FB18     		add	r3, r7, r3
 895 0064 1B78     		ldrb	r3, [r3]
 896 0066 002B     		cmp	r3, #0
 897 0068 26D0     		beq	.L44
ARM GAS  C:\Users\ilias\AppData\Local\Temp\ccbZWpbs.s 			page 35


1025:.\Generated_Source\PSoC4/BLE_1.c ****                 {
1026:.\Generated_Source\PSoC4/BLE_1.c ****                     /* Increment byte counter so it can point to AD type */
1027:.\Generated_Source\PSoC4/BLE_1.c ****                     byteCounter++;
 898              		.loc 1 1027 0
 899 006a 1423     		mov	r3, #20
 900 006c FB18     		add	r3, r7, r3
 901 006e 1A78     		ldrb	r2, [r3]
 902 0070 1423     		mov	r3, #20
 903 0072 FB18     		add	r3, r7, r3
 904 0074 0132     		add	r2, r2, #1
 905 0076 1A70     		strb	r2, [r3]
1028:.\Generated_Source\PSoC4/BLE_1.c ****                     
1029:.\Generated_Source\PSoC4/BLE_1.c ****                     if((CYBLE_SHORT_LOCAL_NAME == destBuffer[byteCounter]) || 
 906              		.loc 1 1029 0
 907 0078 1423     		mov	r3, #20
 908 007a FB18     		add	r3, r7, r3
 909 007c 1B78     		ldrb	r3, [r3]
 910 007e 3A69     		ldr	r2, [r7, #16]
 911 0080 D318     		add	r3, r2, r3
 912 0082 1B78     		ldrb	r3, [r3]
 913 0084 082B     		cmp	r3, #8
 914 0086 07D0     		beq	.L45
1030:.\Generated_Source\PSoC4/BLE_1.c ****                        (CYBLE_COMPLETE_LOCAL_NAME == destBuffer[byteCounter]))
 915              		.loc 1 1030 0 discriminator 1
 916 0088 1423     		mov	r3, #20
 917 008a FB18     		add	r3, r7, r3
 918 008c 1B78     		ldrb	r3, [r3]
 919 008e 3A69     		ldr	r2, [r7, #16]
 920 0090 D318     		add	r3, r2, r3
 921 0092 1B78     		ldrb	r3, [r3]
1029:.\Generated_Source\PSoC4/BLE_1.c ****                        (CYBLE_COMPLETE_LOCAL_NAME == destBuffer[byteCounter]))
 922              		.loc 1 1029 0 discriminator 1
 923 0094 092B     		cmp	r3, #9
 924 0096 04D1     		bne	.L46
 925              	.L45:
1031:.\Generated_Source\PSoC4/BLE_1.c ****                     {
1032:.\Generated_Source\PSoC4/BLE_1.c ****                         /* Start of the Local Name AD type was fount. Set flag and exit the loop. *
1033:.\Generated_Source\PSoC4/BLE_1.c ****                         flag = 1u;
 926              		.loc 1 1033 0
 927 0098 1623     		mov	r3, #22
 928 009a FB18     		add	r3, r7, r3
 929 009c 0122     		mov	r2, #1
 930 009e 1A70     		strb	r2, [r3]
 931 00a0 09E0     		b	.L47
 932              	.L46:
1034:.\Generated_Source\PSoC4/BLE_1.c ****                     }
1035:.\Generated_Source\PSoC4/BLE_1.c ****                     else
1036:.\Generated_Source\PSoC4/BLE_1.c ****                     {
1037:.\Generated_Source\PSoC4/BLE_1.c ****                         byteCounter += adLength;
 933              		.loc 1 1037 0
 934 00a2 1423     		mov	r3, #20
 935 00a4 FB18     		add	r3, r7, r3
 936 00a6 1422     		mov	r2, #20
 937 00a8 B918     		add	r1, r7, r2
 938 00aa 1522     		mov	r2, #21
 939 00ac BA18     		add	r2, r7, r2
 940 00ae 0978     		ldrb	r1, [r1]
ARM GAS  C:\Users\ilias\AppData\Local\Temp\ccbZWpbs.s 			page 36


 941 00b0 1278     		ldrb	r2, [r2]
 942 00b2 8A18     		add	r2, r1, r2
 943 00b4 1A70     		strb	r2, [r3]
 944              	.L47:
 945 00b6 00E0     		b	.L43
 946              	.L44:
1038:.\Generated_Source\PSoC4/BLE_1.c ****                     }
1039:.\Generated_Source\PSoC4/BLE_1.c ****                 }
1040:.\Generated_Source\PSoC4/BLE_1.c ****                 else
1041:.\Generated_Source\PSoC4/BLE_1.c ****                 {
1042:.\Generated_Source\PSoC4/BLE_1.c ****                     /* The end of advertisement data structure was encountered though exit the loop
1043:.\Generated_Source\PSoC4/BLE_1.c ****                     break;
 947              		.loc 1 1043 0
 948 00b8 0CE0     		b	.L48
 949              	.L43:
1020:.\Generated_Source\PSoC4/BLE_1.c ****             {
 950              		.loc 1 1020 0
 951 00ba 1423     		mov	r3, #20
 952 00bc FA18     		add	r2, r7, r3
 953 00be 0F23     		mov	r3, #15
 954 00c0 FB18     		add	r3, r7, r3
 955 00c2 1278     		ldrb	r2, [r2]
 956 00c4 1B78     		ldrb	r3, [r3]
 957 00c6 9A42     		cmp	r2, r3
 958 00c8 04D2     		bcs	.L48
1020:.\Generated_Source\PSoC4/BLE_1.c ****             {
 959              		.loc 1 1020 0 is_stmt 0 discriminator 1
 960 00ca 1623     		mov	r3, #22
 961 00cc FB18     		add	r3, r7, r3
 962 00ce 1B78     		ldrb	r3, [r3]
 963 00d0 002B     		cmp	r3, #0
 964 00d2 BCD0     		beq	.L49
 965              	.L48:
1044:.\Generated_Source\PSoC4/BLE_1.c ****                 }
1045:.\Generated_Source\PSoC4/BLE_1.c ****             }
1046:.\Generated_Source\PSoC4/BLE_1.c ****             
1047:.\Generated_Source\PSoC4/BLE_1.c ****             if(0u != flag)
 966              		.loc 1 1047 0 is_stmt 1
 967 00d4 1623     		mov	r3, #22
 968 00d6 FB18     		add	r3, r7, r3
 969 00d8 1B78     		ldrb	r3, [r3]
 970 00da 002B     		cmp	r3, #0
 971 00dc 5BD0     		beq	.L40
1048:.\Generated_Source\PSoC4/BLE_1.c ****             {
1049:.\Generated_Source\PSoC4/BLE_1.c ****                 /* Reuse "adLength" to hold location of the last character of local name in 
1050:.\Generated_Source\PSoC4/BLE_1.c ****                    AD structure. */
1051:.\Generated_Source\PSoC4/BLE_1.c ****                 adLength += byteCounter;
 972              		.loc 1 1051 0
 973 00de 1523     		mov	r3, #21
 974 00e0 FB18     		add	r3, r7, r3
 975 00e2 1522     		mov	r2, #21
 976 00e4 B918     		add	r1, r7, r2
 977 00e6 1422     		mov	r2, #20
 978 00e8 BA18     		add	r2, r7, r2
 979 00ea 0978     		ldrb	r1, [r1]
 980 00ec 1278     		ldrb	r2, [r2]
 981 00ee 8A18     		add	r2, r1, r2
ARM GAS  C:\Users\ilias\AppData\Local\Temp\ccbZWpbs.s 			page 37


 982 00f0 1A70     		strb	r2, [r3]
1052:.\Generated_Source\PSoC4/BLE_1.c ****                 
1053:.\Generated_Source\PSoC4/BLE_1.c ****                 /* Increment byte counter to point to start of the local Name string */
1054:.\Generated_Source\PSoC4/BLE_1.c ****                 byteCounter++;
 983              		.loc 1 1054 0
 984 00f2 1423     		mov	r3, #20
 985 00f4 FB18     		add	r3, r7, r3
 986 00f6 1A78     		ldrb	r2, [r3]
 987 00f8 1423     		mov	r3, #20
 988 00fa FB18     		add	r3, r7, r3
 989 00fc 0132     		add	r2, r2, #1
 990 00fe 1A70     		strb	r2, [r3]
1055:.\Generated_Source\PSoC4/BLE_1.c ****                 
1056:.\Generated_Source\PSoC4/BLE_1.c ****                 for(i = byteCounter; ((i < (adLength)) && (CYBLE_NULL_CHARCTER != name[i - byteCoun
 991              		.loc 1 1056 0
 992 0100 1723     		mov	r3, #23
 993 0102 FB18     		add	r3, r7, r3
 994 0104 1422     		mov	r2, #20
 995 0106 BA18     		add	r2, r7, r2
 996 0108 1278     		ldrb	r2, [r2]
 997 010a 1A70     		strb	r2, [r3]
 998 010c 17E0     		b	.L51
 999              	.L53:
1057:.\Generated_Source\PSoC4/BLE_1.c ****                 {
1058:.\Generated_Source\PSoC4/BLE_1.c ****                     destBuffer[i] = (uint8)name[i - byteCounter];
 1000              		.loc 1 1058 0 discriminator 4
 1001 010e 1723     		mov	r3, #23
 1002 0110 FB18     		add	r3, r7, r3
 1003 0112 1B78     		ldrb	r3, [r3]
 1004 0114 3A69     		ldr	r2, [r7, #16]
 1005 0116 D318     		add	r3, r2, r3
 1006 0118 1722     		mov	r2, #23
 1007 011a BA18     		add	r2, r7, r2
 1008 011c 1178     		ldrb	r1, [r2]
 1009 011e 1422     		mov	r2, #20
 1010 0120 BA18     		add	r2, r7, r2
 1011 0122 1278     		ldrb	r2, [r2]
 1012 0124 8A1A     		sub	r2, r1, r2
 1013 0126 111C     		mov	r1, r2
 1014 0128 7A68     		ldr	r2, [r7, #4]
 1015 012a 5218     		add	r2, r2, r1
 1016 012c 1278     		ldrb	r2, [r2]
 1017 012e 1A70     		strb	r2, [r3]
1056:.\Generated_Source\PSoC4/BLE_1.c ****                 {
 1018              		.loc 1 1056 0 discriminator 4
 1019 0130 1723     		mov	r3, #23
 1020 0132 FB18     		add	r3, r7, r3
 1021 0134 1A78     		ldrb	r2, [r3]
 1022 0136 1723     		mov	r3, #23
 1023 0138 FB18     		add	r3, r7, r3
 1024 013a 0132     		add	r2, r2, #1
 1025 013c 1A70     		strb	r2, [r3]
 1026              	.L51:
1056:.\Generated_Source\PSoC4/BLE_1.c ****                 {
 1027              		.loc 1 1056 0 is_stmt 0 discriminator 1
 1028 013e 1723     		mov	r3, #23
 1029 0140 FA18     		add	r2, r7, r3
ARM GAS  C:\Users\ilias\AppData\Local\Temp\ccbZWpbs.s 			page 38


 1030 0142 1523     		mov	r3, #21
 1031 0144 FB18     		add	r3, r7, r3
 1032 0146 1278     		ldrb	r2, [r2]
 1033 0148 1B78     		ldrb	r3, [r3]
 1034 014a 9A42     		cmp	r2, r3
 1035 014c 0CD2     		bcs	.L52
1056:.\Generated_Source\PSoC4/BLE_1.c ****                 {
 1036              		.loc 1 1056 0 discriminator 3
 1037 014e 1723     		mov	r3, #23
 1038 0150 FB18     		add	r3, r7, r3
 1039 0152 1A78     		ldrb	r2, [r3]
 1040 0154 1423     		mov	r3, #20
 1041 0156 FB18     		add	r3, r7, r3
 1042 0158 1B78     		ldrb	r3, [r3]
 1043 015a D31A     		sub	r3, r2, r3
 1044 015c 1A1C     		mov	r2, r3
 1045 015e 7B68     		ldr	r3, [r7, #4]
 1046 0160 9B18     		add	r3, r3, r2
 1047 0162 1B78     		ldrb	r3, [r3]
 1048 0164 002B     		cmp	r3, #0
 1049 0166 D2D1     		bne	.L53
 1050              	.L52:
1059:.\Generated_Source\PSoC4/BLE_1.c ****                 }
1060:.\Generated_Source\PSoC4/BLE_1.c ****                 
1061:.\Generated_Source\PSoC4/BLE_1.c ****                 /* This loop handles the case when new local name is shorted than old one.
1062:.\Generated_Source\PSoC4/BLE_1.c ****                    In this case all remaining characters should be null characters. */
1063:.\Generated_Source\PSoC4/BLE_1.c ****                 while(adLength > i)
 1051              		.loc 1 1063 0 is_stmt 1
 1052 0168 0DE0     		b	.L54
 1053              	.L55:
1064:.\Generated_Source\PSoC4/BLE_1.c ****                 {
1065:.\Generated_Source\PSoC4/BLE_1.c ****                     /* Terminate string */
1066:.\Generated_Source\PSoC4/BLE_1.c ****                     destBuffer[i] = (uint8)CYBLE_NULL_CHARCTER;
 1054              		.loc 1 1066 0
 1055 016a 1723     		mov	r3, #23
 1056 016c FB18     		add	r3, r7, r3
 1057 016e 1B78     		ldrb	r3, [r3]
 1058 0170 3A69     		ldr	r2, [r7, #16]
 1059 0172 D318     		add	r3, r2, r3
 1060 0174 0022     		mov	r2, #0
 1061 0176 1A70     		strb	r2, [r3]
1067:.\Generated_Source\PSoC4/BLE_1.c ****                     i++;
 1062              		.loc 1 1067 0
 1063 0178 1723     		mov	r3, #23
 1064 017a FB18     		add	r3, r7, r3
 1065 017c 1A78     		ldrb	r2, [r3]
 1066 017e 1723     		mov	r3, #23
 1067 0180 FB18     		add	r3, r7, r3
 1068 0182 0132     		add	r2, r2, #1
 1069 0184 1A70     		strb	r2, [r3]
 1070              	.L54:
1063:.\Generated_Source\PSoC4/BLE_1.c ****                 {
 1071              		.loc 1 1063 0
 1072 0186 1523     		mov	r3, #21
 1073 0188 FA18     		add	r2, r7, r3
 1074 018a 1723     		mov	r3, #23
 1075 018c FB18     		add	r3, r7, r3
ARM GAS  C:\Users\ilias\AppData\Local\Temp\ccbZWpbs.s 			page 39


 1076 018e 1278     		ldrb	r2, [r2]
 1077 0190 1B78     		ldrb	r3, [r3]
 1078 0192 9A42     		cmp	r2, r3
 1079 0194 E9D8     		bhi	.L55
 1080              	.L40:
1068:.\Generated_Source\PSoC4/BLE_1.c ****                 }
1069:.\Generated_Source\PSoC4/BLE_1.c ****             }
1070:.\Generated_Source\PSoC4/BLE_1.c ****         }
 1081              		.loc 1 1070 0
 1082 0196 BD46     		mov	sp, r7
 1083 0198 06B0     		add	sp, sp, #24
 1084              		@ sp needed
 1085 019a 80BD     		pop	{r7, pc}
 1086              	.L57:
 1087              		.align	2
 1088              	.L56:
 1089 019c 00000000 		.word	cyBle_discoveryData
 1090 01a0 00000000 		.word	cyBle_scanRspData
 1091              		.cfi_endproc
 1092              	.LFE10:
 1093              		.size	CyBle_ChangeAdLocalName, .-CyBle_ChangeAdLocalName
 1094              		.section	.text.CyBle_GapSetLocalName,"ax",%progbits
 1095              		.align	2
 1096              		.global	CyBle_GapSetLocalName
 1097              		.code	16
 1098              		.thumb_func
 1099              		.type	CyBle_GapSetLocalName, %function
 1100              	CyBle_GapSetLocalName:
 1101              	.LFB11:
1071:.\Generated_Source\PSoC4/BLE_1.c ****         
1072:.\Generated_Source\PSoC4/BLE_1.c **** #endif /* (CYBLE_GAP_ROLE_PERIPHERAL) */  
1073:.\Generated_Source\PSoC4/BLE_1.c ****     
1074:.\Generated_Source\PSoC4/BLE_1.c ****     
1075:.\Generated_Source\PSoC4/BLE_1.c ****     /******************************************************************************
1076:.\Generated_Source\PSoC4/BLE_1.c ****     * Function Name: CyBle_GapSetLocalName
1077:.\Generated_Source\PSoC4/BLE_1.c ****     ***************************************************************************//**
1078:.\Generated_Source\PSoC4/BLE_1.c ****     *  This API is used to set the local device name - a Characteristic of the 
1079:.\Generated_Source\PSoC4/BLE_1.c ****     *  GAP Service. If the characteristic length entered in the component customizer
1080:.\Generated_Source\PSoC4/BLE_1.c ****     *  is shorter than the string specified by the "name" parameter, the local device
1081:.\Generated_Source\PSoC4/BLE_1.c ****     *  name will be cut to the length specified in the customizer.
1082:.\Generated_Source\PSoC4/BLE_1.c ****     * 
1083:.\Generated_Source\PSoC4/BLE_1.c ****     *  \param name: The local device name string. The name string to be written as
1084:.\Generated_Source\PSoC4/BLE_1.c ****     *              the local device name. It represents a UTF-8 encoded User
1085:.\Generated_Source\PSoC4/BLE_1.c ****     *              Friendly Descriptive Name for the device. The length of the local
1086:.\Generated_Source\PSoC4/BLE_1.c ****     *              device string is entered into the component customizer and it can
1087:.\Generated_Source\PSoC4/BLE_1.c ****     *              be set to a value from 0 to 248 bytes. If the name contained in
1088:.\Generated_Source\PSoC4/BLE_1.c ****     *              the parameter is shorter than the length from the customizer, the
1089:.\Generated_Source\PSoC4/BLE_1.c ****     *              end of the name is indicated by a NULL octet (0x00).
1090:.\Generated_Source\PSoC4/BLE_1.c ****     * 
1091:.\Generated_Source\PSoC4/BLE_1.c ****     * \return
1092:.\Generated_Source\PSoC4/BLE_1.c ****     *  CYBLE_API_RESULT_T : Return value indicates if the function succeeded or 
1093:.\Generated_Source\PSoC4/BLE_1.c ****     *  failed. Following are the possible error codes.
1094:.\Generated_Source\PSoC4/BLE_1.c ****     *
1095:.\Generated_Source\PSoC4/BLE_1.c ****     *   Errors codes                       | Description
1096:.\Generated_Source\PSoC4/BLE_1.c ****     *   ------------                       | -----------
1097:.\Generated_Source\PSoC4/BLE_1.c ****     *   CYBLE_ERROR_OK                     | Function completed successfully.
1098:.\Generated_Source\PSoC4/BLE_1.c ****     *   CYBLE_ERROR_INVALID_PARAMETER      | On specifying NULL as input parameter
ARM GAS  C:\Users\ilias\AppData\Local\Temp\ccbZWpbs.s 			page 40


1099:.\Generated_Source\PSoC4/BLE_1.c ****     *  
1100:.\Generated_Source\PSoC4/BLE_1.c ****     *******************************************************************************/
1101:.\Generated_Source\PSoC4/BLE_1.c ****     CYBLE_API_RESULT_T CyBle_GapSetLocalName(const char8 name[])
1102:.\Generated_Source\PSoC4/BLE_1.c ****     {
 1102              		.loc 1 1102 0
 1103              		.cfi_startproc
 1104 0000 80B5     		push	{r7, lr}
 1105              		.cfi_def_cfa_offset 8
 1106              		.cfi_offset 7, -8
 1107              		.cfi_offset 14, -4
 1108 0002 86B0     		sub	sp, sp, #24
 1109              		.cfi_def_cfa_offset 32
 1110 0004 00AF     		add	r7, sp, #0
 1111              		.cfi_def_cfa_register 7
 1112 0006 7860     		str	r0, [r7, #4]
1103:.\Generated_Source\PSoC4/BLE_1.c ****         CYBLE_API_RESULT_T apiResult = CYBLE_ERROR_OK;
 1113              		.loc 1 1103 0
 1114 0008 1623     		mov	r3, #22
 1115 000a FB18     		add	r3, r7, r3
 1116 000c 0022     		mov	r2, #0
 1117 000e 1A80     		strh	r2, [r3]
1104:.\Generated_Source\PSoC4/BLE_1.c ****         uint8 i;
1105:.\Generated_Source\PSoC4/BLE_1.c ****         char8 *ptr;
1106:.\Generated_Source\PSoC4/BLE_1.c ****         uint8 charLen;
1107:.\Generated_Source\PSoC4/BLE_1.c **** 
1108:.\Generated_Source\PSoC4/BLE_1.c ****         if(NULL != name)
 1118              		.loc 1 1108 0
 1119 0010 7B68     		ldr	r3, [r7, #4]
 1120 0012 002B     		cmp	r3, #0
 1121 0014 4AD0     		beq	.L59
1109:.\Generated_Source\PSoC4/BLE_1.c ****         {
1110:.\Generated_Source\PSoC4/BLE_1.c ****             /* Get the pointer to the Device Name characteristic  */
1111:.\Generated_Source\PSoC4/BLE_1.c ****             ptr = (char8 *) CYBLE_GATT_DB_ATTR_GET_ATTR_GEN_PTR(CYBLE_GAP_DEVICE_NAME_INDEX + 1u);
 1122              		.loc 1 1111 0
 1123 0016 2B4B     		ldr	r3, .L66
 1124 0018 9B6B     		ldr	r3, [r3, #56]
 1125 001a 5B68     		ldr	r3, [r3, #4]
 1126 001c 3B61     		str	r3, [r7, #16]
1112:.\Generated_Source\PSoC4/BLE_1.c **** 
1113:.\Generated_Source\PSoC4/BLE_1.c ****             /* First need to get the maximum length of the characteristic data in the GATT
1114:.\Generated_Source\PSoC4/BLE_1.c ****                 database to make sure there is enough place for the data. The length
1115:.\Generated_Source\PSoC4/BLE_1.c ****                 can't be longer than 248, so only the LSB of 16 bit of length is to
1116:.\Generated_Source\PSoC4/BLE_1.c ****                 be used. */
1117:.\Generated_Source\PSoC4/BLE_1.c ****             charLen = (uint8)CYBLE_GATT_DB_ATTR_GET_ATTR_GEN_MAX_LEN(CYBLE_GAP_DEVICE_NAME_INDEX + 
 1127              		.loc 1 1117 0
 1128 001e 294B     		ldr	r3, .L66
 1129 0020 9A8E     		ldrh	r2, [r3, #52]
 1130 0022 0F23     		mov	r3, #15
 1131 0024 FB18     		add	r3, r7, r3
 1132 0026 1A70     		strb	r2, [r3]
1118:.\Generated_Source\PSoC4/BLE_1.c **** 
1119:.\Generated_Source\PSoC4/BLE_1.c ****             /* Copy name into characteristic */
1120:.\Generated_Source\PSoC4/BLE_1.c ****             for(i = 0u; ((i < charLen) && (CYBLE_NULL_CHARCTER != name[i])); i++)
 1133              		.loc 1 1120 0
 1134 0028 1523     		mov	r3, #21
 1135 002a FB18     		add	r3, r7, r3
 1136 002c 0022     		mov	r2, #0
ARM GAS  C:\Users\ilias\AppData\Local\Temp\ccbZWpbs.s 			page 41


 1137 002e 1A70     		strb	r2, [r3]
 1138 0030 12E0     		b	.L60
 1139              	.L62:
1121:.\Generated_Source\PSoC4/BLE_1.c ****             {
1122:.\Generated_Source\PSoC4/BLE_1.c ****                 ptr[i] = name[i];
 1140              		.loc 1 1122 0 discriminator 4
 1141 0032 1523     		mov	r3, #21
 1142 0034 FB18     		add	r3, r7, r3
 1143 0036 1B78     		ldrb	r3, [r3]
 1144 0038 3A69     		ldr	r2, [r7, #16]
 1145 003a D318     		add	r3, r2, r3
 1146 003c 1522     		mov	r2, #21
 1147 003e BA18     		add	r2, r7, r2
 1148 0040 1278     		ldrb	r2, [r2]
 1149 0042 7968     		ldr	r1, [r7, #4]
 1150 0044 8A18     		add	r2, r1, r2
 1151 0046 1278     		ldrb	r2, [r2]
 1152 0048 1A70     		strb	r2, [r3]
1120:.\Generated_Source\PSoC4/BLE_1.c ****             {
 1153              		.loc 1 1120 0 discriminator 4
 1154 004a 1523     		mov	r3, #21
 1155 004c FB18     		add	r3, r7, r3
 1156 004e 1A78     		ldrb	r2, [r3]
 1157 0050 1523     		mov	r3, #21
 1158 0052 FB18     		add	r3, r7, r3
 1159 0054 0132     		add	r2, r2, #1
 1160 0056 1A70     		strb	r2, [r3]
 1161              	.L60:
1120:.\Generated_Source\PSoC4/BLE_1.c ****             {
 1162              		.loc 1 1120 0 is_stmt 0 discriminator 1
 1163 0058 1523     		mov	r3, #21
 1164 005a FA18     		add	r2, r7, r3
 1165 005c 0F23     		mov	r3, #15
 1166 005e FB18     		add	r3, r7, r3
 1167 0060 1278     		ldrb	r2, [r2]
 1168 0062 1B78     		ldrb	r3, [r3]
 1169 0064 9A42     		cmp	r2, r3
 1170 0066 07D2     		bcs	.L61
1120:.\Generated_Source\PSoC4/BLE_1.c ****             {
 1171              		.loc 1 1120 0 discriminator 3
 1172 0068 1523     		mov	r3, #21
 1173 006a FB18     		add	r3, r7, r3
 1174 006c 1B78     		ldrb	r3, [r3]
 1175 006e 7A68     		ldr	r2, [r7, #4]
 1176 0070 D318     		add	r3, r2, r3
 1177 0072 1B78     		ldrb	r3, [r3]
 1178 0074 002B     		cmp	r3, #0
 1179 0076 DCD1     		bne	.L62
 1180              	.L61:
1123:.\Generated_Source\PSoC4/BLE_1.c ****             }
1124:.\Generated_Source\PSoC4/BLE_1.c **** 
1125:.\Generated_Source\PSoC4/BLE_1.c ****             if(i < charLen)
 1181              		.loc 1 1125 0 is_stmt 1
 1182 0078 1523     		mov	r3, #21
 1183 007a FA18     		add	r2, r7, r3
 1184 007c 0F23     		mov	r3, #15
 1185 007e FB18     		add	r3, r7, r3
ARM GAS  C:\Users\ilias\AppData\Local\Temp\ccbZWpbs.s 			page 42


 1186 0080 1278     		ldrb	r2, [r2]
 1187 0082 1B78     		ldrb	r3, [r3]
 1188 0084 9A42     		cmp	r2, r3
 1189 0086 06D2     		bcs	.L63
1126:.\Generated_Source\PSoC4/BLE_1.c ****             {
1127:.\Generated_Source\PSoC4/BLE_1.c ****                 /* Terminate string */
1128:.\Generated_Source\PSoC4/BLE_1.c ****                 ptr[i] = CYBLE_NULL_CHARCTER;
 1190              		.loc 1 1128 0
 1191 0088 1523     		mov	r3, #21
 1192 008a FB18     		add	r3, r7, r3
 1193 008c 1B78     		ldrb	r3, [r3]
 1194 008e 3A69     		ldr	r2, [r7, #16]
 1195 0090 D318     		add	r3, r2, r3
 1196 0092 0022     		mov	r2, #0
 1197 0094 1A70     		strb	r2, [r3]
 1198              	.L63:
1129:.\Generated_Source\PSoC4/BLE_1.c ****             }
1130:.\Generated_Source\PSoC4/BLE_1.c ****             
1131:.\Generated_Source\PSoC4/BLE_1.c ****             /* Set new actual length */
1132:.\Generated_Source\PSoC4/BLE_1.c ****             
1133:.\Generated_Source\PSoC4/BLE_1.c ****             /* Update device name in advertising and scan response structure */
1134:.\Generated_Source\PSoC4/BLE_1.c ****             #if(CYBLE_GAP_ROLE_PERIPHERAL)
1135:.\Generated_Source\PSoC4/BLE_1.c ****                 CyBle_ChangeAdLocalName(name, 0u);
 1199              		.loc 1 1135 0
 1200 0096 7B68     		ldr	r3, [r7, #4]
 1201 0098 181C     		mov	r0, r3
 1202 009a 0021     		mov	r1, #0
 1203 009c FFF7FEFF 		bl	CyBle_ChangeAdLocalName
1136:.\Generated_Source\PSoC4/BLE_1.c ****                 CyBle_ChangeAdLocalName(name, 1u);
 1204              		.loc 1 1136 0
 1205 00a0 7B68     		ldr	r3, [r7, #4]
 1206 00a2 181C     		mov	r0, r3
 1207 00a4 0121     		mov	r1, #1
 1208 00a6 FFF7FEFF 		bl	CyBle_ChangeAdLocalName
 1209 00aa 03E0     		b	.L64
 1210              	.L59:
1137:.\Generated_Source\PSoC4/BLE_1.c ****             #endif /* (CYBLE_GAP_ROLE_PERIPHERAL) */
1138:.\Generated_Source\PSoC4/BLE_1.c ****         }
1139:.\Generated_Source\PSoC4/BLE_1.c ****         else
1140:.\Generated_Source\PSoC4/BLE_1.c ****         {
1141:.\Generated_Source\PSoC4/BLE_1.c ****             apiResult = CYBLE_ERROR_INVALID_PARAMETER;
 1211              		.loc 1 1141 0
 1212 00ac 1623     		mov	r3, #22
 1213 00ae FB18     		add	r3, r7, r3
 1214 00b0 0122     		mov	r2, #1
 1215 00b2 1A80     		strh	r2, [r3]
 1216              	.L64:
1142:.\Generated_Source\PSoC4/BLE_1.c ****         }
1143:.\Generated_Source\PSoC4/BLE_1.c ****         
1144:.\Generated_Source\PSoC4/BLE_1.c ****         return(apiResult);
 1217              		.loc 1 1144 0
 1218 00b4 1623     		mov	r3, #22
 1219 00b6 FB18     		add	r3, r7, r3
 1220 00b8 1B88     		ldrh	r3, [r3]
1145:.\Generated_Source\PSoC4/BLE_1.c ****     }
 1221              		.loc 1 1145 0
 1222 00ba 181C     		mov	r0, r3
ARM GAS  C:\Users\ilias\AppData\Local\Temp\ccbZWpbs.s 			page 43


 1223 00bc BD46     		mov	sp, r7
 1224 00be 06B0     		add	sp, sp, #24
 1225              		@ sp needed
 1226 00c0 80BD     		pop	{r7, pc}
 1227              	.L67:
 1228 00c2 C046     		.align	2
 1229              	.L66:
 1230 00c4 00000000 		.word	cyBle_gattDB
 1231              		.cfi_endproc
 1232              	.LFE11:
 1233              		.size	CyBle_GapSetLocalName, .-CyBle_GapSetLocalName
 1234              		.section	.text.CyBle_GapGetLocalName,"ax",%progbits
 1235              		.align	2
 1236              		.global	CyBle_GapGetLocalName
 1237              		.code	16
 1238              		.thumb_func
 1239              		.type	CyBle_GapGetLocalName, %function
 1240              	CyBle_GapGetLocalName:
 1241              	.LFB12:
1146:.\Generated_Source\PSoC4/BLE_1.c **** 
1147:.\Generated_Source\PSoC4/BLE_1.c **** 
1148:.\Generated_Source\PSoC4/BLE_1.c ****     /******************************************************************************
1149:.\Generated_Source\PSoC4/BLE_1.c ****     * Function Name: CyBle_GapGetLocalName
1150:.\Generated_Source\PSoC4/BLE_1.c ****     ***************************************************************************//**
1151:.\Generated_Source\PSoC4/BLE_1.c ****     *  
1152:.\Generated_Source\PSoC4/BLE_1.c ****     *  This API is used to read the local device name - a Characteristic of the 
1153:.\Generated_Source\PSoC4/BLE_1.c ****     *  GAP Service.
1154:.\Generated_Source\PSoC4/BLE_1.c ****     * 
1155:.\Generated_Source\PSoC4/BLE_1.c ****     * \param name: The local device name string. Used to read the local name to the
1156:.\Generated_Source\PSoC4/BLE_1.c ****     *             given string array. It represents a UTF-8 encoded User Friendly 
1157:.\Generated_Source\PSoC4/BLE_1.c ****     *             Descriptive Name for the device. The length of the local device
1158:.\Generated_Source\PSoC4/BLE_1.c ****     *             string is entered into the component customizer and it can be set
1159:.\Generated_Source\PSoC4/BLE_1.c ****     *             to a value from 0 to 248 bytes. If the name contained in the
1160:.\Generated_Source\PSoC4/BLE_1.c ****     *             parameter is shorter than the length from the customizer, the end
1161:.\Generated_Source\PSoC4/BLE_1.c ****     *             of the name is indicated by a NULL octet (0x00).
1162:.\Generated_Source\PSoC4/BLE_1.c ****     * 
1163:.\Generated_Source\PSoC4/BLE_1.c ****     * \return
1164:.\Generated_Source\PSoC4/BLE_1.c ****     *  CYBLE_API_RESULT_T : Return value indicates if the function succeeded or 
1165:.\Generated_Source\PSoC4/BLE_1.c ****     *  failed. Following are the possible error codes.
1166:.\Generated_Source\PSoC4/BLE_1.c ****     *
1167:.\Generated_Source\PSoC4/BLE_1.c ****     *   Errors codes                       | Description
1168:.\Generated_Source\PSoC4/BLE_1.c ****     *   ------------                       | -----------
1169:.\Generated_Source\PSoC4/BLE_1.c ****     *   CYBLE_ERROR_OK                     | Function completed successfully.
1170:.\Generated_Source\PSoC4/BLE_1.c ****     *   CYBLE_ERROR_INVALID_PARAMETER      | On specifying NULL as input parameter
1171:.\Generated_Source\PSoC4/BLE_1.c ****     *
1172:.\Generated_Source\PSoC4/BLE_1.c ****     *******************************************************************************/
1173:.\Generated_Source\PSoC4/BLE_1.c ****     CYBLE_API_RESULT_T CyBle_GapGetLocalName(char8 name[])
1174:.\Generated_Source\PSoC4/BLE_1.c ****     {
 1242              		.loc 1 1174 0
 1243              		.cfi_startproc
 1244 0000 80B5     		push	{r7, lr}
 1245              		.cfi_def_cfa_offset 8
 1246              		.cfi_offset 7, -8
 1247              		.cfi_offset 14, -4
 1248 0002 86B0     		sub	sp, sp, #24
 1249              		.cfi_def_cfa_offset 32
 1250 0004 00AF     		add	r7, sp, #0
ARM GAS  C:\Users\ilias\AppData\Local\Temp\ccbZWpbs.s 			page 44


 1251              		.cfi_def_cfa_register 7
 1252 0006 7860     		str	r0, [r7, #4]
1175:.\Generated_Source\PSoC4/BLE_1.c ****         CYBLE_API_RESULT_T apiResult = CYBLE_ERROR_OK;
 1253              		.loc 1 1175 0
 1254 0008 1623     		mov	r3, #22
 1255 000a FB18     		add	r3, r7, r3
 1256 000c 0022     		mov	r2, #0
 1257 000e 1A80     		strh	r2, [r3]
1176:.\Generated_Source\PSoC4/BLE_1.c ****         uint8 charLen;
1177:.\Generated_Source\PSoC4/BLE_1.c ****         uint8 i;
1178:.\Generated_Source\PSoC4/BLE_1.c ****         char8 *ptr;
1179:.\Generated_Source\PSoC4/BLE_1.c **** 
1180:.\Generated_Source\PSoC4/BLE_1.c ****         if(NULL != name)
 1258              		.loc 1 1180 0
 1259 0010 7B68     		ldr	r3, [r7, #4]
 1260 0012 002B     		cmp	r3, #0
 1261 0014 39D0     		beq	.L69
1181:.\Generated_Source\PSoC4/BLE_1.c ****         {
1182:.\Generated_Source\PSoC4/BLE_1.c ****             /* Get the pointer to the Device Name characteristic  */
1183:.\Generated_Source\PSoC4/BLE_1.c ****             ptr = (char8 *) CYBLE_GATT_DB_ATTR_GET_ATTR_GEN_PTR(CYBLE_GAP_DEVICE_NAME_INDEX + 1u);
 1262              		.loc 1 1183 0
 1263 0016 224B     		ldr	r3, .L75
 1264 0018 9B6B     		ldr	r3, [r3, #56]
 1265 001a 5B68     		ldr	r3, [r3, #4]
 1266 001c 3B61     		str	r3, [r7, #16]
1184:.\Generated_Source\PSoC4/BLE_1.c **** 
1185:.\Generated_Source\PSoC4/BLE_1.c ****             /* First need to get the length of the characteristic data in the GATT
1186:.\Generated_Source\PSoC4/BLE_1.c ****                 database to make sure there is enough place for the data. The length
1187:.\Generated_Source\PSoC4/BLE_1.c ****                 can't be longer than 248, so only the LSB of 16 bit of length is to
1188:.\Generated_Source\PSoC4/BLE_1.c ****                 be used. */
1189:.\Generated_Source\PSoC4/BLE_1.c ****             charLen = (uint8)CYBLE_GATT_DB_ATTR_GET_ATTR_GEN_LEN(CYBLE_GAP_DEVICE_NAME_INDEX + 1u);
 1267              		.loc 1 1189 0
 1268 001e 204B     		ldr	r3, .L75
 1269 0020 9B6B     		ldr	r3, [r3, #56]
 1270 0022 1A88     		ldrh	r2, [r3]
 1271 0024 0F23     		mov	r3, #15
 1272 0026 FB18     		add	r3, r7, r3
 1273 0028 1A70     		strb	r2, [r3]
1190:.\Generated_Source\PSoC4/BLE_1.c **** 
1191:.\Generated_Source\PSoC4/BLE_1.c ****             /* Copy name from characteristic */
1192:.\Generated_Source\PSoC4/BLE_1.c ****             for(i = 0u; ((i < charLen) && (CYBLE_NULL_CHARCTER != ptr[i])); i++)
 1274              		.loc 1 1192 0
 1275 002a 1523     		mov	r3, #21
 1276 002c FB18     		add	r3, r7, r3
 1277 002e 0022     		mov	r2, #0
 1278 0030 1A70     		strb	r2, [r3]
 1279 0032 12E0     		b	.L70
 1280              	.L72:
1193:.\Generated_Source\PSoC4/BLE_1.c ****             {
1194:.\Generated_Source\PSoC4/BLE_1.c ****                 name[i] = ptr[i];
 1281              		.loc 1 1194 0 discriminator 4
 1282 0034 1523     		mov	r3, #21
 1283 0036 FB18     		add	r3, r7, r3
 1284 0038 1B78     		ldrb	r3, [r3]
 1285 003a 7A68     		ldr	r2, [r7, #4]
 1286 003c D318     		add	r3, r2, r3
 1287 003e 1522     		mov	r2, #21
ARM GAS  C:\Users\ilias\AppData\Local\Temp\ccbZWpbs.s 			page 45


 1288 0040 BA18     		add	r2, r7, r2
 1289 0042 1278     		ldrb	r2, [r2]
 1290 0044 3969     		ldr	r1, [r7, #16]
 1291 0046 8A18     		add	r2, r1, r2
 1292 0048 1278     		ldrb	r2, [r2]
 1293 004a 1A70     		strb	r2, [r3]
1192:.\Generated_Source\PSoC4/BLE_1.c ****             {
 1294              		.loc 1 1192 0 discriminator 4
 1295 004c 1523     		mov	r3, #21
 1296 004e FB18     		add	r3, r7, r3
 1297 0050 1A78     		ldrb	r2, [r3]
 1298 0052 1523     		mov	r3, #21
 1299 0054 FB18     		add	r3, r7, r3
 1300 0056 0132     		add	r2, r2, #1
 1301 0058 1A70     		strb	r2, [r3]
 1302              	.L70:
1192:.\Generated_Source\PSoC4/BLE_1.c ****             {
 1303              		.loc 1 1192 0 is_stmt 0 discriminator 1
 1304 005a 1523     		mov	r3, #21
 1305 005c FA18     		add	r2, r7, r3
 1306 005e 0F23     		mov	r3, #15
 1307 0060 FB18     		add	r3, r7, r3
 1308 0062 1278     		ldrb	r2, [r2]
 1309 0064 1B78     		ldrb	r3, [r3]
 1310 0066 9A42     		cmp	r2, r3
 1311 0068 07D2     		bcs	.L71
1192:.\Generated_Source\PSoC4/BLE_1.c ****             {
 1312              		.loc 1 1192 0 discriminator 3
 1313 006a 1523     		mov	r3, #21
 1314 006c FB18     		add	r3, r7, r3
 1315 006e 1B78     		ldrb	r3, [r3]
 1316 0070 3A69     		ldr	r2, [r7, #16]
 1317 0072 D318     		add	r3, r2, r3
 1318 0074 1B78     		ldrb	r3, [r3]
 1319 0076 002B     		cmp	r3, #0
 1320 0078 DCD1     		bne	.L72
 1321              	.L71:
1195:.\Generated_Source\PSoC4/BLE_1.c ****             }
1196:.\Generated_Source\PSoC4/BLE_1.c **** 
1197:.\Generated_Source\PSoC4/BLE_1.c ****             /* Terminate string */
1198:.\Generated_Source\PSoC4/BLE_1.c ****             name[i] = CYBLE_NULL_CHARCTER;
 1322              		.loc 1 1198 0 is_stmt 1
 1323 007a 1523     		mov	r3, #21
 1324 007c FB18     		add	r3, r7, r3
 1325 007e 1B78     		ldrb	r3, [r3]
 1326 0080 7A68     		ldr	r2, [r7, #4]
 1327 0082 D318     		add	r3, r2, r3
 1328 0084 0022     		mov	r2, #0
 1329 0086 1A70     		strb	r2, [r3]
 1330 0088 03E0     		b	.L73
 1331              	.L69:
1199:.\Generated_Source\PSoC4/BLE_1.c ****         }
1200:.\Generated_Source\PSoC4/BLE_1.c ****         else
1201:.\Generated_Source\PSoC4/BLE_1.c ****         {
1202:.\Generated_Source\PSoC4/BLE_1.c ****             apiResult = CYBLE_ERROR_INVALID_PARAMETER;
 1332              		.loc 1 1202 0
 1333 008a 1623     		mov	r3, #22
ARM GAS  C:\Users\ilias\AppData\Local\Temp\ccbZWpbs.s 			page 46


 1334 008c FB18     		add	r3, r7, r3
 1335 008e 0122     		mov	r2, #1
 1336 0090 1A80     		strh	r2, [r3]
 1337              	.L73:
1203:.\Generated_Source\PSoC4/BLE_1.c ****         }
1204:.\Generated_Source\PSoC4/BLE_1.c ****         
1205:.\Generated_Source\PSoC4/BLE_1.c ****         return(apiResult);
 1338              		.loc 1 1205 0
 1339 0092 1623     		mov	r3, #22
 1340 0094 FB18     		add	r3, r7, r3
 1341 0096 1B88     		ldrh	r3, [r3]
1206:.\Generated_Source\PSoC4/BLE_1.c ****     }
 1342              		.loc 1 1206 0
 1343 0098 181C     		mov	r0, r3
 1344 009a BD46     		mov	sp, r7
 1345 009c 06B0     		add	sp, sp, #24
 1346              		@ sp needed
 1347 009e 80BD     		pop	{r7, pc}
 1348              	.L76:
 1349              		.align	2
 1350              	.L75:
 1351 00a0 00000000 		.word	cyBle_gattDB
 1352              		.cfi_endproc
 1353              	.LFE12:
 1354              		.size	CyBle_GapGetLocalName, .-CyBle_GapGetLocalName
 1355              		.section	.text.CyBle_Get16ByPtr,"ax",%progbits
 1356              		.align	2
 1357              		.global	CyBle_Get16ByPtr
 1358              		.code	16
 1359              		.thumb_func
 1360              		.type	CyBle_Get16ByPtr, %function
 1361              	CyBle_Get16ByPtr:
 1362              	.LFB13:
1207:.\Generated_Source\PSoC4/BLE_1.c **** 
1208:.\Generated_Source\PSoC4/BLE_1.c **** #endif /* (CYBLE_GATT_ROLE_SERVER) */
1209:.\Generated_Source\PSoC4/BLE_1.c **** 
1210:.\Generated_Source\PSoC4/BLE_1.c **** 
1211:.\Generated_Source\PSoC4/BLE_1.c **** /******************************************************************************
1212:.\Generated_Source\PSoC4/BLE_1.c **** * Function Name: CyBle_Get16ByPtr
1213:.\Generated_Source\PSoC4/BLE_1.c **** ***************************************************************************//**
1214:.\Generated_Source\PSoC4/BLE_1.c **** * 
1215:.\Generated_Source\PSoC4/BLE_1.c **** *  Returns the two-bytes value by using a pointer to the LSB.
1216:.\Generated_Source\PSoC4/BLE_1.c **** * 
1217:.\Generated_Source\PSoC4/BLE_1.c **** *  \param ptr: Pointer to the LSB of two-bytes data (little endian).
1218:.\Generated_Source\PSoC4/BLE_1.c **** * 
1219:.\Generated_Source\PSoC4/BLE_1.c **** *  \return
1220:.\Generated_Source\PSoC4/BLE_1.c **** *  uint16: Two-bytes data.
1221:.\Generated_Source\PSoC4/BLE_1.c **** * 
1222:.\Generated_Source\PSoC4/BLE_1.c **** ******************************************************************************/
1223:.\Generated_Source\PSoC4/BLE_1.c **** uint16 CyBle_Get16ByPtr(const uint8 ptr[])
1224:.\Generated_Source\PSoC4/BLE_1.c **** {
 1363              		.loc 1 1224 0
 1364              		.cfi_startproc
 1365 0000 80B5     		push	{r7, lr}
 1366              		.cfi_def_cfa_offset 8
 1367              		.cfi_offset 7, -8
 1368              		.cfi_offset 14, -4
ARM GAS  C:\Users\ilias\AppData\Local\Temp\ccbZWpbs.s 			page 47


 1369 0002 82B0     		sub	sp, sp, #8
 1370              		.cfi_def_cfa_offset 16
 1371 0004 00AF     		add	r7, sp, #0
 1372              		.cfi_def_cfa_register 7
 1373 0006 7860     		str	r0, [r7, #4]
1225:.\Generated_Source\PSoC4/BLE_1.c ****     return ((uint16) ptr[0u] | ((uint16) (((uint16) ptr[1u]) << 8u)));
 1374              		.loc 1 1225 0
 1375 0008 7B68     		ldr	r3, [r7, #4]
 1376 000a 1B78     		ldrb	r3, [r3]
 1377 000c 9AB2     		uxth	r2, r3
 1378 000e 7B68     		ldr	r3, [r7, #4]
 1379 0010 0133     		add	r3, r3, #1
 1380 0012 1B78     		ldrb	r3, [r3]
 1381 0014 9BB2     		uxth	r3, r3
 1382 0016 1B02     		lsl	r3, r3, #8
 1383 0018 9BB2     		uxth	r3, r3
 1384 001a 1343     		orr	r3, r2
 1385 001c 9BB2     		uxth	r3, r3
1226:.\Generated_Source\PSoC4/BLE_1.c **** }
 1386              		.loc 1 1226 0
 1387 001e 181C     		mov	r0, r3
 1388 0020 BD46     		mov	sp, r7
 1389 0022 02B0     		add	sp, sp, #8
 1390              		@ sp needed
 1391 0024 80BD     		pop	{r7, pc}
 1392              		.cfi_endproc
 1393              	.LFE13:
 1394              		.size	CyBle_Get16ByPtr, .-CyBle_Get16ByPtr
 1395 0026 C046     		.section	.text.CyBle_Set16ByPtr,"ax",%progbits
 1396              		.align	2
 1397              		.global	CyBle_Set16ByPtr
 1398              		.code	16
 1399              		.thumb_func
 1400              		.type	CyBle_Set16ByPtr, %function
 1401              	CyBle_Set16ByPtr:
 1402              	.LFB14:
1227:.\Generated_Source\PSoC4/BLE_1.c **** 
1228:.\Generated_Source\PSoC4/BLE_1.c **** 
1229:.\Generated_Source\PSoC4/BLE_1.c **** /******************************************************************************
1230:.\Generated_Source\PSoC4/BLE_1.c **** * Function Name: CyBle_Set16ByPtr
1231:.\Generated_Source\PSoC4/BLE_1.c **** ***************************************************************************//**
1232:.\Generated_Source\PSoC4/BLE_1.c **** * 
1233:.\Generated_Source\PSoC4/BLE_1.c **** *  Sets the two-bytes value by using a pointer to the LSB.
1234:.\Generated_Source\PSoC4/BLE_1.c **** * 
1235:.\Generated_Source\PSoC4/BLE_1.c **** *  \param ptr:    Pointer to the LSB of two-bytes data (little endian).
1236:.\Generated_Source\PSoC4/BLE_1.c **** *  \param value:  Two-bytes data to be written.
1237:.\Generated_Source\PSoC4/BLE_1.c **** * 
1238:.\Generated_Source\PSoC4/BLE_1.c **** *  \return
1239:.\Generated_Source\PSoC4/BLE_1.c **** *  None
1240:.\Generated_Source\PSoC4/BLE_1.c **** * 
1241:.\Generated_Source\PSoC4/BLE_1.c **** ******************************************************************************/
1242:.\Generated_Source\PSoC4/BLE_1.c **** void CyBle_Set16ByPtr(uint8 ptr[], uint16 value)
1243:.\Generated_Source\PSoC4/BLE_1.c **** {
 1403              		.loc 1 1243 0
 1404              		.cfi_startproc
 1405 0000 80B5     		push	{r7, lr}
 1406              		.cfi_def_cfa_offset 8
ARM GAS  C:\Users\ilias\AppData\Local\Temp\ccbZWpbs.s 			page 48


 1407              		.cfi_offset 7, -8
 1408              		.cfi_offset 14, -4
 1409 0002 82B0     		sub	sp, sp, #8
 1410              		.cfi_def_cfa_offset 16
 1411 0004 00AF     		add	r7, sp, #0
 1412              		.cfi_def_cfa_register 7
 1413 0006 7860     		str	r0, [r7, #4]
 1414 0008 0A1C     		mov	r2, r1
 1415 000a BB1C     		add	r3, r7, #2
 1416 000c 1A80     		strh	r2, [r3]
1244:.\Generated_Source\PSoC4/BLE_1.c ****     ptr[0u] = (uint8) value;
 1417              		.loc 1 1244 0
 1418 000e BB1C     		add	r3, r7, #2
 1419 0010 1B88     		ldrh	r3, [r3]
 1420 0012 DAB2     		uxtb	r2, r3
 1421 0014 7B68     		ldr	r3, [r7, #4]
 1422 0016 1A70     		strb	r2, [r3]
1245:.\Generated_Source\PSoC4/BLE_1.c ****     ptr[1u] = (uint8) (value >> 8u);
 1423              		.loc 1 1245 0
 1424 0018 7B68     		ldr	r3, [r7, #4]
 1425 001a 0133     		add	r3, r3, #1
 1426 001c BA1C     		add	r2, r7, #2
 1427 001e 1288     		ldrh	r2, [r2]
 1428 0020 120A     		lsr	r2, r2, #8
 1429 0022 92B2     		uxth	r2, r2
 1430 0024 D2B2     		uxtb	r2, r2
 1431 0026 1A70     		strb	r2, [r3]
1246:.\Generated_Source\PSoC4/BLE_1.c **** }
 1432              		.loc 1 1246 0
 1433 0028 BD46     		mov	sp, r7
 1434 002a 02B0     		add	sp, sp, #8
 1435              		@ sp needed
 1436 002c 80BD     		pop	{r7, pc}
 1437              		.cfi_endproc
 1438              	.LFE14:
 1439              		.size	CyBle_Set16ByPtr, .-CyBle_Set16ByPtr
 1440 002e C046     		.text
 1441              	.Letext0:
 1442              		.file 2 ".\\Generated_Source\\PSoC4\\cytypes.h"
 1443              		.file 3 ".\\Generated_Source\\PSoC4\\BLE_1_Stack.h"
 1444              		.file 4 ".\\Generated_Source\\PSoC4\\BLE_1_StackGap.h"
 1445              		.file 5 ".\\Generated_Source\\PSoC4\\BLE_1_StackGatt.h"
 1446              		.file 6 ".\\Generated_Source\\PSoC4\\BLE_1_StackGattDb.h"
 1447              		.file 7 ".\\Generated_Source\\PSoC4\\BLE_1.h"
 1448              		.file 8 ".\\Generated_Source\\PSoC4\\BLE_1_gatt.h"
 1449              		.file 9 ".\\Generated_Source\\PSoC4\\BLE_1_eventHandler.h"