ARM GAS  C:\Users\ilias\AppData\Local\Temp\ccbZWpbs.s 			page 1


   1              		.cpu cortex-m0
   2              		.fpu softvfp
   3              		.eabi_attribute 20, 1
   4              		.eabi_attribute 21, 1
   5              		.eabi_attribute 23, 3
   6              		.eabi_attribute 24, 1
   7              		.eabi_attribute 25, 1
   8              		.eabi_attribute 26, 1
   9              		.eabi_attribute 30, 6
  10              		.eabi_attribute 34, 0
  11              		.eabi_attribute 18, 4
  12              		.code	16
  13              		.file	"BLE_1.c"
  14              		.text
  15              	.Ltext0:
  16              		.cfi_sections	.debug_frame
  17              		.global	cyBle_initVar
  18              		.bss
  19              		.type	cyBle_initVar, %object
  20              		.size	cyBle_initVar, 1
  21              	cyBle_initVar:
  22 0000 00       		.space	1
  23              		.comm	cyBle_stackMemoryRam,2760,8
  24              		.global	cyBle_discoveryParam
  25              		.data
  26              		.align	2
  27              		.type	cyBle_discoveryParam, %object
  28              		.size	cyBle_discoveryParam, 16
  29              	cyBle_discoveryParam:
  30 0000 2000     		.short	32
  31 0002 6000     		.short	96
  32 0004 00       		.byte	0
  33 0005 00       		.byte	0
  34 0006 00       		.byte	0
  35 0007 00       		.byte	0
  36 0008 00       		.byte	0
  37 0009 00       		.byte	0
  38 000a 50       		.byte	80
  39 000b A0       		.byte	-96
  40 000c 00       		.byte	0
  41 000d 07       		.byte	7
  42 000e 00       		.byte	0
  43 000f 00       		.space	1
  44              		.global	cyBle_discoveryData
  45              		.align	2
  46              		.type	cyBle_discoveryData, %object
  47              		.size	cyBle_discoveryData, 32
  48              	cyBle_discoveryData:
  49 0010 02       		.byte	2
  50 0011 01       		.byte	1
  51 0012 06       		.byte	6
  52 0013 05       		.byte	5
  53 0014 08       		.byte	8
  54 0015 64       		.byte	100
  55 0016 61       		.byte	97
  56 0017 74       		.byte	116
  57 0018 61       		.byte	97
ARM GAS  C:\Users\ilias\AppData\Local\Temp\ccbZWpbs.s 			page 2


  58 0019 13       		.byte	19
  59 001a 21       		.byte	33
  60 001b FB       		.byte	-5
  61 001c 34       		.byte	52
  62 001d 9B       		.byte	-101
  63 001e 5F       		.byte	95
  64 001f 80       		.byte	-128
  65 0020 00       		.byte	0
  66 0021 00       		.byte	0
  67 0022 80       		.byte	-128
  68 0023 00       		.byte	0
  69 0024 10       		.byte	16
  70 0025 00       		.byte	0
  71 0026 00       		.byte	0
  72 0027 00       		.byte	0
  73 0028 00       		.byte	0
  74 0029 00       		.byte	0
  75 002a 00       		.byte	0
  76 002b 67       		.byte	103
  77 002c 05       		.byte	5
  78 002d 00       		.byte	0
  79 002e 00       		.byte	0
  80 002f 1D       		.byte	29
  81              		.global	cyBle_scanRspData
  82              		.bss
  83 0001 000000   		.align	2
  84              		.type	cyBle_scanRspData, %object
  85              		.size	cyBle_scanRspData, 32
  86              	cyBle_scanRspData:
  87 0004 00000000 		.space	32
  87      00000000 
  87      00000000 
  87      00000000 
  87      00000000 
  88              		.global	cyBle_discoveryModeInfo
  89              		.data
  90              		.align	2
  91              		.type	cyBle_discoveryModeInfo, %object
  92              		.size	cyBle_discoveryModeInfo, 20
  93              	cyBle_discoveryModeInfo:
  94 0030 02       		.byte	2
  95 0031 000000   		.space	3
  96 0034 00000000 		.word	cyBle_discoveryParam
  97 0038 00000000 		.word	cyBle_discoveryData
  98 003c 00000000 		.word	cyBle_scanRspData
  99 0040 0000     		.short	0
 100 0042 0000     		.space	2
 101              		.comm	cyBle_peerBonding,1,1
 102              		.comm	cyBle_pendingFlashWrite,1,1
 103              		.comm	CyBle_ApplCallback,4,4
 104              		.global	cyBle_deviceAddress
 105              		.align	2
 106              		.type	cyBle_deviceAddress, %object
 107              		.size	cyBle_deviceAddress, 7
 108              	cyBle_deviceAddress:
 109 0044 00       		.byte	0
 110 0045 00       		.byte	0
ARM GAS  C:\Users\ilias\AppData\Local\Temp\ccbZWpbs.s 			page 3


 111 0046 00       		.byte	0
 112 0047 50       		.byte	80
 113 0048 A0       		.byte	-96
 114 0049 00       		.byte	0
 115 004a 00       		.byte	0
 116              		.global	cyBle_sflashDeviceAddress
 117 004b 00       		.align	2
 118              		.type	cyBle_sflashDeviceAddress, %object
 119              		.size	cyBle_sflashDeviceAddress, 4
 120              	cyBle_sflashDeviceAddress:
 121 004c 00F2FF0F 		.word	268431872
 122              		.global	cyBle_StackFlashptr
 123              		.section	.rodata
 124              		.align	7
 125              		.type	cyBle_StackFlashptr, %object
 126              		.size	cyBle_StackFlashptr, 365
 127              	cyBle_StackFlashptr:
 128 0000 00000000 		.space	365
 128      00000000 
 128      00000000 
 128      00000000 
 128      00000000 
 129              		.section	.text.CyBle_Init,"ax",%progbits
 130              		.align	2
 131              		.global	CyBle_Init
 132              		.code	16
 133              		.thumb_func
 134              		.type	CyBle_Init, %function
 135              	CyBle_Init:
 136              	.LFB2:
 137              		.file 1 ".\\Generated_Source\\PSoC4\\BLE_1.c"
   1:.\Generated_Source\PSoC4/BLE_1.c **** /***************************************************************************//**
   2:.\Generated_Source\PSoC4/BLE_1.c **** * \file CYBLE.c
   3:.\Generated_Source\PSoC4/BLE_1.c **** * \version 2.30
   4:.\Generated_Source\PSoC4/BLE_1.c **** * 
   5:.\Generated_Source\PSoC4/BLE_1.c **** * \brief
   6:.\Generated_Source\PSoC4/BLE_1.c **** *  This file contains the source code for the Common APIs of the BLE Component.
   7:.\Generated_Source\PSoC4/BLE_1.c **** * 
   8:.\Generated_Source\PSoC4/BLE_1.c **** ********************************************************************************
   9:.\Generated_Source\PSoC4/BLE_1.c **** * \copyright
  10:.\Generated_Source\PSoC4/BLE_1.c **** * Copyright 2014-2015, Cypress Semiconductor Corporation.  All rights reserved.
  11:.\Generated_Source\PSoC4/BLE_1.c **** * You may use this file only in accordance with the license, terms, conditions,
  12:.\Generated_Source\PSoC4/BLE_1.c **** * disclaimers, and limitations in the end user license agreement accompanying
  13:.\Generated_Source\PSoC4/BLE_1.c **** * the software package with which this file was provided.
  14:.\Generated_Source\PSoC4/BLE_1.c **** *******************************************************************************/
  15:.\Generated_Source\PSoC4/BLE_1.c **** 
  16:.\Generated_Source\PSoC4/BLE_1.c **** #include "BLE_1_eventHandler.h"
  17:.\Generated_Source\PSoC4/BLE_1.c **** #include "BLE_1_HAL_PVT.h"
  18:.\Generated_Source\PSoC4/BLE_1.c **** #include <stdlib.h>
  19:.\Generated_Source\PSoC4/BLE_1.c **** 
  20:.\Generated_Source\PSoC4/BLE_1.c **** 
  21:.\Generated_Source\PSoC4/BLE_1.c **** /***************************************
  22:.\Generated_Source\PSoC4/BLE_1.c **** * Function Prototypes
  23:.\Generated_Source\PSoC4/BLE_1.c **** ***************************************/
  24:.\Generated_Source\PSoC4/BLE_1.c **** 
  25:.\Generated_Source\PSoC4/BLE_1.c **** #if(CYBLE_GATT_ROLE_SERVER)
  26:.\Generated_Source\PSoC4/BLE_1.c ****     #if(CYBLE_GAP_ROLE_PERIPHERAL)
ARM GAS  C:\Users\ilias\AppData\Local\Temp\ccbZWpbs.s 			page 4


  27:.\Generated_Source\PSoC4/BLE_1.c ****         static void CyBle_ChangeAdLocalName(const char8 name[], uint8 dest);
  28:.\Generated_Source\PSoC4/BLE_1.c ****     #endif /* (CYBLE_GAP_ROLE_PERIPHERAL) */
  29:.\Generated_Source\PSoC4/BLE_1.c **** #endif /* (CYBLE_GATT_ROLE_SERVER) */
  30:.\Generated_Source\PSoC4/BLE_1.c ****     
  31:.\Generated_Source\PSoC4/BLE_1.c **** 
  32:.\Generated_Source\PSoC4/BLE_1.c **** /***************************************
  33:.\Generated_Source\PSoC4/BLE_1.c **** * Global Variables
  34:.\Generated_Source\PSoC4/BLE_1.c **** ***************************************/
  35:.\Generated_Source\PSoC4/BLE_1.c **** 
  36:.\Generated_Source\PSoC4/BLE_1.c **** /* Indicates whether the BLE has been initialized. The variable is initialized to
  37:.\Generated_Source\PSoC4/BLE_1.c ****    0 and set to 1 the first time CyBle_Start() is called. This allows the component
  38:.\Generated_Source\PSoC4/BLE_1.c ****    to restart without reinitialization after the first call to the CyBle_Start() 
  39:.\Generated_Source\PSoC4/BLE_1.c ****    routine. If reinitialization of the component is required, the variable should 
  40:.\Generated_Source\PSoC4/BLE_1.c ****    be set to 0 before the CyBle_Start() routine is called. Alternatively, the BLE
  41:.\Generated_Source\PSoC4/BLE_1.c ****    can be reinitialized by calling the CyBle_Init() function.
  42:.\Generated_Source\PSoC4/BLE_1.c **** */
  43:.\Generated_Source\PSoC4/BLE_1.c **** uint8  cyBle_initVar = 0u;
  44:.\Generated_Source\PSoC4/BLE_1.c **** 
  45:.\Generated_Source\PSoC4/BLE_1.c **** /* Allocate RAM memory for stack. This buffer could be reused by application when 
  46:.\Generated_Source\PSoC4/BLE_1.c ****    BLE component is stopped. For export mode buffer is allocated in heap.
  47:.\Generated_Source\PSoC4/BLE_1.c **** */
  48:.\Generated_Source\PSoC4/BLE_1.c **** #if(CYBLE_SHARING_MODE_EXPORT)
  49:.\Generated_Source\PSoC4/BLE_1.c ****     
  50:.\Generated_Source\PSoC4/BLE_1.c **** uint8 *cyBle_stackMemoryRam = NULL;
  51:.\Generated_Source\PSoC4/BLE_1.c **** 
  52:.\Generated_Source\PSoC4/BLE_1.c **** #else
  53:.\Generated_Source\PSoC4/BLE_1.c **** 
  54:.\Generated_Source\PSoC4/BLE_1.c **** CYBLE_CYALIGNED_BEGIN uint8 cyBle_stackMemoryRam[CYBLE_STACK_RAM_SIZE] CYBLE_CYALIGNED_END;
  55:.\Generated_Source\PSoC4/BLE_1.c **** 
  56:.\Generated_Source\PSoC4/BLE_1.c **** #endif  /* CYBLE_SHARING_MODE_EXPORT */
  57:.\Generated_Source\PSoC4/BLE_1.c **** 
  58:.\Generated_Source\PSoC4/BLE_1.c **** #if(CYBLE_GAP_ROLE_PERIPHERAL || CYBLE_GAP_ROLE_BROADCASTER)
  59:.\Generated_Source\PSoC4/BLE_1.c **** 
  60:.\Generated_Source\PSoC4/BLE_1.c **** CYBLE_GAPP_DISC_PARAM_T cyBle_discoveryParam =
  61:.\Generated_Source\PSoC4/BLE_1.c **** {
  62:.\Generated_Source\PSoC4/BLE_1.c ****     0x0020u,    /* uint16 advertising_interval_min */
  63:.\Generated_Source\PSoC4/BLE_1.c ****     0x0060u,    /* uint16 advertising_interval_max */
  64:.\Generated_Source\PSoC4/BLE_1.c ****     CYBLE_GAPP_CONNECTABLE_UNDIRECTED_ADV, /* uint8 advertising_type */
  65:.\Generated_Source\PSoC4/BLE_1.c ****     0x00u,      /* uint8 own_addr_type */
  66:.\Generated_Source\PSoC4/BLE_1.c ****     0x00u,      /* uint8 direct_addr_type */
  67:.\Generated_Source\PSoC4/BLE_1.c ****     {0x00u, 0x00u, 0x00u, 0x50u, 0xA0u, 0x00u}, /* uint8* direct_addr */
  68:.\Generated_Source\PSoC4/BLE_1.c ****     0x07u,      /* uint8 advertising_channel_map */
  69:.\Generated_Source\PSoC4/BLE_1.c ****     0x00u,      /* uint8 advertising_filter_policy */
  70:.\Generated_Source\PSoC4/BLE_1.c **** };
  71:.\Generated_Source\PSoC4/BLE_1.c **** 
  72:.\Generated_Source\PSoC4/BLE_1.c **** CYBLE_GAPP_DISC_DATA_T cyBle_discoveryData =
  73:.\Generated_Source\PSoC4/BLE_1.c **** {
  74:.\Generated_Source\PSoC4/BLE_1.c ****     { 0x02u, 0x01u, 0x06u, 0x05u, 0x08u, 0x64u, 0x61u,
  75:.\Generated_Source\PSoC4/BLE_1.c ****     0x74u, 0x61u, 0x13u, 0x21u, 0xFBu, 0x34u, 0x9Bu, 0x5Fu,
  76:.\Generated_Source\PSoC4/BLE_1.c ****     0x80u, 0x00u, 0x00u, 0x80u, 0x00u, 0x10u, 0x00u, 0x00u,
  77:.\Generated_Source\PSoC4/BLE_1.c ****     0x00u, 0x00u, 0x00u, 0x00u, 0x67u, 0x05u, 0x00u, 0x00u }, /* uint8 advertising_data[CYBLE_MAX_A
  78:.\Generated_Source\PSoC4/BLE_1.c ****     0x1Du,      /* uint8 adv_data_length */
  79:.\Generated_Source\PSoC4/BLE_1.c **** };
  80:.\Generated_Source\PSoC4/BLE_1.c **** 
  81:.\Generated_Source\PSoC4/BLE_1.c **** CYBLE_GAPP_SCAN_RSP_DATA_T cyBle_scanRspData =
  82:.\Generated_Source\PSoC4/BLE_1.c **** {
  83:.\Generated_Source\PSoC4/BLE_1.c ****     { 0x00u, 0x00u, 0x00u, 0x00u, 0x00u, 0x00u, 0x00u,
ARM GAS  C:\Users\ilias\AppData\Local\Temp\ccbZWpbs.s 			page 5


  84:.\Generated_Source\PSoC4/BLE_1.c ****     0x00u, 0x00u, 0x00u, 0x00u, 0x00u, 0x00u, 0x00u, 0x00u,
  85:.\Generated_Source\PSoC4/BLE_1.c ****     0x00u, 0x00u, 0x00u, 0x00u, 0x00u, 0x00u, 0x00u, 0x00u,
  86:.\Generated_Source\PSoC4/BLE_1.c ****     0x00u, 0x00u, 0x00u, 0x00u, 0x00u, 0x00u, 0x00u, 0x00u }, /* uint8 scan_rsp_data[CYBLE_MAX_SCAN
  87:.\Generated_Source\PSoC4/BLE_1.c ****     0x00u,      /* uint8 scan_rsp_data_length */
  88:.\Generated_Source\PSoC4/BLE_1.c **** };
  89:.\Generated_Source\PSoC4/BLE_1.c **** 
  90:.\Generated_Source\PSoC4/BLE_1.c **** /* This variable of type CYBLE_GAPP_DISC_MODE_INFO_T is present only when 
  91:.\Generated_Source\PSoC4/BLE_1.c ****    the BLE component is configured for Peripheral GAP role or Central and 
  92:.\Generated_Source\PSoC4/BLE_1.c ****    Peripheral GAP role. It contains the Advertisement settings and also the 
  93:.\Generated_Source\PSoC4/BLE_1.c ****    Advertisement and Scan response data parameters entered in the customizer.
  94:.\Generated_Source\PSoC4/BLE_1.c ****    This variable can be used by advanced users to change Advertisement settings,
  95:.\Generated_Source\PSoC4/BLE_1.c ****    Advertisement or Scan response data in runtime. 
  96:.\Generated_Source\PSoC4/BLE_1.c **** */
  97:.\Generated_Source\PSoC4/BLE_1.c **** CYBLE_GAPP_DISC_MODE_INFO_T cyBle_discoveryModeInfo =
  98:.\Generated_Source\PSoC4/BLE_1.c **** {
  99:.\Generated_Source\PSoC4/BLE_1.c ****     0x02u,      /* uint8 discMode */
 100:.\Generated_Source\PSoC4/BLE_1.c ****     &cyBle_discoveryParam,
 101:.\Generated_Source\PSoC4/BLE_1.c ****     &cyBle_discoveryData,
 102:.\Generated_Source\PSoC4/BLE_1.c ****     &cyBle_scanRspData,
 103:.\Generated_Source\PSoC4/BLE_1.c ****     0x0000u,    /* uint16 advTo */
 104:.\Generated_Source\PSoC4/BLE_1.c **** };
 105:.\Generated_Source\PSoC4/BLE_1.c **** 
 106:.\Generated_Source\PSoC4/BLE_1.c **** 
 107:.\Generated_Source\PSoC4/BLE_1.c **** #endif /* CYBLE_GAP_ROLE_PERIPHERAL || CYBLE_GAP_ROLE_BROADCASTER */
 108:.\Generated_Source\PSoC4/BLE_1.c **** 
 109:.\Generated_Source\PSoC4/BLE_1.c **** #if(CYBLE_GAP_ROLE_CENTRAL)
 110:.\Generated_Source\PSoC4/BLE_1.c ****     
 111:.\Generated_Source\PSoC4/BLE_1.c **** CYBLE_GAPC_CONN_PARAM_T cyBle_connectionParameters;
 112:.\Generated_Source\PSoC4/BLE_1.c **** 
 113:.\Generated_Source\PSoC4/BLE_1.c **** /* Connecting timeout is set to 30 seconds in CyBle_Init function. 
 114:.\Generated_Source\PSoC4/BLE_1.c ****    Not zero value starts timer in CyBle_GapcConnectDevice API.
 115:.\Generated_Source\PSoC4/BLE_1.c **** */
 116:.\Generated_Source\PSoC4/BLE_1.c **** uint16 cyBle_connectingTimeout;
 117:.\Generated_Source\PSoC4/BLE_1.c ****     
 118:.\Generated_Source\PSoC4/BLE_1.c **** #endif /* CYBLE_GAP_ROLE_CENTRAL */
 119:.\Generated_Source\PSoC4/BLE_1.c **** 
 120:.\Generated_Source\PSoC4/BLE_1.c **** #if(CYBLE_GAP_ROLE_CENTRAL || CYBLE_GAP_ROLE_OBSERVER)
 121:.\Generated_Source\PSoC4/BLE_1.c ****     
 122:.\Generated_Source\PSoC4/BLE_1.c **** 
 123:.\Generated_Source\PSoC4/BLE_1.c ****     
 124:.\Generated_Source\PSoC4/BLE_1.c **** #endif /* CYBLE_GAP_ROLE_CENTRAL || CYBLE_GAP_ROLE_OBSERVER */
 125:.\Generated_Source\PSoC4/BLE_1.c **** 
 126:.\Generated_Source\PSoC4/BLE_1.c **** #if((CYBLE_GAP_ROLE_PERIPHERAL || CYBLE_GAP_ROLE_CENTRAL) && (CYBLE_BONDING_REQUIREMENT == CYBLE_BO
 127:.\Generated_Source\PSoC4/BLE_1.c **** 
 128:.\Generated_Source\PSoC4/BLE_1.c **** uint8 cyBle_peerBonding;
 129:.\Generated_Source\PSoC4/BLE_1.c **** uint8 cyBle_pendingFlashWrite;
 130:.\Generated_Source\PSoC4/BLE_1.c ****     
 131:.\Generated_Source\PSoC4/BLE_1.c **** #endif  /* (CYBLE_BONDING_REQUIREMENT == CYBLE_BONDING_YES) */
 132:.\Generated_Source\PSoC4/BLE_1.c **** 
 133:.\Generated_Source\PSoC4/BLE_1.c **** CYBLE_CALLBACK_T CyBle_ApplCallback;
 134:.\Generated_Source\PSoC4/BLE_1.c **** CYBLE_GAP_BD_ADDR_T cyBle_deviceAddress = {{0x00u, 0x00u, 0x00u, 0x50u, 0xA0u, 0x00u}, 0x00u };
 135:.\Generated_Source\PSoC4/BLE_1.c **** CYBLE_GAP_BD_ADDR_T * cyBle_sflashDeviceAddress = CYBLE_SFLASH_DEVICE_ADDRESS_PTR;
 136:.\Generated_Source\PSoC4/BLE_1.c **** 
 137:.\Generated_Source\PSoC4/BLE_1.c **** #if(CYBLE_MODE_PROFILE)
 138:.\Generated_Source\PSoC4/BLE_1.c ****     #if defined(__ARMCC_VERSION)
 139:.\Generated_Source\PSoC4/BLE_1.c ****         CY_ALIGN(CYDEV_FLS_ROW_SIZE) const uint8 cyBle_StackFlashptr[CYBLE_STACK_FLASH_SIZE] = {0u}
 140:.\Generated_Source\PSoC4/BLE_1.c ****     #elif defined (__GNUC__)
ARM GAS  C:\Users\ilias\AppData\Local\Temp\ccbZWpbs.s 			page 6


 141:.\Generated_Source\PSoC4/BLE_1.c ****         const uint8 cyBle_StackFlashptr[CYBLE_STACK_FLASH_SIZE] CY_ALIGN(CYDEV_FLS_ROW_SIZE) = {0u}
 142:.\Generated_Source\PSoC4/BLE_1.c ****     #elif defined (__ICCARM__)
 143:.\Generated_Source\PSoC4/BLE_1.c ****         #pragma data_alignment=CY_FLASH_SIZEOF_ROW
 144:.\Generated_Source\PSoC4/BLE_1.c ****         const uint8 cyBle_StackFlashptr[CYBLE_STACK_FLASH_SIZE] = {0u};
 145:.\Generated_Source\PSoC4/BLE_1.c ****     #endif  /* (__ARMCC_VERSION) */
 146:.\Generated_Source\PSoC4/BLE_1.c **** #endif /* (CYBLE_MODE_PROFILE) */
 147:.\Generated_Source\PSoC4/BLE_1.c **** 
 148:.\Generated_Source\PSoC4/BLE_1.c **** 
 149:.\Generated_Source\PSoC4/BLE_1.c **** /******************************************************************************
 150:.\Generated_Source\PSoC4/BLE_1.c **** * Function Name: CyBle_Init
 151:.\Generated_Source\PSoC4/BLE_1.c **** ***************************************************************************//**
 152:.\Generated_Source\PSoC4/BLE_1.c **** *
 153:.\Generated_Source\PSoC4/BLE_1.c **** *   Initializes the component with the parameters set in the customizer.
 154:.\Generated_Source\PSoC4/BLE_1.c **** * 
 155:.\Generated_Source\PSoC4/BLE_1.c **** *  \return
 156:.\Generated_Source\PSoC4/BLE_1.c **** *   None
 157:.\Generated_Source\PSoC4/BLE_1.c **** * 
 158:.\Generated_Source\PSoC4/BLE_1.c **** ******************************************************************************/
 159:.\Generated_Source\PSoC4/BLE_1.c **** void CyBle_Init(void)
 160:.\Generated_Source\PSoC4/BLE_1.c **** {
 138              		.loc 1 160 0
 139              		.cfi_startproc
 140 0000 80B5     		push	{r7, lr}
 141              		.cfi_def_cfa_offset 8
 142              		.cfi_offset 7, -8
 143              		.cfi_offset 14, -4
 144 0002 00AF     		add	r7, sp, #0
 145              		.cfi_def_cfa_register 7
 161:.\Generated_Source\PSoC4/BLE_1.c ****     cyBle_eventHandlerFlag = 0u;
 146              		.loc 1 161 0
 147 0004 094B     		ldr	r3, .L2
 148 0006 0022     		mov	r2, #0
 149 0008 1A70     		strb	r2, [r3]
 162:.\Generated_Source\PSoC4/BLE_1.c ****     cyBle_busyStatus = CYBLE_STACK_STATE_FREE;
 150              		.loc 1 162 0
 151 000a 094B     		ldr	r3, .L2+4
 152 000c 0022     		mov	r2, #0
 153 000e 1A70     		strb	r2, [r3]
 163:.\Generated_Source\PSoC4/BLE_1.c **** 
 164:.\Generated_Source\PSoC4/BLE_1.c ****     #if(CYBLE_GAP_ROLE_PERIPHERAL || CYBLE_GAP_ROLE_BROADCASTER) 
 165:.\Generated_Source\PSoC4/BLE_1.c ****         cyBle_advertisingIntervalType = CYBLE_ADVERTISING_FAST; 
 154              		.loc 1 165 0
 155 0010 084B     		ldr	r3, .L2+8
 156 0012 0022     		mov	r2, #0
 157 0014 1A70     		strb	r2, [r3]
 166:.\Generated_Source\PSoC4/BLE_1.c ****     #endif /* (CYBLE_GAP_ROLE_PERIPHERAL || CYBLE_GAP_ROLE_BROADCASTER)  */
 167:.\Generated_Source\PSoC4/BLE_1.c ****     #if(CYBLE_GAP_ROLE_CENTRAL || CYBLE_GAP_ROLE_OBSERVER)
 168:.\Generated_Source\PSoC4/BLE_1.c ****         cyBle_scanningIntervalType = CYBLE_SCANNING_FAST; 
 169:.\Generated_Source\PSoC4/BLE_1.c ****     #endif /* (CYBLE_GAP_ROLE_CENTRAL || CYBLE_GAP_ROLE_OBSERVER) */
 170:.\Generated_Source\PSoC4/BLE_1.c ****         
 171:.\Generated_Source\PSoC4/BLE_1.c ****     /* Init default connection parameters. 
 172:.\Generated_Source\PSoC4/BLE_1.c ****        Application may change it before initiating a connection */
 173:.\Generated_Source\PSoC4/BLE_1.c ****     #if(CYBLE_GAP_ROLE_CENTRAL)
 174:.\Generated_Source\PSoC4/BLE_1.c ****         cyBle_connectionParameters.scanIntv = cyBle_discoveryInfo.scanIntv;
 175:.\Generated_Source\PSoC4/BLE_1.c ****         cyBle_connectionParameters.scanWindow = cyBle_discoveryInfo.scanWindow;
 176:.\Generated_Source\PSoC4/BLE_1.c ****         cyBle_connectionParameters.ownAddrType = cyBle_discoveryInfo.ownAddrType;
 177:.\Generated_Source\PSoC4/BLE_1.c ****         cyBle_connectionParameters.initiatorFilterPolicy = cyBle_discoveryInfo.scanFilterPolicy;
ARM GAS  C:\Users\ilias\AppData\Local\Temp\ccbZWpbs.s 			page 7


 178:.\Generated_Source\PSoC4/BLE_1.c ****         cyBle_connectionParameters.connIntvMin = CYBLE_GAPC_CONNECTION_INTERVAL_MIN;
 179:.\Generated_Source\PSoC4/BLE_1.c ****         cyBle_connectionParameters.connIntvMax = CYBLE_GAPC_CONNECTION_INTERVAL_MAX;
 180:.\Generated_Source\PSoC4/BLE_1.c ****         cyBle_connectionParameters.connLatency = CYBLE_GAPC_CONNECTION_SLAVE_LATENCY;
 181:.\Generated_Source\PSoC4/BLE_1.c ****         cyBle_connectionParameters.supervisionTO = CYBLE_GAPC_CONNECTION_TIME_OUT;
 182:.\Generated_Source\PSoC4/BLE_1.c ****         cyBle_connectionParameters.minCeLength = 0x0000u;
 183:.\Generated_Source\PSoC4/BLE_1.c ****         cyBle_connectionParameters.maxCeLength = 0xFFFFu;
 184:.\Generated_Source\PSoC4/BLE_1.c ****         
 185:.\Generated_Source\PSoC4/BLE_1.c ****         cyBle_connectingTimeout = CYBLE_GAPC_CONNECTING_TIMEOUT;
 186:.\Generated_Source\PSoC4/BLE_1.c ****     #endif /* CYBLE_GAP_ROLE_CENTRAL */
 187:.\Generated_Source\PSoC4/BLE_1.c **** 
 188:.\Generated_Source\PSoC4/BLE_1.c ****     CyBle_ServiceInit();
 158              		.loc 1 188 0
 159 0016 FFF7FEFF 		bl	CyBle_ServiceInit
 189:.\Generated_Source\PSoC4/BLE_1.c **** 
 190:.\Generated_Source\PSoC4/BLE_1.c ****     #if((CYBLE_GAP_ROLE_PERIPHERAL || CYBLE_GAP_ROLE_CENTRAL) && (CYBLE_BONDING_REQUIREMENT == CYBL
 191:.\Generated_Source\PSoC4/BLE_1.c ****         cyBle_pendingFlashWrite = 0u;
 160              		.loc 1 191 0
 161 001a 074B     		ldr	r3, .L2+12
 162 001c 0022     		mov	r2, #0
 163 001e 1A70     		strb	r2, [r3]
 192:.\Generated_Source\PSoC4/BLE_1.c ****         cyBle_peerBonding = CYBLE_GAP_BONDING_NONE;
 164              		.loc 1 192 0
 165 0020 064B     		ldr	r3, .L2+16
 166 0022 0022     		mov	r2, #0
 167 0024 1A70     		strb	r2, [r3]
 193:.\Generated_Source\PSoC4/BLE_1.c ****     #endif  /* (CYBLE_BONDING_REQUIREMENT == CYBLE_BONDING_YES) */
 194:.\Generated_Source\PSoC4/BLE_1.c **** 
 195:.\Generated_Source\PSoC4/BLE_1.c **** }
 168              		.loc 1 195 0
 169 0026 BD46     		mov	sp, r7
 170              		@ sp needed
 171 0028 80BD     		pop	{r7, pc}
 172              	.L3:
 173 002a C046     		.align	2
 174              	.L2:
 175 002c 00000000 		.word	cyBle_eventHandlerFlag
 176 0030 00000000 		.word	cyBle_busyStatus
 177 0034 00000000 		.word	cyBle_advertisingIntervalType
 178 0038 00000000 		.word	cyBle_pendingFlashWrite
 179 003c 00000000 		.word	cyBle_peerBonding
 180              		.cfi_endproc
 181              	.LFE2:
 182              		.size	CyBle_Init, .-CyBle_Init
 183              		.section	.text.CyBle_ServiceInit,"ax",%progbits
 184              		.align	2
 185              		.global	CyBle_ServiceInit
 186              		.code	16
 187              		.thumb_func
 188              		.type	CyBle_ServiceInit, %function
 189              	CyBle_ServiceInit:
 190              	.LFB3:
 196:.\Generated_Source\PSoC4/BLE_1.c **** 
 197:.\Generated_Source\PSoC4/BLE_1.c **** 
 198:.\Generated_Source\PSoC4/BLE_1.c **** /******************************************************************************
 199:.\Generated_Source\PSoC4/BLE_1.c **** * Function Name: CyBle_ServiceInit
 200:.\Generated_Source\PSoC4/BLE_1.c **** ***************************************************************************//**
 201:.\Generated_Source\PSoC4/BLE_1.c **** * 
ARM GAS  C:\Users\ilias\AppData\Local\Temp\ccbZWpbs.s 			page 8


 202:.\Generated_Source\PSoC4/BLE_1.c **** *  Initializes all included services.
 203:.\Generated_Source\PSoC4/BLE_1.c **** * 
 204:.\Generated_Source\PSoC4/BLE_1.c **** * \return
 205:.\Generated_Source\PSoC4/BLE_1.c **** *  None
 206:.\Generated_Source\PSoC4/BLE_1.c **** * 
 207:.\Generated_Source\PSoC4/BLE_1.c **** ******************************************************************************/
 208:.\Generated_Source\PSoC4/BLE_1.c **** void CyBle_ServiceInit(void)
 209:.\Generated_Source\PSoC4/BLE_1.c **** {
 191              		.loc 1 209 0
 192              		.cfi_startproc
 193 0000 80B5     		push	{r7, lr}
 194              		.cfi_def_cfa_offset 8
 195              		.cfi_offset 7, -8
 196              		.cfi_offset 14, -4
 197 0002 00AF     		add	r7, sp, #0
 198              		.cfi_def_cfa_register 7
 210:.\Generated_Source\PSoC4/BLE_1.c ****     #if(CYBLE_GATT_ROLE_CLIENT)
 211:.\Generated_Source\PSoC4/BLE_1.c ****         (void)memset(&cyBle_gapc, 0, sizeof(cyBle_gapc));
 212:.\Generated_Source\PSoC4/BLE_1.c ****         (void)memset(&cyBle_gattc, 0, sizeof(cyBle_gattc));
 213:.\Generated_Source\PSoC4/BLE_1.c ****     #endif /* CYBLE_GATT_ROLE_CLIENT */
 214:.\Generated_Source\PSoC4/BLE_1.c ****     
 215:.\Generated_Source\PSoC4/BLE_1.c **** 	#ifdef CYBLE_ANCS
 216:.\Generated_Source\PSoC4/BLE_1.c ****         CyBle_AncsInit();
 217:.\Generated_Source\PSoC4/BLE_1.c ****     #endif /* CYBLE_ANCS */
 218:.\Generated_Source\PSoC4/BLE_1.c **** 	
 219:.\Generated_Source\PSoC4/BLE_1.c ****     #ifdef CYBLE_ANS
 220:.\Generated_Source\PSoC4/BLE_1.c ****         CyBle_AnsInit();
 221:.\Generated_Source\PSoC4/BLE_1.c ****     #endif /* CYBLE_ANS */
 222:.\Generated_Source\PSoC4/BLE_1.c ****     
 223:.\Generated_Source\PSoC4/BLE_1.c ****     #ifdef CYBLE_BAS
 224:.\Generated_Source\PSoC4/BLE_1.c ****         CyBle_BasInit();
 225:.\Generated_Source\PSoC4/BLE_1.c ****     #endif /* CYBLE_BAS */
 226:.\Generated_Source\PSoC4/BLE_1.c ****     
 227:.\Generated_Source\PSoC4/BLE_1.c ****     #ifdef CYBLE_BLS
 228:.\Generated_Source\PSoC4/BLE_1.c ****         CyBle_BlsInit();
 229:.\Generated_Source\PSoC4/BLE_1.c ****     #endif /* CYBLE_BLS */
 230:.\Generated_Source\PSoC4/BLE_1.c ****     
 231:.\Generated_Source\PSoC4/BLE_1.c ****     #ifdef CYBLE_BMS
 232:.\Generated_Source\PSoC4/BLE_1.c ****         CyBle_BmsInit();
 233:.\Generated_Source\PSoC4/BLE_1.c ****     #endif /* CYBLE_BMS */
 234:.\Generated_Source\PSoC4/BLE_1.c ****     
 235:.\Generated_Source\PSoC4/BLE_1.c ****     #ifdef CYBLE_CGMS
 236:.\Generated_Source\PSoC4/BLE_1.c ****         CyBle_CgmsInit();
 237:.\Generated_Source\PSoC4/BLE_1.c ****     #endif /* CYBLE_CGMS */
 238:.\Generated_Source\PSoC4/BLE_1.c **** 
 239:.\Generated_Source\PSoC4/BLE_1.c ****     #ifdef CYBLE_CPS
 240:.\Generated_Source\PSoC4/BLE_1.c ****         CyBle_CpsInit();
 241:.\Generated_Source\PSoC4/BLE_1.c ****     #endif /* CYBLE_CPS */
 242:.\Generated_Source\PSoC4/BLE_1.c **** 
 243:.\Generated_Source\PSoC4/BLE_1.c ****     #ifdef CYBLE_CSCS
 244:.\Generated_Source\PSoC4/BLE_1.c ****         CyBle_CscsInit();
 245:.\Generated_Source\PSoC4/BLE_1.c ****     #endif /* CYBLE_CSCS */
 246:.\Generated_Source\PSoC4/BLE_1.c ****     
 247:.\Generated_Source\PSoC4/BLE_1.c ****     #ifdef CYBLE_CTS
 248:.\Generated_Source\PSoC4/BLE_1.c ****         CyBle_CtsInit();
 249:.\Generated_Source\PSoC4/BLE_1.c ****     #endif /* CYBLE_CTS */
 250:.\Generated_Source\PSoC4/BLE_1.c **** 
ARM GAS  C:\Users\ilias\AppData\Local\Temp\ccbZWpbs.s 			page 9


 251:.\Generated_Source\PSoC4/BLE_1.c ****     #ifdef CYBLE_DIS
 252:.\Generated_Source\PSoC4/BLE_1.c ****         CyBle_DisInit();
 253:.\Generated_Source\PSoC4/BLE_1.c ****     #endif /* CYBLE_DIS */
 254:.\Generated_Source\PSoC4/BLE_1.c **** 
 255:.\Generated_Source\PSoC4/BLE_1.c ****     #ifdef CYBLE_ESS
 256:.\Generated_Source\PSoC4/BLE_1.c ****         CyBle_EssInit();
 257:.\Generated_Source\PSoC4/BLE_1.c ****     #endif /* CYBLE_ESS */
 258:.\Generated_Source\PSoC4/BLE_1.c ****     
 259:.\Generated_Source\PSoC4/BLE_1.c ****     #ifdef CYBLE_GLS
 260:.\Generated_Source\PSoC4/BLE_1.c ****         CyBle_GlsInit();
 261:.\Generated_Source\PSoC4/BLE_1.c ****     #endif /* CYBLE_GLS */
 262:.\Generated_Source\PSoC4/BLE_1.c ****     
 263:.\Generated_Source\PSoC4/BLE_1.c ****     #ifdef CYBLE_CUSTOM
 264:.\Generated_Source\PSoC4/BLE_1.c ****         CyBle_CustomInit();
 199              		.loc 1 264 0
 200 0004 FFF7FEFF 		bl	CyBle_CustomInit
 265:.\Generated_Source\PSoC4/BLE_1.c ****     #endif /* CYBLE_CUSTOM */
 266:.\Generated_Source\PSoC4/BLE_1.c **** 
 267:.\Generated_Source\PSoC4/BLE_1.c ****     #ifdef CYBLE_HIDS
 268:.\Generated_Source\PSoC4/BLE_1.c ****         CyBle_HidsInit();
 269:.\Generated_Source\PSoC4/BLE_1.c ****     #endif /* CYBLE_HIDS */
 270:.\Generated_Source\PSoC4/BLE_1.c **** 
 271:.\Generated_Source\PSoC4/BLE_1.c ****     #ifdef CYBLE_HRS
 272:.\Generated_Source\PSoC4/BLE_1.c ****         CyBle_HrsInit();
 273:.\Generated_Source\PSoC4/BLE_1.c ****     #endif /* CYBLE_HRS */
 274:.\Generated_Source\PSoC4/BLE_1.c ****     
 275:.\Generated_Source\PSoC4/BLE_1.c ****     #ifdef CYBLE_HTS
 276:.\Generated_Source\PSoC4/BLE_1.c ****         CyBle_HtsInit();
 277:.\Generated_Source\PSoC4/BLE_1.c ****     #endif /* CYBLE_RSCS */
 278:.\Generated_Source\PSoC4/BLE_1.c **** 
 279:.\Generated_Source\PSoC4/BLE_1.c ****     #ifdef CYBLE_IAS
 280:.\Generated_Source\PSoC4/BLE_1.c ****         CyBle_IasInit();
 281:.\Generated_Source\PSoC4/BLE_1.c ****     #endif /* CYBLE_IAS */
 282:.\Generated_Source\PSoC4/BLE_1.c **** 
 283:.\Generated_Source\PSoC4/BLE_1.c ****     #ifdef CYBLE_LLS
 284:.\Generated_Source\PSoC4/BLE_1.c ****         CyBle_LlsInit();
 285:.\Generated_Source\PSoC4/BLE_1.c ****     #endif /* CYBLE_LLS */
 286:.\Generated_Source\PSoC4/BLE_1.c **** 
 287:.\Generated_Source\PSoC4/BLE_1.c ****     #ifdef CYBLE_RTUS
 288:.\Generated_Source\PSoC4/BLE_1.c ****         CyBle_RtusInit();
 289:.\Generated_Source\PSoC4/BLE_1.c ****     #endif /* CYBLE_RTUS */
 290:.\Generated_Source\PSoC4/BLE_1.c **** 
 291:.\Generated_Source\PSoC4/BLE_1.c ****     #ifdef CYBLE_LNS
 292:.\Generated_Source\PSoC4/BLE_1.c ****         CyBle_LnsInit();
 293:.\Generated_Source\PSoC4/BLE_1.c ****     #endif /* CYBLE_LNS */
 294:.\Generated_Source\PSoC4/BLE_1.c ****     
 295:.\Generated_Source\PSoC4/BLE_1.c ****     #ifdef CYBLE_PASS
 296:.\Generated_Source\PSoC4/BLE_1.c ****         CyBle_PassInit();
 297:.\Generated_Source\PSoC4/BLE_1.c ****     #endif /* CYBLE_PASS */
 298:.\Generated_Source\PSoC4/BLE_1.c ****     
 299:.\Generated_Source\PSoC4/BLE_1.c ****     #ifdef CYBLE_RSCS
 300:.\Generated_Source\PSoC4/BLE_1.c ****         CyBle_RscsInit();
 301:.\Generated_Source\PSoC4/BLE_1.c ****     #endif /* CYBLE_RSCS */
 302:.\Generated_Source\PSoC4/BLE_1.c **** 
 303:.\Generated_Source\PSoC4/BLE_1.c ****     #ifdef CYBLE_SCPS
 304:.\Generated_Source\PSoC4/BLE_1.c ****         CyBle_ScpsInit();
 305:.\Generated_Source\PSoC4/BLE_1.c ****     #endif /* CYBLE_SCPS */
ARM GAS  C:\Users\ilias\AppData\Local\Temp\ccbZWpbs.s 			page 10


 306:.\Generated_Source\PSoC4/BLE_1.c ****     
 307:.\Generated_Source\PSoC4/BLE_1.c ****     #ifdef CYBLE_TPS
 308:.\Generated_Source\PSoC4/BLE_1.c ****         CyBle_TpsInit();
 309:.\Generated_Source\PSoC4/BLE_1.c ****     #endif /* CYBLE_TPS */
 310:.\Generated_Source\PSoC4/BLE_1.c ****     
 311:.\Generated_Source\PSoC4/BLE_1.c ****     #ifdef CYBLE_UDS
 312:.\Generated_Source\PSoC4/BLE_1.c ****         CyBle_UdsInit();
 313:.\Generated_Source\PSoC4/BLE_1.c ****     #endif /* CYBLE_UDS */
 314:.\Generated_Source\PSoC4/BLE_1.c **** 
 315:.\Generated_Source\PSoC4/BLE_1.c ****     #ifdef CYBLE_WPTS
 316:.\Generated_Source\PSoC4/BLE_1.c ****         CyBle_WptsInit();
 317:.\Generated_Source\PSoC4/BLE_1.c ****     #endif /* CYBLE_WPTS */
 318:.\Generated_Source\PSoC4/BLE_1.c **** 
 319:.\Generated_Source\PSoC4/BLE_1.c ****     #ifdef CYBLE_WSS
 320:.\Generated_Source\PSoC4/BLE_1.c ****         CyBle_WssInit();
 321:.\Generated_Source\PSoC4/BLE_1.c ****     #endif /* CYBLE_WSS */
 322:.\Generated_Source\PSoC4/BLE_1.c **** }
 201              		.loc 1 322 0
 202 0008 BD46     		mov	sp, r7
 203              		@ sp needed
 204 000a 80BD     		pop	{r7, pc}
 205              		.cfi_endproc
 206              	.LFE3:
 207              		.size	CyBle_ServiceInit, .-CyBle_ServiceInit
 208              		.section	.rodata
 209 016d 000000   		.align	2
 210              	.LC0:
 211 0170 2400     		.short	36
 212 0172 03       		.byte	3
 213 0173 00       		.space	1
 214 0174 1C00     		.short	28
 215 0176 01       		.byte	1
 216 0177 00       		.space	1
 217 0178 3000     		.short	48
 218 017a 01       		.byte	1
 219 017b 00       		.space	1
 220 017c 4800     		.short	72
 221 017e 01       		.byte	1
 222 017f 00       		.space	1
 223 0180 2400     		.short	36
 224 0182 01       		.byte	1
 225 0183 00       		.space	1
 226 0184 2400     		.short	36
 227 0186 01       		.byte	1
 228 0187 00       		.space	1
 229 0188 00000000 		.section	.text.CyBle_Start,"ax",%progbits
 229      00000000 
 229      00000000 
 229      00000000 
 229      00000000 
 230              		.align	2
 231              		.global	CyBle_Start
 232              		.code	16
 233              		.thumb_func
 234              		.type	CyBle_Start, %function
 235              	CyBle_Start:
 236              	.LFB4:
ARM GAS  C:\Users\ilias\AppData\Local\Temp\ccbZWpbs.s 			page 11


 323:.\Generated_Source\PSoC4/BLE_1.c **** 
 324:.\Generated_Source\PSoC4/BLE_1.c **** 
 325:.\Generated_Source\PSoC4/BLE_1.c **** /******************************************************************************
 326:.\Generated_Source\PSoC4/BLE_1.c **** * Function Name: CyBle_Start
 327:.\Generated_Source\PSoC4/BLE_1.c **** ***************************************************************************//**
 328:.\Generated_Source\PSoC4/BLE_1.c **** * 
 329:.\Generated_Source\PSoC4/BLE_1.c **** *  This function initializes the BLE Stack, which consists of the BLE Stack 
 330:.\Generated_Source\PSoC4/BLE_1.c **** *  Manager, BLE Controller, and BLE Host modules. It takes care of initializing
 331:.\Generated_Source\PSoC4/BLE_1.c **** *  the Profile layer, schedulers, Timer and other platform related
 332:.\Generated_Source\PSoC4/BLE_1.c **** *  resources required for the BLE component. It also registers the callback 
 333:.\Generated_Source\PSoC4/BLE_1.c **** *  function for BLE events that will be registered in the BLE stack.
 334:.\Generated_Source\PSoC4/BLE_1.c **** * 
 335:.\Generated_Source\PSoC4/BLE_1.c **** *  Note that this function does not reset the BLE Stack.
 336:.\Generated_Source\PSoC4/BLE_1.c **** * 
 337:.\Generated_Source\PSoC4/BLE_1.c **** *  For HCI-Mode of operation, this function will not initialize the BLE Host 
 338:.\Generated_Source\PSoC4/BLE_1.c **** *  module.
 339:.\Generated_Source\PSoC4/BLE_1.c **** * 
 340:.\Generated_Source\PSoC4/BLE_1.c **** *  Calling this function results in the generation of CYBLE_EVT_STACK_ON event
 341:.\Generated_Source\PSoC4/BLE_1.c **** *  on successful initialization of the BLE Stack.
 342:.\Generated_Source\PSoC4/BLE_1.c **** * 
 343:.\Generated_Source\PSoC4/BLE_1.c **** *  \param callbackFunc: Event callback function to receive events from BLE stack.
 344:.\Generated_Source\PSoC4/BLE_1.c **** *   CYBLE_CALLBACK_T is a function pointer type.
 345:.\Generated_Source\PSoC4/BLE_1.c **** * 
 346:.\Generated_Source\PSoC4/BLE_1.c **** * \return
 347:.\Generated_Source\PSoC4/BLE_1.c **** *  CYBLE_API_RESULT_T : Return value indicates if the function succeeded or 
 348:.\Generated_Source\PSoC4/BLE_1.c **** *  failed. Following are the possible error codes.
 349:.\Generated_Source\PSoC4/BLE_1.c **** * 
 350:.\Generated_Source\PSoC4/BLE_1.c **** *   <table>
 351:.\Generated_Source\PSoC4/BLE_1.c **** *  	  <tr>
 352:.\Generated_Source\PSoC4/BLE_1.c **** *       <th>Error codes</th>
 353:.\Generated_Source\PSoC4/BLE_1.c **** *       <th>Description</th>
 354:.\Generated_Source\PSoC4/BLE_1.c **** *     </tr>
 355:.\Generated_Source\PSoC4/BLE_1.c **** *     <tr>
 356:.\Generated_Source\PSoC4/BLE_1.c **** *       <td>CYBLE_ERROR_OK</td>
 357:.\Generated_Source\PSoC4/BLE_1.c **** *       <td>On successful operation.</td>
 358:.\Generated_Source\PSoC4/BLE_1.c **** *     </tr>
 359:.\Generated_Source\PSoC4/BLE_1.c **** *     <tr>
 360:.\Generated_Source\PSoC4/BLE_1.c **** *       <td>CYBLE_ERROR_INVALID_PARAMETER</td>
 361:.\Generated_Source\PSoC4/BLE_1.c **** *       <td>On passing a NULL pointer to the function when the BLE stack is not built in HCI mode. 
 362:.\Generated_Source\PSoC4/BLE_1.c **** *			CYBLE_ERROR_INVALID_PARAMETER is never returned in HCI mode.</td>
 363:.\Generated_Source\PSoC4/BLE_1.c **** *     </tr>
 364:.\Generated_Source\PSoC4/BLE_1.c **** *     <tr>
 365:.\Generated_Source\PSoC4/BLE_1.c **** *       <td>CYBLE_ERROR_REPEATED_ATTEMPTS</td>
 366:.\Generated_Source\PSoC4/BLE_1.c **** *       <td>On invoking this function more than once without calling CyBle_Shutdown() 
 367:.\Generated_Source\PSoC4/BLE_1.c **** *           function between calls to this function.</td>
 368:.\Generated_Source\PSoC4/BLE_1.c **** *     </tr>
 369:.\Generated_Source\PSoC4/BLE_1.c **** *     <tr>
 370:.\Generated_Source\PSoC4/BLE_1.c **** *       <td>CYBLE_ERROR_MEMORY_ALLOCATION_FAILED</td>
 371:.\Generated_Source\PSoC4/BLE_1.c **** *       <td>There is insufficient memory available.</td>
 372:.\Generated_Source\PSoC4/BLE_1.c **** *     </tr>
 373:.\Generated_Source\PSoC4/BLE_1.c **** *   </table>
 374:.\Generated_Source\PSoC4/BLE_1.c **** * 
 375:.\Generated_Source\PSoC4/BLE_1.c **** *  \globalvars
 376:.\Generated_Source\PSoC4/BLE_1.c **** *   The CyBle_initVar variable is used to indicate initial
 377:.\Generated_Source\PSoC4/BLE_1.c **** *   configuration of this component. The variable is initialized to zero (0u)
 378:.\Generated_Source\PSoC4/BLE_1.c **** *   and set to one (1u) the first time CyBle_Start() is called. This
 379:.\Generated_Source\PSoC4/BLE_1.c **** *   allows for component initialization without re-initialization in all
ARM GAS  C:\Users\ilias\AppData\Local\Temp\ccbZWpbs.s 			page 12


 380:.\Generated_Source\PSoC4/BLE_1.c **** *   subsequent calls to the CyBle_Start() routine.
 381:.\Generated_Source\PSoC4/BLE_1.c **** * 
 382:.\Generated_Source\PSoC4/BLE_1.c **** ******************************************************************************/
 383:.\Generated_Source\PSoC4/BLE_1.c **** CYBLE_API_RESULT_T CyBle_Start(CYBLE_CALLBACK_T callbackFunc)
 384:.\Generated_Source\PSoC4/BLE_1.c **** {
 237              		.loc 1 384 0
 238              		.cfi_startproc
 239 0000 F0B5     		push	{r4, r5, r6, r7, lr}
 240              		.cfi_def_cfa_offset 20
 241              		.cfi_offset 4, -20
 242              		.cfi_offset 5, -16
 243              		.cfi_offset 6, -12
 244              		.cfi_offset 7, -8
 245              		.cfi_offset 14, -4
 246 0002 8FB0     		sub	sp, sp, #60
 247              		.cfi_def_cfa_offset 80
 248 0004 04AF     		add	r7, sp, #16
 249              		.cfi_def_cfa 7, 64
 250 0006 7860     		str	r0, [r7, #4]
 385:.\Generated_Source\PSoC4/BLE_1.c ****     CYBLE_API_RESULT_T apiResult = CYBLE_ERROR_OK;
 251              		.loc 1 385 0
 252 0008 2623     		mov	r3, #38
 253 000a FB18     		add	r3, r7, r3
 254 000c 0022     		mov	r2, #0
 255 000e 1A80     		strh	r2, [r3]
 386:.\Generated_Source\PSoC4/BLE_1.c ****     
 387:.\Generated_Source\PSoC4/BLE_1.c ****     #if(CYBLE_MODE_PROFILE)
 388:.\Generated_Source\PSoC4/BLE_1.c ****     
 389:.\Generated_Source\PSoC4/BLE_1.c ****     CYBLE_STK_APP_DATA_BUFF_T cyBle_stackDataBuff[CYBLE_STACK_BUF_COUNT] = 
 256              		.loc 1 389 0
 257 0010 0C23     		mov	r3, #12
 258 0012 FA18     		add	r2, r7, r3
 259 0014 284B     		ldr	r3, .L11
 260 0016 111C     		mov	r1, r2
 261 0018 1A1C     		mov	r2, r3
 262 001a 1823     		mov	r3, #24
 263 001c 081C     		mov	r0, r1
 264 001e 111C     		mov	r1, r2
 265 0020 1A1C     		mov	r2, r3
 266 0022 FFF7FEFF 		bl	memcpy
 390:.\Generated_Source\PSoC4/BLE_1.c ****     {
 391:.\Generated_Source\PSoC4/BLE_1.c ****         {CYBLE_GATT_MTU_PLUS_L2CAP_MEM_EXT, CYBLE_GATT_MTU_BUF_COUNT},
 392:.\Generated_Source\PSoC4/BLE_1.c ****         {CYBLE_GATT_MAX_ATTR_LEN_PLUS_L2CAP_MEM_EXT, 1u},
 393:.\Generated_Source\PSoC4/BLE_1.c ****         {CYBLE_L2CAP_PSM_PLUS_L2CAP_MEM_EXT, CYBLE_L2CAP_PSM_COUNT},
 394:.\Generated_Source\PSoC4/BLE_1.c ****         {CYBLE_L2CAP_CBFC_PLUS_L2CAP_MEM_EXT, CYBLE_L2CAP_LOGICAL_CHANNEL_COUNT},
 395:.\Generated_Source\PSoC4/BLE_1.c ****         {CYBLE_L2CAP_MTU_PLUS_L2CAP_MEM_EXT, CYBLE_L2CAP_LOGICAL_CHANNEL_COUNT},
 396:.\Generated_Source\PSoC4/BLE_1.c ****         {CYBLE_L2CAP_MPS_PLUS_L2CAP_MEM_EXT, CYBLE_L2CAP_LOGICAL_CHANNEL_COUNT * (CYBLE_L2CAP_MTU/C
 397:.\Generated_Source\PSoC4/BLE_1.c ****     }; 
 398:.\Generated_Source\PSoC4/BLE_1.c **** 
 399:.\Generated_Source\PSoC4/BLE_1.c ****     #endif /* CYBLE_MODE_PROFILE */
 400:.\Generated_Source\PSoC4/BLE_1.c ****     
 401:.\Generated_Source\PSoC4/BLE_1.c ****     /* If not initialized then initialize all the required hardware and software */
 402:.\Generated_Source\PSoC4/BLE_1.c ****     if(cyBle_initVar == 0u)
 267              		.loc 1 402 0
 268 0026 254B     		ldr	r3, .L11+4
 269 0028 1B78     		ldrb	r3, [r3]
 270 002a 002B     		cmp	r3, #0
ARM GAS  C:\Users\ilias\AppData\Local\Temp\ccbZWpbs.s 			page 13


 271 002c 04D1     		bne	.L6
 403:.\Generated_Source\PSoC4/BLE_1.c ****     {
 404:.\Generated_Source\PSoC4/BLE_1.c ****         CyBle_Init();
 272              		.loc 1 404 0
 273 002e FFF7FEFF 		bl	CyBle_Init
 405:.\Generated_Source\PSoC4/BLE_1.c ****         cyBle_initVar = 1u;
 274              		.loc 1 405 0
 275 0032 224B     		ldr	r3, .L11+4
 276 0034 0122     		mov	r2, #1
 277 0036 1A70     		strb	r2, [r3]
 278              	.L6:
 406:.\Generated_Source\PSoC4/BLE_1.c ****     }
 407:.\Generated_Source\PSoC4/BLE_1.c ****     
 408:.\Generated_Source\PSoC4/BLE_1.c ****     if(callbackFunc != NULL)
 279              		.loc 1 408 0
 280 0038 7B68     		ldr	r3, [r7, #4]
 281 003a 002B     		cmp	r3, #0
 282 003c 30D0     		beq	.L7
 409:.\Generated_Source\PSoC4/BLE_1.c ****     {
 410:.\Generated_Source\PSoC4/BLE_1.c ****     #if(CYBLE_SHARING_MODE_EXPORT)
 411:.\Generated_Source\PSoC4/BLE_1.c ****         if(cyBle_stackMemoryRam == NULL)
 412:.\Generated_Source\PSoC4/BLE_1.c ****         {
 413:.\Generated_Source\PSoC4/BLE_1.c ****             cyBle_stackMemoryRam = (uint8 *)malloc(CYBLE_STACK_RAM_SIZE);
 414:.\Generated_Source\PSoC4/BLE_1.c ****             if(cyBle_stackMemoryRam == NULL)
 415:.\Generated_Source\PSoC4/BLE_1.c ****             {
 416:.\Generated_Source\PSoC4/BLE_1.c ****                 apiResult = CYBLE_ERROR_MEMORY_ALLOCATION_FAILED;
 417:.\Generated_Source\PSoC4/BLE_1.c ****             } 
 418:.\Generated_Source\PSoC4/BLE_1.c ****         }
 419:.\Generated_Source\PSoC4/BLE_1.c ****     #endif /* CYBLE_SHARING_MODE_EXPORT */
 420:.\Generated_Source\PSoC4/BLE_1.c ****         if(apiResult == CYBLE_ERROR_OK)
 283              		.loc 1 420 0
 284 003e 2623     		mov	r3, #38
 285 0040 FB18     		add	r3, r7, r3
 286 0042 1B88     		ldrh	r3, [r3]
 287 0044 002B     		cmp	r3, #0
 288 0046 2FD1     		bne	.L9
 421:.\Generated_Source\PSoC4/BLE_1.c ****         {
 422:.\Generated_Source\PSoC4/BLE_1.c ****             CyBle_ApplCallback = callbackFunc;
 289              		.loc 1 422 0
 290 0048 1D4B     		ldr	r3, .L11+8
 291 004a 7A68     		ldr	r2, [r7, #4]
 292 004c 1A60     		str	r2, [r3]
 423:.\Generated_Source\PSoC4/BLE_1.c ****             
 424:.\Generated_Source\PSoC4/BLE_1.c ****         #if(CYBLE_MODE_PROFILE)
 425:.\Generated_Source\PSoC4/BLE_1.c ****             apiResult = CyBle_StackInit(&CyBle_EventHandler, cyBle_stackMemoryRam, CYBLE_STACK_RAM_
 293              		.loc 1 425 0
 294 004e 2623     		mov	r3, #38
 295 0050 FC18     		add	r4, r7, r3
 296 0052 1C49     		ldr	r1, .L11+12
 297 0054 1C4A     		ldr	r2, .L11+16
 298 0056 1D4E     		ldr	r6, .L11+20
 299 0058 0C23     		mov	r3, #12
 300 005a FD18     		add	r5, r7, r3
 301 005c 0623     		mov	r3, #6
 302 005e 0093     		str	r3, [sp]
 303 0060 1B4B     		ldr	r3, .L11+24
 304 0062 0193     		str	r3, [sp, #4]
ARM GAS  C:\Users\ilias\AppData\Local\Temp\ccbZWpbs.s 			page 14


 305 0064 6E23     		mov	r3, #110
 306 0066 FF33     		add	r3, r3, #255
 307 0068 0293     		str	r3, [sp, #8]
 308 006a 081C     		mov	r0, r1
 309 006c 111C     		mov	r1, r2
 310 006e 321C     		mov	r2, r6
 311 0070 2B1C     		mov	r3, r5
 312 0072 FFF7FEFF 		bl	CyBle_StackInit
 313 0076 031C     		mov	r3, r0
 314 0078 2380     		strh	r3, [r4]
 426:.\Generated_Source\PSoC4/BLE_1.c ****                 cyBle_stackDataBuff, CYBLE_STACK_BUF_COUNT, cyBle_flashStorage.stackFlashptr, CYBLE
 427:.\Generated_Source\PSoC4/BLE_1.c ****         #else
 428:.\Generated_Source\PSoC4/BLE_1.c ****             apiResult = CyBle_StackInit(&CyBle_EventHandler, cyBle_stackMemoryRam, CYBLE_STACK_RAM_
 429:.\Generated_Source\PSoC4/BLE_1.c ****                 NULL, 0u, NULL, 0u);
 430:.\Generated_Source\PSoC4/BLE_1.c ****         #endif /* CYBLE_MODE_PROFILE */
 431:.\Generated_Source\PSoC4/BLE_1.c **** 
 432:.\Generated_Source\PSoC4/BLE_1.c ****             if(apiResult == CYBLE_ERROR_OK)
 315              		.loc 1 432 0
 316 007a 2623     		mov	r3, #38
 317 007c FB18     		add	r3, r7, r3
 318 007e 1B88     		ldrh	r3, [r3]
 319 0080 002B     		cmp	r3, #0
 320 0082 11D1     		bne	.L9
 433:.\Generated_Source\PSoC4/BLE_1.c ****             {
 434:.\Generated_Source\PSoC4/BLE_1.c ****                 CyBle_SetState(CYBLE_STATE_INITIALIZING);
 321              		.loc 1 434 0
 322 0084 134B     		ldr	r3, .L11+28
 323 0086 0122     		mov	r2, #1
 324 0088 1A70     		strb	r2, [r3]
 435:.\Generated_Source\PSoC4/BLE_1.c ****                 
 436:.\Generated_Source\PSoC4/BLE_1.c ****             #if (CYBLE_GATT_ROLE_CLIENT)
 437:.\Generated_Source\PSoC4/BLE_1.c ****                 CyBle_SetClientState(CYBLE_CLIENT_STATE_DISCONNECTED);
 438:.\Generated_Source\PSoC4/BLE_1.c ****             #endif /* CYBLE_GATT_ROLE_CLIENT */
 439:.\Generated_Source\PSoC4/BLE_1.c ****                 
 440:.\Generated_Source\PSoC4/BLE_1.c ****             #if(CYBLE_GATT_ROLE_SERVER)
 441:.\Generated_Source\PSoC4/BLE_1.c ****                 apiResult = CyBle_GattsDbRegister(cyBle_gattDB, CYBLE_GATT_DB_INDEX_COUNT, CYBLE_GA
 325              		.loc 1 441 0
 326 008a 2623     		mov	r3, #38
 327 008c FC18     		add	r4, r7, r3
 328 008e 124B     		ldr	r3, .L11+32
 329 0090 181C     		mov	r0, r3
 330 0092 1021     		mov	r1, #16
 331 0094 0D22     		mov	r2, #13
 332 0096 FFF7FEFF 		bl	CyBle_GattsDbRegister
 333 009a 031C     		mov	r3, r0
 334 009c 2380     		strh	r3, [r4]
 335 009e 03E0     		b	.L9
 336              	.L7:
 442:.\Generated_Source\PSoC4/BLE_1.c ****             #endif /* CYBLE_GATT_ROLE_SERVER */
 443:.\Generated_Source\PSoC4/BLE_1.c ****             }
 444:.\Generated_Source\PSoC4/BLE_1.c ****         }
 445:.\Generated_Source\PSoC4/BLE_1.c ****     }
 446:.\Generated_Source\PSoC4/BLE_1.c ****     else
 447:.\Generated_Source\PSoC4/BLE_1.c ****     {
 448:.\Generated_Source\PSoC4/BLE_1.c ****         apiResult = CYBLE_ERROR_INVALID_PARAMETER;
 337              		.loc 1 448 0
 338 00a0 2623     		mov	r3, #38
ARM GAS  C:\Users\ilias\AppData\Local\Temp\ccbZWpbs.s 			page 15


 339 00a2 FB18     		add	r3, r7, r3
 340 00a4 0122     		mov	r2, #1
 341 00a6 1A80     		strh	r2, [r3]
 342              	.L9:
 449:.\Generated_Source\PSoC4/BLE_1.c ****     }
 450:.\Generated_Source\PSoC4/BLE_1.c **** 
 451:.\Generated_Source\PSoC4/BLE_1.c ****     return (apiResult);
 343              		.loc 1 451 0
 344 00a8 2623     		mov	r3, #38
 345 00aa FB18     		add	r3, r7, r3
 346 00ac 1B88     		ldrh	r3, [r3]
 452:.\Generated_Source\PSoC4/BLE_1.c **** }
 347              		.loc 1 452 0
 348 00ae 181C     		mov	r0, r3
 349 00b0 BD46     		mov	sp, r7
 350 00b2 0BB0     		add	sp, sp, #44
 351              		@ sp needed
 352 00b4 F0BD     		pop	{r4, r5, r6, r7, pc}
 353              	.L12:
 354 00b6 C046     		.align	2
 355              	.L11:
 356 00b8 70010000 		.word	.LC0
 357 00bc 00000000 		.word	cyBle_initVar
 358 00c0 00000000 		.word	CyBle_ApplCallback
 359 00c4 00000000 		.word	CyBle_EventHandler
 360 00c8 00000000 		.word	cyBle_stackMemoryRam
 361 00cc C80A0000 		.word	2760
 362 00d0 00000000 		.word	cyBle_flashStorage
 363 00d4 00000000 		.word	cyBle_state
 364 00d8 00000000 		.word	cyBle_gattDB
 365              		.cfi_endproc
 366              	.LFE4:
 367              		.size	CyBle_Start, .-CyBle_Start
 368              		.section	.text.CyBle_Stop,"ax",%progbits
 369              		.align	2
 370              		.global	CyBle_Stop
 371              		.code	16
 372              		.thumb_func
 373              		.type	CyBle_Stop, %function
 374              	CyBle_Stop:
 375              	.LFB5:
 453:.\Generated_Source\PSoC4/BLE_1.c **** 
 454:.\Generated_Source\PSoC4/BLE_1.c **** 
 455:.\Generated_Source\PSoC4/BLE_1.c **** /******************************************************************************
 456:.\Generated_Source\PSoC4/BLE_1.c **** * Function Name: CyBle_Stop
 457:.\Generated_Source\PSoC4/BLE_1.c **** ***************************************************************************//**
 458:.\Generated_Source\PSoC4/BLE_1.c **** * 
 459:.\Generated_Source\PSoC4/BLE_1.c **** *  This function stops any ongoing operation in the BLE Stack and forces the 
 460:.\Generated_Source\PSoC4/BLE_1.c **** *  BLE Stack to shut down. The only function that can be called after calling
 461:.\Generated_Source\PSoC4/BLE_1.c **** *  this function is CyBle_Start(). 
 462:.\Generated_Source\PSoC4/BLE_1.c **** * 
 463:.\Generated_Source\PSoC4/BLE_1.c **** * \return
 464:.\Generated_Source\PSoC4/BLE_1.c **** *  None
 465:.\Generated_Source\PSoC4/BLE_1.c **** * 
 466:.\Generated_Source\PSoC4/BLE_1.c **** ******************************************************************************/
 467:.\Generated_Source\PSoC4/BLE_1.c **** void CyBle_Stop(void)
 468:.\Generated_Source\PSoC4/BLE_1.c **** {
ARM GAS  C:\Users\ilias\AppData\Local\Temp\ccbZWpbs.s 			page 16


 376              		.loc 1 468 0
 377              		.cfi_startproc
 378 0000 80B5     		push	{r7, lr}
 379              		.cfi_def_cfa_offset 8
 380              		.cfi_offset 7, -8
 381              		.cfi_offset 14, -4
 382 0002 00AF     		add	r7, sp, #0
 383              		.cfi_def_cfa_register 7
 469:.\Generated_Source\PSoC4/BLE_1.c ****     CyBle_Shutdown();                         /* Stop all ongoing activities */
 384              		.loc 1 469 0
 385 0004 FFF7FEFF 		bl	CyBle_Shutdown
 470:.\Generated_Source\PSoC4/BLE_1.c ****     CyBle_SetState(CYBLE_STATE_STOPPED);
 386              		.loc 1 470 0
 387 0008 024B     		ldr	r3, .L14
 388 000a 0022     		mov	r2, #0
 389 000c 1A70     		strb	r2, [r3]
 471:.\Generated_Source\PSoC4/BLE_1.c ****     #if(CYBLE_SHARING_MODE_EXPORT)
 472:.\Generated_Source\PSoC4/BLE_1.c ****         if(cyBle_stackMemoryRam != NULL)
 473:.\Generated_Source\PSoC4/BLE_1.c ****         {
 474:.\Generated_Source\PSoC4/BLE_1.c ****             free(cyBle_stackMemoryRam);
 475:.\Generated_Source\PSoC4/BLE_1.c ****         }
 476:.\Generated_Source\PSoC4/BLE_1.c ****     #endif /* CYBLE_SHARING_MODE_EXPORT */
 477:.\Generated_Source\PSoC4/BLE_1.c **** }
 390              		.loc 1 477 0
 391 000e BD46     		mov	sp, r7
 392              		@ sp needed
 393 0010 80BD     		pop	{r7, pc}
 394              	.L15:
 395 0012 C046     		.align	2
 396              	.L14:
 397 0014 00000000 		.word	cyBle_state
 398              		.cfi_endproc
 399              	.LFE5:
 400              		.size	CyBle_Stop, .-CyBle_Stop
 401              		.section	.text.CyBle_StoreBondingData,"ax",%progbits
 402              		.align	2
 403              		.global	CyBle_StoreBondingData
 404              		.code	16
 405              		.thumb_func
 406              		.type	CyBle_StoreBondingData, %function
 407              	CyBle_StoreBondingData:
 408              	.LFB6:
 478:.\Generated_Source\PSoC4/BLE_1.c **** 
 479:.\Generated_Source\PSoC4/BLE_1.c **** 
 480:.\Generated_Source\PSoC4/BLE_1.c **** #if((CYBLE_GAP_ROLE_PERIPHERAL || CYBLE_GAP_ROLE_CENTRAL) && (CYBLE_BONDING_REQUIREMENT == CYBLE_BO
 481:.\Generated_Source\PSoC4/BLE_1.c **** 
 482:.\Generated_Source\PSoC4/BLE_1.c ****     
 483:.\Generated_Source\PSoC4/BLE_1.c **** /******************************************************************************
 484:.\Generated_Source\PSoC4/BLE_1.c **** * Function Name: CyBle_StoreBondingData
 485:.\Generated_Source\PSoC4/BLE_1.c **** ***************************************************************************//**
 486:.\Generated_Source\PSoC4/BLE_1.c **** * 
 487:.\Generated_Source\PSoC4/BLE_1.c **** *  This function writes the new bonding data from RAM to the dedicated Flash 
 488:.\Generated_Source\PSoC4/BLE_1.c **** *  location as defined by the component. It performs data comparing between RAM
 489:.\Generated_Source\PSoC4/BLE_1.c **** *  and Flash before writing to Flash. If there is no change between RAM and Flash
 490:.\Generated_Source\PSoC4/BLE_1.c **** *  data, then no write is performed. It writes only one flash row in one call.
 491:.\Generated_Source\PSoC4/BLE_1.c **** *  Application should keep calling this function till API return CYBLE_ERROR_OK. 
 492:.\Generated_Source\PSoC4/BLE_1.c **** *  This function is available only when Bonding requirement is selected in
ARM GAS  C:\Users\ilias\AppData\Local\Temp\ccbZWpbs.s 			page 17


 493:.\Generated_Source\PSoC4/BLE_1.c **** *  Security settings.    
 494:.\Generated_Source\PSoC4/BLE_1.c **** * 
 495:.\Generated_Source\PSoC4/BLE_1.c **** *  \param isForceWrite:  If value is set to 0, then stack will check if flash write 
 496:.\Generated_Source\PSoC4/BLE_1.c **** *                 is permissible. 
 497:.\Generated_Source\PSoC4/BLE_1.c **** *  
 498:.\Generated_Source\PSoC4/BLE_1.c **** * \return
 499:.\Generated_Source\PSoC4/BLE_1.c **** *  Return value is of type CYBLE_API_RESULT_T.
 500:.\Generated_Source\PSoC4/BLE_1.c **** *
 501:.\Generated_Source\PSoC4/BLE_1.c **** *   Errors codes                         | Description
 502:.\Generated_Source\PSoC4/BLE_1.c **** *   ----------------------------------   | ------------------------------------
 503:.\Generated_Source\PSoC4/BLE_1.c **** *   CYBLE_ERROR_OK                       | On successful operation
 504:.\Generated_Source\PSoC4/BLE_1.c **** *   CYBLE_ERROR_FLASH_WRITE_NOT_PERMITED | Flash Write is not complete
 505:.\Generated_Source\PSoC4/BLE_1.c **** *    
 506:.\Generated_Source\PSoC4/BLE_1.c **** *  \sideeffect
 507:.\Generated_Source\PSoC4/BLE_1.c **** *   For BLE devices with 128K of Flash memory this API will automatically 
 508:.\Generated_Source\PSoC4/BLE_1.c **** *   modify the clock settings for the device.
 509:.\Generated_Source\PSoC4/BLE_1.c **** *   Writing to flash requires changes to be done to the IMO (set to 48 MHz)
 510:.\Generated_Source\PSoC4/BLE_1.c **** *   and HFCLK (source set to IMO) settings. The configuration is restored before
 511:.\Generated_Source\PSoC4/BLE_1.c **** *   returning. This will impact the operation of most of the hardware in the
 512:.\Generated_Source\PSoC4/BLE_1.c **** *   device.
 513:.\Generated_Source\PSoC4/BLE_1.c **** * 
 514:.\Generated_Source\PSoC4/BLE_1.c **** *  \globalvars
 515:.\Generated_Source\PSoC4/BLE_1.c **** *   The BLE_1_pendingFlashWrite variable is used to detect status
 516:.\Generated_Source\PSoC4/BLE_1.c **** *   of pending write to flash operation for stack data and CCCD.
 517:.\Generated_Source\PSoC4/BLE_1.c **** *   This API automatically clears pending bits after write operation complete.
 518:.\Generated_Source\PSoC4/BLE_1.c **** *     
 519:.\Generated_Source\PSoC4/BLE_1.c **** ******************************************************************************/
 520:.\Generated_Source\PSoC4/BLE_1.c **** CYBLE_API_RESULT_T CyBle_StoreBondingData(uint8 isForceWrite)
 521:.\Generated_Source\PSoC4/BLE_1.c **** {
 409              		.loc 1 521 0
 410              		.cfi_startproc
 411 0000 90B5     		push	{r4, r7, lr}
 412              		.cfi_def_cfa_offset 12
 413              		.cfi_offset 4, -12
 414              		.cfi_offset 7, -8
 415              		.cfi_offset 14, -4
 416 0002 85B0     		sub	sp, sp, #20
 417              		.cfi_def_cfa_offset 32
 418 0004 00AF     		add	r7, sp, #0
 419              		.cfi_def_cfa_register 7
 420 0006 021C     		mov	r2, r0
 421 0008 FB1D     		add	r3, r7, #7
 422 000a 1A70     		strb	r2, [r3]
 522:.\Generated_Source\PSoC4/BLE_1.c ****     CYBLE_API_RESULT_T apiResult = CYBLE_ERROR_OK;
 423              		.loc 1 522 0
 424 000c 0E23     		mov	r3, #14
 425 000e FB18     		add	r3, r7, r3
 426 0010 0022     		mov	r2, #0
 427 0012 1A80     		strh	r2, [r3]
 523:.\Generated_Source\PSoC4/BLE_1.c ****     
 524:.\Generated_Source\PSoC4/BLE_1.c ****     /* Store Stack data */
 525:.\Generated_Source\PSoC4/BLE_1.c ****     if((cyBle_pendingFlashWrite & CYBLE_PENDING_STACK_FLASH_WRITE_BIT) != 0u)
 428              		.loc 1 525 0
 429 0014 2E4B     		ldr	r3, .L21
 430 0016 1B78     		ldrb	r3, [r3]
 431 0018 1A1C     		mov	r2, r3
 432 001a 0123     		mov	r3, #1
ARM GAS  C:\Users\ilias\AppData\Local\Temp\ccbZWpbs.s 			page 18


 433 001c 1340     		and	r3, r2
 434 001e 1ED0     		beq	.L17
 526:.\Generated_Source\PSoC4/BLE_1.c ****     {
 527:.\Generated_Source\PSoC4/BLE_1.c ****         apiResult = CyBle_StoreStackData(isForceWrite);
 435              		.loc 1 527 0
 436 0020 0E23     		mov	r3, #14
 437 0022 FC18     		add	r4, r7, r3
 438 0024 FB1D     		add	r3, r7, #7
 439 0026 1B78     		ldrb	r3, [r3]
 440 0028 181C     		mov	r0, r3
 441 002a FFF7FEFF 		bl	CyBle_StoreStackData
 442 002e 031C     		mov	r3, r0
 443 0030 2380     		strh	r3, [r4]
 528:.\Generated_Source\PSoC4/BLE_1.c ****         if(apiResult == CYBLE_ERROR_OK)
 444              		.loc 1 528 0
 445 0032 0E23     		mov	r3, #14
 446 0034 FB18     		add	r3, r7, r3
 447 0036 1B88     		ldrh	r3, [r3]
 448 0038 002B     		cmp	r3, #0
 449 003a 10D1     		bne	.L17
 529:.\Generated_Source\PSoC4/BLE_1.c ****         {
 530:.\Generated_Source\PSoC4/BLE_1.c ****             cyBle_pendingFlashWrite &= (uint8)~CYBLE_PENDING_STACK_FLASH_WRITE_BIT;
 450              		.loc 1 530 0
 451 003c 244B     		ldr	r3, .L21
 452 003e 1B78     		ldrb	r3, [r3]
 453 0040 0122     		mov	r2, #1
 454 0042 9343     		bic	r3, r2
 455 0044 DAB2     		uxtb	r2, r3
 456 0046 224B     		ldr	r3, .L21
 457 0048 1A70     		strb	r2, [r3]
 531:.\Generated_Source\PSoC4/BLE_1.c ****             /* Change apiResult if there are more pending data to store */
 532:.\Generated_Source\PSoC4/BLE_1.c ****             if((cyBle_pendingFlashWrite & CYBLE_PENDING_CCCD_FLASH_WRITE_BIT) != 0u)
 458              		.loc 1 532 0
 459 004a 214B     		ldr	r3, .L21
 460 004c 1B78     		ldrb	r3, [r3]
 461 004e 1A1C     		mov	r2, r3
 462 0050 0223     		mov	r3, #2
 463 0052 1340     		and	r3, r2
 464 0054 03D0     		beq	.L17
 533:.\Generated_Source\PSoC4/BLE_1.c ****             {
 534:.\Generated_Source\PSoC4/BLE_1.c ****                 apiResult = CYBLE_ERROR_FLASH_WRITE_NOT_PERMITED;
 465              		.loc 1 534 0
 466 0056 0E23     		mov	r3, #14
 467 0058 FB18     		add	r3, r7, r3
 468 005a 2822     		mov	r2, #40
 469 005c 1A80     		strh	r2, [r3]
 470              	.L17:
 535:.\Generated_Source\PSoC4/BLE_1.c ****             }
 536:.\Generated_Source\PSoC4/BLE_1.c ****         }
 537:.\Generated_Source\PSoC4/BLE_1.c ****     }
 538:.\Generated_Source\PSoC4/BLE_1.c **** #if(CYBLE_GATT_DB_CCCD_COUNT != 0u)
 539:.\Generated_Source\PSoC4/BLE_1.c ****     /* Store CCCD values */
 540:.\Generated_Source\PSoC4/BLE_1.c ****     if( ((apiResult == CYBLE_ERROR_OK) || (isForceWrite != 0u)) && 
 471              		.loc 1 540 0
 472 005e 0E23     		mov	r3, #14
 473 0060 FB18     		add	r3, r7, r3
 474 0062 1B88     		ldrh	r3, [r3]
ARM GAS  C:\Users\ilias\AppData\Local\Temp\ccbZWpbs.s 			page 19


 475 0064 002B     		cmp	r3, #0
 476 0066 03D0     		beq	.L18
 477              		.loc 1 540 0 is_stmt 0 discriminator 2
 478 0068 FB1D     		add	r3, r7, #7
 479 006a 1B78     		ldrb	r3, [r3]
 480 006c 002B     		cmp	r3, #0
 481 006e 28D0     		beq	.L19
 482              	.L18:
 541:.\Generated_Source\PSoC4/BLE_1.c ****         ((cyBle_pendingFlashWrite & CYBLE_PENDING_CCCD_FLASH_WRITE_BIT) != 0u) &&
 483              		.loc 1 541 0 is_stmt 1 discriminator 3
 484 0070 174B     		ldr	r3, .L21
 485 0072 1B78     		ldrb	r3, [r3]
 486 0074 1A1C     		mov	r2, r3
 487 0076 0223     		mov	r3, #2
 488 0078 1340     		and	r3, r2
 540:.\Generated_Source\PSoC4/BLE_1.c ****         ((cyBle_pendingFlashWrite & CYBLE_PENDING_CCCD_FLASH_WRITE_BIT) != 0u) &&
 489              		.loc 1 540 0 discriminator 3
 490 007a 22D0     		beq	.L19
 542:.\Generated_Source\PSoC4/BLE_1.c ****         (cyBle_connHandle.bdHandle <= CYBLE_GAP_MAX_BONDED_DEVICE))
 491              		.loc 1 542 0
 492 007c 154B     		ldr	r3, .L21+4
 493 007e 1B78     		ldrb	r3, [r3]
 541:.\Generated_Source\PSoC4/BLE_1.c ****         ((cyBle_pendingFlashWrite & CYBLE_PENDING_CCCD_FLASH_WRITE_BIT) != 0u) &&
 494              		.loc 1 541 0
 495 0080 042B     		cmp	r3, #4
 496 0082 1ED8     		bhi	.L19
 543:.\Generated_Source\PSoC4/BLE_1.c ****     {
 544:.\Generated_Source\PSoC4/BLE_1.c ****         apiResult = CyBle_StoreAppData(cyBle_attValuesCCCD, cyBle_flashStorage.attValuesCCCDFlashMe
 497              		.loc 1 544 0
 498 0084 134B     		ldr	r3, .L21+4
 499 0086 1B78     		ldrb	r3, [r3]
 500 0088 5A33     		add	r3, r3, #90
 501 008a 9A00     		lsl	r2, r3, #2
 502 008c 124B     		ldr	r3, .L21+8
 503 008e D318     		add	r3, r2, r3
 504 0090 5A1D     		add	r2, r3, #5
 505 0092 0E23     		mov	r3, #14
 506 0094 FC18     		add	r4, r7, r3
 507 0096 1149     		ldr	r1, .L21+12
 508 0098 FB1D     		add	r3, r7, #7
 509 009a 1B78     		ldrb	r3, [r3]
 510 009c 081C     		mov	r0, r1
 511 009e 111C     		mov	r1, r2
 512 00a0 0422     		mov	r2, #4
 513 00a2 FFF7FEFF 		bl	CyBle_StoreAppData
 514 00a6 031C     		mov	r3, r0
 515 00a8 2380     		strh	r3, [r4]
 545:.\Generated_Source\PSoC4/BLE_1.c ****                                        CYBLE_GATT_DB_CCCD_COUNT, isForceWrite);
 546:.\Generated_Source\PSoC4/BLE_1.c ****         if(apiResult == CYBLE_ERROR_OK)
 516              		.loc 1 546 0
 517 00aa 0E23     		mov	r3, #14
 518 00ac FB18     		add	r3, r7, r3
 519 00ae 1B88     		ldrh	r3, [r3]
 520 00b0 002B     		cmp	r3, #0
 521 00b2 06D1     		bne	.L19
 547:.\Generated_Source\PSoC4/BLE_1.c ****         {
 548:.\Generated_Source\PSoC4/BLE_1.c ****             cyBle_pendingFlashWrite &= (uint8)~CYBLE_PENDING_CCCD_FLASH_WRITE_BIT;
ARM GAS  C:\Users\ilias\AppData\Local\Temp\ccbZWpbs.s 			page 20


 522              		.loc 1 548 0
 523 00b4 064B     		ldr	r3, .L21
 524 00b6 1B78     		ldrb	r3, [r3]
 525 00b8 0222     		mov	r2, #2
 526 00ba 9343     		bic	r3, r2
 527 00bc DAB2     		uxtb	r2, r3
 528 00be 044B     		ldr	r3, .L21
 529 00c0 1A70     		strb	r2, [r3]
 530              	.L19:
 549:.\Generated_Source\PSoC4/BLE_1.c ****         }
 550:.\Generated_Source\PSoC4/BLE_1.c ****     }
 551:.\Generated_Source\PSoC4/BLE_1.c **** #endif /* CYBLE_GATT_DB_CCCD_COUNT != 0u */
 552:.\Generated_Source\PSoC4/BLE_1.c ****     return(apiResult);
 531              		.loc 1 552 0
 532 00c2 0E23     		mov	r3, #14
 533 00c4 FB18     		add	r3, r7, r3
 534 00c6 1B88     		ldrh	r3, [r3]
 553:.\Generated_Source\PSoC4/BLE_1.c **** }
 535              		.loc 1 553 0
 536 00c8 181C     		mov	r0, r3
 537 00ca BD46     		mov	sp, r7
 538 00cc 05B0     		add	sp, sp, #20
 539              		@ sp needed
 540 00ce 90BD     		pop	{r4, r7, pc}
 541              	.L22:
 542              		.align	2
 543              	.L21:
 544 00d0 00000000 		.word	cyBle_pendingFlashWrite
 545 00d4 00000000 		.word	cyBle_connHandle
 546 00d8 00000000 		.word	cyBle_flashStorage
 547 00dc 00000000 		.word	cyBle_attValuesCCCD
 548              		.cfi_endproc
 549              	.LFE6:
 550              		.size	CyBle_StoreBondingData, .-CyBle_StoreBondingData
 551              		.section	.text.CyBle_GappStartAdvertisement,"ax",%progbits
 552              		.align	2
 553              		.global	CyBle_GappStartAdvertisement
 554              		.code	16
 555              		.thumb_func
 556              		.type	CyBle_GappStartAdvertisement, %function
 557              	CyBle_GappStartAdvertisement:
 558              	.LFB7:
 554:.\Generated_Source\PSoC4/BLE_1.c **** 
 555:.\Generated_Source\PSoC4/BLE_1.c **** 
 556:.\Generated_Source\PSoC4/BLE_1.c **** #endif /* (CYBLE_GAP_ROLE_PERIPHERAL || CYBLE_GAP_ROLE_CENTRAL) && (CYBLE_BONDING_REQUIREMENT == CY
 557:.\Generated_Source\PSoC4/BLE_1.c **** 
 558:.\Generated_Source\PSoC4/BLE_1.c **** 
 559:.\Generated_Source\PSoC4/BLE_1.c **** #if(CYBLE_GAP_ROLE_PERIPHERAL || CYBLE_GAP_ROLE_BROADCASTER)
 560:.\Generated_Source\PSoC4/BLE_1.c **** 
 561:.\Generated_Source\PSoC4/BLE_1.c ****     /******************************************************************************
 562:.\Generated_Source\PSoC4/BLE_1.c ****     *  Function Name: CyBle_GappStartAdvertisement
 563:.\Generated_Source\PSoC4/BLE_1.c ****     ***************************************************************************//**
 564:.\Generated_Source\PSoC4/BLE_1.c ****     *     
 565:.\Generated_Source\PSoC4/BLE_1.c ****     *  This function is used to start the advertisement using the advertisement data 
 566:.\Generated_Source\PSoC4/BLE_1.c ****     *  set in the component customizer's GUI. After invoking this API, the device 
 567:.\Generated_Source\PSoC4/BLE_1.c ****     *  will be available for connection by the devices configured for GAP central 
 568:.\Generated_Source\PSoC4/BLE_1.c ****     *  role. It is only included if the device is configured for GAP Peripheral or 
ARM GAS  C:\Users\ilias\AppData\Local\Temp\ccbZWpbs.s 			page 21


 569:.\Generated_Source\PSoC4/BLE_1.c ****     *  GAP Peripheral + Central role.
 570:.\Generated_Source\PSoC4/BLE_1.c ****     *  
 571:.\Generated_Source\PSoC4/BLE_1.c ****     *  On start of advertisement, GAP Peripheral receives the
 572:.\Generated_Source\PSoC4/BLE_1.c ****     *  CYBLE_EVT_GAPP_ADVERTISEMENT_START_STOP event. The following events are 
 573:.\Generated_Source\PSoC4/BLE_1.c ****     *  possible on invoking this function:
 574:.\Generated_Source\PSoC4/BLE_1.c ****     *  
 575:.\Generated_Source\PSoC4/BLE_1.c ****     *  * CYBLE_EVT_GAP_DEVICE_CONNECTED: If the device connects to remote GAP 
 576:.\Generated_Source\PSoC4/BLE_1.c ****     *                                      Central device
 577:.\Generated_Source\PSoC4/BLE_1.c ****     *  * CYBLE_EVT_TIMEOUT: If no device in GAP Central mode connects to this 
 578:.\Generated_Source\PSoC4/BLE_1.c ****     *                       device within the specified timeout limit. Stack 
 579:.\Generated_Source\PSoC4/BLE_1.c ****     *                       automatically initiate stop advertising when Slow 
 580:.\Generated_Source\PSoC4/BLE_1.c ****     *                       advertising was initiated, or starts Slow advertising
 581:.\Generated_Source\PSoC4/BLE_1.c ****     *                       after Fast advertising timeout occur.
 582:.\Generated_Source\PSoC4/BLE_1.c ****     *  * CYBLE_EVT_GAPP_ADVERTISEMENT_START_STOP: If device started or stopped
 583:.\Generated_Source\PSoC4/BLE_1.c ****     *                                               advertising. Use CyBle_GetState()
 584:.\Generated_Source\PSoC4/BLE_1.c ****     *                                               to determine the state. Sequential 
 585:.\Generated_Source\PSoC4/BLE_1.c ****     *                                               advertising could be started when
 586:.\Generated_Source\PSoC4/BLE_1.c ****     *                                               CYBLE_STATE_DISCONNECTED state is
 587:.\Generated_Source\PSoC4/BLE_1.c ****     *                                               returned.
 588:.\Generated_Source\PSoC4/BLE_1.c ****     * 
 589:.\Generated_Source\PSoC4/BLE_1.c ****     *  \param advertisingIntervalType: Fast or slow advertising interval with timings
 590:.\Generated_Source\PSoC4/BLE_1.c ****     *                                 entered in Advertising settings section of the
 591:.\Generated_Source\PSoC4/BLE_1.c ****     *                                 customizer.
 592:.\Generated_Source\PSoC4/BLE_1.c ****     *  * CYBLE_ADVERTISING_FAST   0x00u
 593:.\Generated_Source\PSoC4/BLE_1.c ****     *  * CYBLE_ADVERTISING_SLOW   0x01u
 594:.\Generated_Source\PSoC4/BLE_1.c ****     *  * CYBLE_ADVERTISING_CUSTOM 0x02u
 595:.\Generated_Source\PSoC4/BLE_1.c ****     * 
 596:.\Generated_Source\PSoC4/BLE_1.c ****     * \return
 597:.\Generated_Source\PSoC4/BLE_1.c ****     *  CYBLE_API_RESULT_T : Return value indicates if the function succeeded or
 598:.\Generated_Source\PSoC4/BLE_1.c ****     *  failed. Following are the possible error codes.
 599:.\Generated_Source\PSoC4/BLE_1.c ****     * 
 600:.\Generated_Source\PSoC4/BLE_1.c ****     *   Errors codes                      |  Description
 601:.\Generated_Source\PSoC4/BLE_1.c ****     *   --------------------------------- |  --------------------------------
 602:.\Generated_Source\PSoC4/BLE_1.c ****     *   CYBLE_ERROR_OK                    |  On successful operation.
 603:.\Generated_Source\PSoC4/BLE_1.c ****     *   CYBLE_ERROR_INVALID_PARAMETER     |  On passing an invalid parameter.
 604:.\Generated_Source\PSoC4/BLE_1.c ****     *   CYBLE_ERROR_INVALID_STATE         |  On calling this API not in Disconnected state.
 605:.\Generated_Source\PSoC4/BLE_1.c ****     *
 606:.\Generated_Source\PSoC4/BLE_1.c ****     * 
 607:.\Generated_Source\PSoC4/BLE_1.c ****     *******************************************************************************/
 608:.\Generated_Source\PSoC4/BLE_1.c ****     CYBLE_API_RESULT_T CyBle_GappStartAdvertisement(uint8 advertisingIntervalType)
 609:.\Generated_Source\PSoC4/BLE_1.c ****     {
 559              		.loc 1 609 0
 560              		.cfi_startproc
 561 0000 90B5     		push	{r4, r7, lr}
 562              		.cfi_def_cfa_offset 12
 563              		.cfi_offset 4, -12
 564              		.cfi_offset 7, -8
 565              		.cfi_offset 14, -4
 566 0002 85B0     		sub	sp, sp, #20
 567              		.cfi_def_cfa_offset 32
 568 0004 00AF     		add	r7, sp, #0
 569              		.cfi_def_cfa_register 7
 570 0006 021C     		mov	r2, r0
 571 0008 FB1D     		add	r3, r7, #7
 572 000a 1A70     		strb	r2, [r3]
 610:.\Generated_Source\PSoC4/BLE_1.c ****         CYBLE_API_RESULT_T apiResult;
 611:.\Generated_Source\PSoC4/BLE_1.c ****         
ARM GAS  C:\Users\ilias\AppData\Local\Temp\ccbZWpbs.s 			page 22


 612:.\Generated_Source\PSoC4/BLE_1.c ****         if(advertisingIntervalType > CYBLE_ADVERTISING_CUSTOM)
 573              		.loc 1 612 0
 574 000c FB1D     		add	r3, r7, #7
 575 000e 1B78     		ldrb	r3, [r3]
 576 0010 022B     		cmp	r3, #2
 577 0012 04D9     		bls	.L24
 613:.\Generated_Source\PSoC4/BLE_1.c ****         {
 614:.\Generated_Source\PSoC4/BLE_1.c ****             apiResult = CYBLE_ERROR_INVALID_PARAMETER;
 578              		.loc 1 614 0
 579 0014 0E23     		mov	r3, #14
 580 0016 FB18     		add	r3, r7, r3
 581 0018 0122     		mov	r2, #1
 582 001a 1A80     		strh	r2, [r3]
 583 001c 4BE0     		b	.L25
 584              	.L24:
 615:.\Generated_Source\PSoC4/BLE_1.c ****         }
 616:.\Generated_Source\PSoC4/BLE_1.c ****         else if((CYBLE_STATE_DISCONNECTED == CyBle_GetState()) && ((cyBle_eventHandlerFlag & CYBLE_
 585              		.loc 1 616 0
 586 001e 294B     		ldr	r3, .L31
 587 0020 1B78     		ldrb	r3, [r3]
 588 0022 042B     		cmp	r3, #4
 589 0024 42D1     		bne	.L26
 590              		.loc 1 616 0 is_stmt 0 discriminator 1
 591 0026 284B     		ldr	r3, .L31+4
 592 0028 1B78     		ldrb	r3, [r3]
 593 002a DBB2     		uxtb	r3, r3
 594 002c 1A1C     		mov	r2, r3
 595 002e 0423     		mov	r3, #4
 596 0030 1340     		and	r3, r2
 597 0032 3BD1     		bne	.L26
 617:.\Generated_Source\PSoC4/BLE_1.c ****         {   
 618:.\Generated_Source\PSoC4/BLE_1.c ****             if(advertisingIntervalType == CYBLE_ADVERTISING_FAST)
 598              		.loc 1 618 0 is_stmt 1
 599 0034 FB1D     		add	r3, r7, #7
 600 0036 1B78     		ldrb	r3, [r3]
 601 0038 002B     		cmp	r3, #0
 602 003a 0BD1     		bne	.L27
 619:.\Generated_Source\PSoC4/BLE_1.c ****             {
 620:.\Generated_Source\PSoC4/BLE_1.c ****                 cyBle_discoveryModeInfo.advTo = CYBLE_FAST_ADV_TIMEOUT;
 603              		.loc 1 620 0
 604 003c 234B     		ldr	r3, .L31+8
 605 003e 0022     		mov	r2, #0
 606 0040 1A82     		strh	r2, [r3, #16]
 621:.\Generated_Source\PSoC4/BLE_1.c ****                 cyBle_discoveryModeInfo.advParam->advIntvMin = CYBLE_FAST_ADV_INT_MIN;
 607              		.loc 1 621 0
 608 0042 224B     		ldr	r3, .L31+8
 609 0044 5B68     		ldr	r3, [r3, #4]
 610 0046 2022     		mov	r2, #32
 611 0048 1A80     		strh	r2, [r3]
 622:.\Generated_Source\PSoC4/BLE_1.c ****                 cyBle_discoveryModeInfo.advParam->advIntvMax = CYBLE_FAST_ADV_INT_MAX;
 612              		.loc 1 622 0
 613 004a 204B     		ldr	r3, .L31+8
 614 004c 5B68     		ldr	r3, [r3, #4]
 615 004e 6022     		mov	r2, #96
 616 0050 5A80     		strh	r2, [r3, #2]
 617 0052 10E0     		b	.L28
 618              	.L27:
ARM GAS  C:\Users\ilias\AppData\Local\Temp\ccbZWpbs.s 			page 23


 623:.\Generated_Source\PSoC4/BLE_1.c ****             }
 624:.\Generated_Source\PSoC4/BLE_1.c ****             else if(advertisingIntervalType == CYBLE_ADVERTISING_SLOW)
 619              		.loc 1 624 0
 620 0054 FB1D     		add	r3, r7, #7
 621 0056 1B78     		ldrb	r3, [r3]
 622 0058 012B     		cmp	r3, #1
 623 005a 0CD1     		bne	.L28
 625:.\Generated_Source\PSoC4/BLE_1.c ****             {
 626:.\Generated_Source\PSoC4/BLE_1.c ****                 cyBle_discoveryModeInfo.advTo = CYBLE_SLOW_ADV_TIMEOUT;
 624              		.loc 1 626 0
 625 005c 1B4B     		ldr	r3, .L31+8
 626 005e 9622     		mov	r2, #150
 627 0060 1A82     		strh	r2, [r3, #16]
 627:.\Generated_Source\PSoC4/BLE_1.c ****                 cyBle_discoveryModeInfo.advParam->advIntvMin = CYBLE_SLOW_ADV_INT_MIN;
 628              		.loc 1 627 0
 629 0062 1A4B     		ldr	r3, .L31+8
 630 0064 5B68     		ldr	r3, [r3, #4]
 631 0066 C822     		mov	r2, #200
 632 0068 D200     		lsl	r2, r2, #3
 633 006a 1A80     		strh	r2, [r3]
 628:.\Generated_Source\PSoC4/BLE_1.c ****                 cyBle_discoveryModeInfo.advParam->advIntvMax = CYBLE_SLOW_ADV_INT_MAX;
 634              		.loc 1 628 0
 635 006c 174B     		ldr	r3, .L31+8
 636 006e 5B68     		ldr	r3, [r3, #4]
 637 0070 8022     		mov	r2, #128
 638 0072 D201     		lsl	r2, r2, #7
 639 0074 5A80     		strh	r2, [r3, #2]
 640              	.L28:
 629:.\Generated_Source\PSoC4/BLE_1.c ****             }       
 630:.\Generated_Source\PSoC4/BLE_1.c ****             else /* Do not update advertising intervals */
 631:.\Generated_Source\PSoC4/BLE_1.c ****             {
 632:.\Generated_Source\PSoC4/BLE_1.c ****             }
 633:.\Generated_Source\PSoC4/BLE_1.c ****             cyBle_advertisingIntervalType = advertisingIntervalType;
 641              		.loc 1 633 0
 642 0076 164B     		ldr	r3, .L31+12
 643 0078 FA1D     		add	r2, r7, #7
 644 007a 1278     		ldrb	r2, [r2]
 645 007c 1A70     		strb	r2, [r3]
 634:.\Generated_Source\PSoC4/BLE_1.c ****             apiResult = CyBle_GappEnterDiscoveryMode(&cyBle_discoveryModeInfo);
 646              		.loc 1 634 0
 647 007e 0E23     		mov	r3, #14
 648 0080 FC18     		add	r4, r7, r3
 649 0082 124B     		ldr	r3, .L31+8
 650 0084 181C     		mov	r0, r3
 651 0086 FFF7FEFF 		bl	CyBle_GappEnterDiscoveryMode
 652 008a 031C     		mov	r3, r0
 653 008c 2380     		strh	r3, [r4]
 635:.\Generated_Source\PSoC4/BLE_1.c ****         
 636:.\Generated_Source\PSoC4/BLE_1.c ****             if(CYBLE_ERROR_OK == apiResult)
 654              		.loc 1 636 0
 655 008e 0E23     		mov	r3, #14
 656 0090 FB18     		add	r3, r7, r3
 657 0092 1B88     		ldrh	r3, [r3]
 658 0094 002B     		cmp	r3, #0
 659 0096 08D1     		bne	.L29
 637:.\Generated_Source\PSoC4/BLE_1.c ****             {
 638:.\Generated_Source\PSoC4/BLE_1.c ****                 cyBle_eventHandlerFlag |= CYBLE_START_FLAG;
ARM GAS  C:\Users\ilias\AppData\Local\Temp\ccbZWpbs.s 			page 24


 660              		.loc 1 638 0
 661 0098 0B4B     		ldr	r3, .L31+4
 662 009a 1B78     		ldrb	r3, [r3]
 663 009c DBB2     		uxtb	r3, r3
 664 009e 0422     		mov	r2, #4
 665 00a0 1343     		orr	r3, r2
 666 00a2 DAB2     		uxtb	r2, r3
 667 00a4 084B     		ldr	r3, .L31+4
 668 00a6 1A70     		strb	r2, [r3]
 636:.\Generated_Source\PSoC4/BLE_1.c ****             {
 669              		.loc 1 636 0
 670 00a8 05E0     		b	.L25
 671              	.L29:
 672 00aa 04E0     		b	.L25
 673              	.L26:
 639:.\Generated_Source\PSoC4/BLE_1.c ****             }
 640:.\Generated_Source\PSoC4/BLE_1.c ****         }
 641:.\Generated_Source\PSoC4/BLE_1.c ****         else
 642:.\Generated_Source\PSoC4/BLE_1.c ****         {
 643:.\Generated_Source\PSoC4/BLE_1.c ****             apiResult = CYBLE_ERROR_INVALID_STATE;
 674              		.loc 1 643 0
 675 00ac 0E23     		mov	r3, #14
 676 00ae FB18     		add	r3, r7, r3
 677 00b0 0422     		mov	r2, #4
 678 00b2 FF32     		add	r2, r2, #255
 679 00b4 1A80     		strh	r2, [r3]
 680              	.L25:
 644:.\Generated_Source\PSoC4/BLE_1.c ****         }
 645:.\Generated_Source\PSoC4/BLE_1.c **** 
 646:.\Generated_Source\PSoC4/BLE_1.c ****         return (apiResult);
 681              		.loc 1 646 0
 682 00b6 0E23     		mov	r3, #14
 683 00b8 FB18     		add	r3, r7, r3
 684 00ba 1B88     		ldrh	r3, [r3]
 647:.\Generated_Source\PSoC4/BLE_1.c ****     }
 685              		.loc 1 647 0
 686 00bc 181C     		mov	r0, r3
 687 00be BD46     		mov	sp, r7
 688 00c0 05B0     		add	sp, sp, #20
 689              		@ sp needed
 690 00c2 90BD     		pop	{r4, r7, pc}
 691              	.L32:
 692              		.align	2
 693              	.L31:
 694 00c4 00000000 		.word	cyBle_state
 695 00c8 00000000 		.word	cyBle_eventHandlerFlag
 696 00cc 00000000 		.word	cyBle_discoveryModeInfo
 697 00d0 00000000 		.word	cyBle_advertisingIntervalType
 698              		.cfi_endproc
 699              	.LFE7:
 700              		.size	CyBle_GappStartAdvertisement, .-CyBle_GappStartAdvertisement
 701              		.section	.text.CyBle_GappStopAdvertisement,"ax",%progbits
 702              		.align	2
 703              		.global	CyBle_GappStopAdvertisement
 704              		.code	16
 705              		.thumb_func
 706              		.type	CyBle_GappStopAdvertisement, %function
ARM GAS  C:\Users\ilias\AppData\Local\Temp\ccbZWpbs.s 			page 25


 707              	CyBle_GappStopAdvertisement:
 708              	.LFB8:
 648:.\Generated_Source\PSoC4/BLE_1.c **** 
 649:.\Generated_Source\PSoC4/BLE_1.c ****     
 650:.\Generated_Source\PSoC4/BLE_1.c ****     /******************************************************************************
 651:.\Generated_Source\PSoC4/BLE_1.c ****     * Function Name: CyBle_GappStopAdvertisement
 652:.\Generated_Source\PSoC4/BLE_1.c ****     ***************************************************************************//**
 653:.\Generated_Source\PSoC4/BLE_1.c ****     * 
 654:.\Generated_Source\PSoC4/BLE_1.c ****     *   This function can be used to exit from discovery mode. After the execution 
 655:.\Generated_Source\PSoC4/BLE_1.c ****     *   of this function, there will no longer be any advertisements. On stopping 
 656:.\Generated_Source\PSoC4/BLE_1.c ****     *   advertising, GAP Peripheral receives CYBLE_EVT_GAPP_ADVERTISEMENT_START_STOP
 657:.\Generated_Source\PSoC4/BLE_1.c ****     *   event. It is expected that the application layer tracks the function call 
 658:.\Generated_Source\PSoC4/BLE_1.c ****     *   performed before occurrence of this event as this event can occur on making 
 659:.\Generated_Source\PSoC4/BLE_1.c ****     *   a call to Cy_BleGappStartAdvertisement(), CyBle_GappEnterDiscoveryMode(), 
 660:.\Generated_Source\PSoC4/BLE_1.c ****     *   or CyBle_GappStartAdvertisement() functions as well.
 661:.\Generated_Source\PSoC4/BLE_1.c ****     *   
 662:.\Generated_Source\PSoC4/BLE_1.c ****     *   The following event occurs on invoking this function:
 663:.\Generated_Source\PSoC4/BLE_1.c ****     *   * CYBLE_EVT_GAPP_ADVERTISEMENT_START_STOP
 664:.\Generated_Source\PSoC4/BLE_1.c ****     * 
 665:.\Generated_Source\PSoC4/BLE_1.c ****     *  \return
 666:.\Generated_Source\PSoC4/BLE_1.c ****     *   None
 667:.\Generated_Source\PSoC4/BLE_1.c ****     * 
 668:.\Generated_Source\PSoC4/BLE_1.c ****     *******************************************************************************/
 669:.\Generated_Source\PSoC4/BLE_1.c ****     void CyBle_GappStopAdvertisement(void)
 670:.\Generated_Source\PSoC4/BLE_1.c ****     {
 709              		.loc 1 670 0
 710              		.cfi_startproc
 711 0000 80B5     		push	{r7, lr}
 712              		.cfi_def_cfa_offset 8
 713              		.cfi_offset 7, -8
 714              		.cfi_offset 14, -4
 715 0002 00AF     		add	r7, sp, #0
 716              		.cfi_def_cfa_register 7
 671:.\Generated_Source\PSoC4/BLE_1.c ****         CyBle_GappExitDiscoveryMode();
 717              		.loc 1 671 0
 718 0004 FFF7FEFF 		bl	CyBle_GappExitDiscoveryMode
 672:.\Generated_Source\PSoC4/BLE_1.c ****         cyBle_eventHandlerFlag |= CYBLE_STOP_FLAG;
 719              		.loc 1 672 0
 720 0008 044B     		ldr	r3, .L34
 721 000a 1B78     		ldrb	r3, [r3]
 722 000c DBB2     		uxtb	r3, r3
 723 000e 0822     		mov	r2, #8
 724 0010 1343     		orr	r3, r2
 725 0012 DAB2     		uxtb	r2, r3
 726 0014 014B     		ldr	r3, .L34
 727 0016 1A70     		strb	r2, [r3]
 673:.\Generated_Source\PSoC4/BLE_1.c ****     }
 728              		.loc 1 673 0
 729 0018 BD46     		mov	sp, r7
 730              		@ sp needed
 731 001a 80BD     		pop	{r7, pc}
 732              	.L35:
 733              		.align	2
 734              	.L34:
 735 001c 00000000 		.word	cyBle_eventHandlerFlag
 736              		.cfi_endproc
 737              	.LFE8:
ARM GAS  C:\Users\ilias\AppData\Local\Temp\ccbZWpbs.s 			page 26


 738              		.size	CyBle_GappStopAdvertisement, .-CyBle_GappStopAdvertisement
 739              		.section	.text.CyBle_ChangeAdDeviceAddress,"ax",%progbits
 740              		.align	2
 741              		.global	CyBle_ChangeAdDeviceAddress
 742              		.code	16
 743              		.thumb_func
 744              		.type	CyBle_ChangeAdDeviceAddress, %function
 745              	CyBle_ChangeAdDeviceAddress:
 746              	.LFB9:
 674:.\Generated_Source\PSoC4/BLE_1.c ****     
 675:.\Generated_Source\PSoC4/BLE_1.c ****     
 676:.\Generated_Source\PSoC4/BLE_1.c ****     /******************************************************************************
 677:.\Generated_Source\PSoC4/BLE_1.c ****     * Function Name: CyBle_ChangeAdDeviceAddress
 678:.\Generated_Source\PSoC4/BLE_1.c ****     ***************************************************************************//**
 679:.\Generated_Source\PSoC4/BLE_1.c ****     * 
 680:.\Generated_Source\PSoC4/BLE_1.c ****     *  This API is used to set the Bluetooth device address into the advertisement 
 681:.\Generated_Source\PSoC4/BLE_1.c ****     *  or scan response data structure.
 682:.\Generated_Source\PSoC4/BLE_1.c ****     * 
 683:.\Generated_Source\PSoC4/BLE_1.c ****     *  \param bdAddr: Bluetooth Device address. The variable is of type CYBLE_GAP_BD_ADDR_T
 684:.\Generated_Source\PSoC4/BLE_1.c ****     *  \param dest: 0 - selects advertisement structure, not zero value selects scan 
 685:.\Generated_Source\PSoC4/BLE_1.c ****     *               response structure.
 686:.\Generated_Source\PSoC4/BLE_1.c ****     * 
 687:.\Generated_Source\PSoC4/BLE_1.c ****     * \return
 688:.\Generated_Source\PSoC4/BLE_1.c ****     *  None
 689:.\Generated_Source\PSoC4/BLE_1.c ****     *  
 690:.\Generated_Source\PSoC4/BLE_1.c ****     *******************************************************************************/
 691:.\Generated_Source\PSoC4/BLE_1.c ****     void CyBle_ChangeAdDeviceAddress(const CYBLE_GAP_BD_ADDR_T* bdAddr, uint8 dest)
 692:.\Generated_Source\PSoC4/BLE_1.c ****     {
 747              		.loc 1 692 0
 748              		.cfi_startproc
 749 0000 80B5     		push	{r7, lr}
 750              		.cfi_def_cfa_offset 8
 751              		.cfi_offset 7, -8
 752              		.cfi_offset 14, -4
 753 0002 84B0     		sub	sp, sp, #16
 754              		.cfi_def_cfa_offset 24
 755 0004 00AF     		add	r7, sp, #0
 756              		.cfi_def_cfa_register 7
 757 0006 7860     		str	r0, [r7, #4]
 758 0008 0A1C     		mov	r2, r1
 759 000a FB1C     		add	r3, r7, #3
 760 000c 1A70     		strb	r2, [r3]
 693:.\Generated_Source\PSoC4/BLE_1.c ****         uint8 i;
 694:.\Generated_Source\PSoC4/BLE_1.c ****         uint8 *destBuffer = NULL;
 761              		.loc 1 694 0
 762 000e 0023     		mov	r3, #0
 763 0010 BB60     		str	r3, [r7, #8]
 695:.\Generated_Source\PSoC4/BLE_1.c ****         
 696:.\Generated_Source\PSoC4/BLE_1.c ****         if(dest == 0u)      /* Destination - advertising structure */
 697:.\Generated_Source\PSoC4/BLE_1.c ****         {
 698:.\Generated_Source\PSoC4/BLE_1.c ****             #ifdef CYBLE_ADV_PKT_INDEX_BLUETOOTH_DEVICE_ADDRESS
 699:.\Generated_Source\PSoC4/BLE_1.c ****                 destBuffer = &cyBle_discoveryData.advData[CYBLE_ADV_PKT_INDEX_BLUETOOTH_DEVICE_ADDR
 700:.\Generated_Source\PSoC4/BLE_1.c ****             #endif /* CYBLE_ADV_PKT_INDEX_BLUETOOTH_DEVICE_ADDRESS */
 701:.\Generated_Source\PSoC4/BLE_1.c ****         }
 702:.\Generated_Source\PSoC4/BLE_1.c ****         else                /* Destination - scan response structure */
 703:.\Generated_Source\PSoC4/BLE_1.c ****         {
 704:.\Generated_Source\PSoC4/BLE_1.c ****             #ifdef CYBLE_SCN_PKT_INDEX_BLUETOOTH_DEVICE_ADDRESS
ARM GAS  C:\Users\ilias\AppData\Local\Temp\ccbZWpbs.s 			page 27


 705:.\Generated_Source\PSoC4/BLE_1.c ****                 destBuffer = &cyBle_scanRspData.scanRspData[CYBLE_SCN_PKT_INDEX_BLUETOOTH_DEVICE_AD
 706:.\Generated_Source\PSoC4/BLE_1.c ****             #endif /* CYBLE_SCN_PKT_INDEX_BLUETOOTH_DEVICE_ADDRESS */    
 707:.\Generated_Source\PSoC4/BLE_1.c ****         }
 708:.\Generated_Source\PSoC4/BLE_1.c ****         
 709:.\Generated_Source\PSoC4/BLE_1.c ****         if(destBuffer != NULL)
 764              		.loc 1 709 0
 765 0012 BB68     		ldr	r3, [r7, #8]
 766 0014 002B     		cmp	r3, #0
 767 0016 20D0     		beq	.L36
 710:.\Generated_Source\PSoC4/BLE_1.c ****         {
 711:.\Generated_Source\PSoC4/BLE_1.c ****             /* Update Device Address type */
 712:.\Generated_Source\PSoC4/BLE_1.c ****             destBuffer[0u] = bdAddr->type;
 768              		.loc 1 712 0
 769 0018 7B68     		ldr	r3, [r7, #4]
 770 001a 9A79     		ldrb	r2, [r3, #6]
 771 001c BB68     		ldr	r3, [r7, #8]
 772 001e 1A70     		strb	r2, [r3]
 713:.\Generated_Source\PSoC4/BLE_1.c ****             
 714:.\Generated_Source\PSoC4/BLE_1.c ****             for(i = 0u; i < CYBLE_GAP_BD_ADDR_SIZE; i++)
 773              		.loc 1 714 0
 774 0020 0F23     		mov	r3, #15
 775 0022 FB18     		add	r3, r7, r3
 776 0024 0022     		mov	r2, #0
 777 0026 1A70     		strb	r2, [r3]
 778 0028 12E0     		b	.L38
 779              	.L39:
 715:.\Generated_Source\PSoC4/BLE_1.c ****             {
 716:.\Generated_Source\PSoC4/BLE_1.c ****                 destBuffer[i + 1u] = bdAddr->bdAddr[i];
 780              		.loc 1 716 0 discriminator 3
 781 002a 0F23     		mov	r3, #15
 782 002c FB18     		add	r3, r7, r3
 783 002e 1B78     		ldrb	r3, [r3]
 784 0030 0133     		add	r3, r3, #1
 785 0032 BA68     		ldr	r2, [r7, #8]
 786 0034 D318     		add	r3, r2, r3
 787 0036 0F22     		mov	r2, #15
 788 0038 BA18     		add	r2, r7, r2
 789 003a 1278     		ldrb	r2, [r2]
 790 003c 7968     		ldr	r1, [r7, #4]
 791 003e 8A5C     		ldrb	r2, [r1, r2]
 792 0040 1A70     		strb	r2, [r3]
 714:.\Generated_Source\PSoC4/BLE_1.c ****             {
 793              		.loc 1 714 0 discriminator 3
 794 0042 0F23     		mov	r3, #15
 795 0044 FB18     		add	r3, r7, r3
 796 0046 1A78     		ldrb	r2, [r3]
 797 0048 0F23     		mov	r3, #15
 798 004a FB18     		add	r3, r7, r3
 799 004c 0132     		add	r2, r2, #1
 800 004e 1A70     		strb	r2, [r3]
 801              	.L38:
 714:.\Generated_Source\PSoC4/BLE_1.c ****             {
 802              		.loc 1 714 0 is_stmt 0 discriminator 1
 803 0050 0F23     		mov	r3, #15
 804 0052 FB18     		add	r3, r7, r3
 805 0054 1B78     		ldrb	r3, [r3]
 806 0056 052B     		cmp	r3, #5
ARM GAS  C:\Users\ilias\AppData\Local\Temp\ccbZWpbs.s 			page 28


 807 0058 E7D9     		bls	.L39
 808              	.L36:
 717:.\Generated_Source\PSoC4/BLE_1.c ****             }
 718:.\Generated_Source\PSoC4/BLE_1.c ****         }
 719:.\Generated_Source\PSoC4/BLE_1.c ****     }
 809              		.loc 1 719 0 is_stmt 1
 810 005a BD46     		mov	sp, r7
 811 005c 04B0     		add	sp, sp, #16
 812              		@ sp needed
 813 005e 80BD     		pop	{r7, pc}
 814              		.cfi_endproc
 815              	.LFE9:
 816              		.size	CyBle_ChangeAdDeviceAddress, .-CyBle_ChangeAdDeviceAddress
 817              		.section	.text.CyBle_ChangeAdLocalName,"ax",%progbits
 818              		.align	2
 819              		.code	16
 820              		.thumb_func
 821              		.type	CyBle_ChangeAdLocalName, %function
 822              	CyBle_ChangeAdLocalName:
 823              	.LFB10:
 720:.\Generated_Source\PSoC4/BLE_1.c ****   
 721:.\Generated_Source\PSoC4/BLE_1.c **** #endif /* CYBLE_GAP_ROLE_PERIPHERAL || CYBLE_GAP_ROLE_BROADCASTER */
 722:.\Generated_Source\PSoC4/BLE_1.c **** 
 723:.\Generated_Source\PSoC4/BLE_1.c **** 
 724:.\Generated_Source\PSoC4/BLE_1.c **** #if(CYBLE_GAP_ROLE_CENTRAL || CYBLE_GAP_ROLE_OBSERVER)
 725:.\Generated_Source\PSoC4/BLE_1.c **** 
 726:.\Generated_Source\PSoC4/BLE_1.c ****     /******************************************************************************
 727:.\Generated_Source\PSoC4/BLE_1.c ****     * Function Name: CyBle_GapcStartScan
 728:.\Generated_Source\PSoC4/BLE_1.c ****     ***************************************************************************//**
 729:.\Generated_Source\PSoC4/BLE_1.c ****     * 
 730:.\Generated_Source\PSoC4/BLE_1.c ****     *   This function is used for discovering GAP peripheral devices that are 
 731:.\Generated_Source\PSoC4/BLE_1.c ****     *   available for connection. It performs the scanning routine using the 
 732:.\Generated_Source\PSoC4/BLE_1.c ****     *   parameters entered in the component's customizer.
 733:.\Generated_Source\PSoC4/BLE_1.c ****     *   
 734:.\Generated_Source\PSoC4/BLE_1.c ****     *   As soon as the discovery operation starts, CYBLE_EVT_GAPC_SCAN_START_STOP 
 735:.\Generated_Source\PSoC4/BLE_1.c ****     *   event is generated. The CYBLE_EVT_GAPC_SCAN_PROGRESS_RESULT event is 
 736:.\Generated_Source\PSoC4/BLE_1.c ****     *   generated when a GAP peripheral device is located. There are three discovery
 737:.\Generated_Source\PSoC4/BLE_1.c ****     *   procedures can be selected in the customizer's GUI:
 738:.\Generated_Source\PSoC4/BLE_1.c ****     *   
 739:.\Generated_Source\PSoC4/BLE_1.c ****     *   * Observation procedure: A device performing the observer role receives only
 740:.\Generated_Source\PSoC4/BLE_1.c ****     *                            advertisement data from devices irrespective of 
 741:.\Generated_Source\PSoC4/BLE_1.c ****     *                            their discoverable mode settings. Advertisement 
 742:.\Generated_Source\PSoC4/BLE_1.c ****     *                            data received is provided by the event,      
 743:.\Generated_Source\PSoC4/BLE_1.c ****     *                            CYBLE_EVT_GAPC_SCAN_PROGRESS_RESULT. This procedure
 744:.\Generated_Source\PSoC4/BLE_1.c ****     *                            requires the scanType sub parameter to be passive
 745:.\Generated_Source\PSoC4/BLE_1.c ****     *                            scanning. 
 746:.\Generated_Source\PSoC4/BLE_1.c ****     *   
 747:.\Generated_Source\PSoC4/BLE_1.c ****     *   * Limited Discovery procedure: A device performing the limited discovery
 748:.\Generated_Source\PSoC4/BLE_1.c ****     *                                  procedure receives advertisement data and 
 749:.\Generated_Source\PSoC4/BLE_1.c ****     *                                  scan# response data from devices in the 
 750:.\Generated_Source\PSoC4/BLE_1.c ****     *                                  limited discoverable mode only. Received data
 751:.\Generated_Source\PSoC4/BLE_1.c ****     *                                  is provided by the event, 
 752:.\Generated_Source\PSoC4/BLE_1.c ****     *                                  CYBLE_EVT_GAPC_SCAN_PROGRESS_RESULT. This 
 753:.\Generated_Source\PSoC4/BLE_1.c ****     *                                  procedure requires the scanType sub-parameter 
 754:.\Generated_Source\PSoC4/BLE_1.c ****     *                                  to be active scanning.
 755:.\Generated_Source\PSoC4/BLE_1.c ****     *   
 756:.\Generated_Source\PSoC4/BLE_1.c ****     *   * General Discovery procedure: A device performing the general discovery 
ARM GAS  C:\Users\ilias\AppData\Local\Temp\ccbZWpbs.s 			page 29


 757:.\Generated_Source\PSoC4/BLE_1.c ****     *                                  procedure receives the advertisement data and
 758:.\Generated_Source\PSoC4/BLE_1.c ****     *                                  scan response data from devices in both 
 759:.\Generated_Source\PSoC4/BLE_1.c ****     *                                  limited discoverable mode and the general 
 760:.\Generated_Source\PSoC4/BLE_1.c ****     *                                  discoverable mode. Received data is provided
 761:.\Generated_Source\PSoC4/BLE_1.c ****     *                                  by the event,
 762:.\Generated_Source\PSoC4/BLE_1.c ****     *                                  CYBLE_EVT_GAPC_SCAN_PROGRESS_RESULT. This 
 763:.\Generated_Source\PSoC4/BLE_1.c ****     *                                  procedure requires the scanType sub-parameter
 764:.\Generated_Source\PSoC4/BLE_1.c ****     *                                  to be active scanning.
 765:.\Generated_Source\PSoC4/BLE_1.c ****     *   
 766:.\Generated_Source\PSoC4/BLE_1.c ****     *   Every Advertisement / Scan response packet received results in a new event, 
 767:.\Generated_Source\PSoC4/BLE_1.c ****     *   CYBLE_EVT_GAPC_SCAN_PROGRESS_RESULT.
 768:.\Generated_Source\PSoC4/BLE_1.c ****     *   If 'scanTo' sub-parameter is a non-zero value, then upon commencement of 
 769:.\Generated_Source\PSoC4/BLE_1.c ****     *   discovery procedure and elapsed time = 'scanTo', CYBLE_EVT_TIMEOUT event
 770:.\Generated_Source\PSoC4/BLE_1.c ****     *   is generated with the event parameter indicating CYBLE_GAP_SCAN_TO.
 771:.\Generated_Source\PSoC4/BLE_1.c ****     *   Possible generated events are:
 772:.\Generated_Source\PSoC4/BLE_1.c ****     *   * CYBLE_EVT_GAPC_SCAN_START_STOP: If a device started or stopped scanning. 
 773:.\Generated_Source\PSoC4/BLE_1.c ****     *                                     Use CyBle_GetState() to determine the 
 774:.\Generated_Source\PSoC4/BLE_1.c ****     *                                     state. Sequential scanning could be 
 775:.\Generated_Source\PSoC4/BLE_1.c ****     *                                     started when CYBLE_STATE_DISCONNECTED 
 776:.\Generated_Source\PSoC4/BLE_1.c ****     *                                     state is returned. 
 777:.\Generated_Source\PSoC4/BLE_1.c ****     *   * CYBLE_EVT_GAPC_SCAN_PROGRESS_RESULT 
 778:.\Generated_Source\PSoC4/BLE_1.c ****     *   * CYBLE_EVT_TIMEOUT (CYBLE_GAP_SCAN_TO)
 779:.\Generated_Source\PSoC4/BLE_1.c ****     * 
 780:.\Generated_Source\PSoC4/BLE_1.c ****     *   \param scanningIntervalType:  Fast or slow scanning interval with
 781:.\Generated_Source\PSoC4/BLE_1.c ****     *       timings entered in Scan settings section of the customizer.
 782:.\Generated_Source\PSoC4/BLE_1.c ****     * 	  * CYBLE_SCANNING_FAST   0x00u
 783:.\Generated_Source\PSoC4/BLE_1.c ****     * 	  * CYBLE_SCANNING_SLOW   0x01u
 784:.\Generated_Source\PSoC4/BLE_1.c ****     * 	  * CYBLE_SCANNING_CUSTOM 0x02u
 785:.\Generated_Source\PSoC4/BLE_1.c ****     * 
 786:.\Generated_Source\PSoC4/BLE_1.c ****     * \return
 787:.\Generated_Source\PSoC4/BLE_1.c ****     *  CYBLE_API_RESULT_T : Return value indicates if the function succeeded or
 788:.\Generated_Source\PSoC4/BLE_1.c ****     *  failed. Following are the possible error codes.
 789:.\Generated_Source\PSoC4/BLE_1.c ****     *
 790:.\Generated_Source\PSoC4/BLE_1.c ****     *   Errors codes                       | Description
 791:.\Generated_Source\PSoC4/BLE_1.c ****     *   ---------------------------------- | -----------------------------------
 792:.\Generated_Source\PSoC4/BLE_1.c ****     *   CYBLE_ERROR_OK                     | On successful operation.
 793:.\Generated_Source\PSoC4/BLE_1.c ****     *   CYBLE_ERROR_STACK_INTERNAL         | An error occurred in the BLE stack.
 794:.\Generated_Source\PSoC4/BLE_1.c ****     *   CYBLE_ERROR_INVALID_PARAMETER      | On passing an invalid parameter.
 795:.\Generated_Source\PSoC4/BLE_1.c ****     *  
 796:.\Generated_Source\PSoC4/BLE_1.c ****     *******************************************************************************/
 797:.\Generated_Source\PSoC4/BLE_1.c ****     CYBLE_API_RESULT_T CyBle_GapcStartScan(uint8 scanningIntervalType)
 798:.\Generated_Source\PSoC4/BLE_1.c ****     {
 799:.\Generated_Source\PSoC4/BLE_1.c ****         CYBLE_API_RESULT_T apiResult;
 800:.\Generated_Source\PSoC4/BLE_1.c **** 
 801:.\Generated_Source\PSoC4/BLE_1.c ****         if(scanningIntervalType > CYBLE_SCANNING_CUSTOM)
 802:.\Generated_Source\PSoC4/BLE_1.c ****         {
 803:.\Generated_Source\PSoC4/BLE_1.c ****             apiResult = CYBLE_ERROR_INVALID_PARAMETER;
 804:.\Generated_Source\PSoC4/BLE_1.c ****         }
 805:.\Generated_Source\PSoC4/BLE_1.c ****         else
 806:.\Generated_Source\PSoC4/BLE_1.c ****         {
 807:.\Generated_Source\PSoC4/BLE_1.c ****             if(scanningIntervalType == CYBLE_SCANNING_FAST)
 808:.\Generated_Source\PSoC4/BLE_1.c ****             {
 809:.\Generated_Source\PSoC4/BLE_1.c ****                 cyBle_discoveryInfo.scanTo = CYBLE_FAST_SCAN_TIMEOUT;
 810:.\Generated_Source\PSoC4/BLE_1.c ****                 cyBle_discoveryInfo.scanIntv = CYBLE_FAST_SCAN_INTERVAL;
 811:.\Generated_Source\PSoC4/BLE_1.c ****                 cyBle_discoveryInfo.scanWindow = CYBLE_FAST_SCAN_WINDOW;
 812:.\Generated_Source\PSoC4/BLE_1.c ****             }
 813:.\Generated_Source\PSoC4/BLE_1.c ****             else if(scanningIntervalType == CYBLE_SCANNING_SLOW)
ARM GAS  C:\Users\ilias\AppData\Local\Temp\ccbZWpbs.s 			page 30


 814:.\Generated_Source\PSoC4/BLE_1.c ****             {
 815:.\Generated_Source\PSoC4/BLE_1.c ****                 cyBle_discoveryInfo.scanTo = CYBLE_SLOW_SCAN_TIMEOUT;
 816:.\Generated_Source\PSoC4/BLE_1.c ****                 cyBle_discoveryInfo.scanIntv = CYBLE_SLOW_SCAN_INTERVAL;
 817:.\Generated_Source\PSoC4/BLE_1.c ****                 cyBle_discoveryInfo.scanWindow = CYBLE_SLOW_SCAN_WINDOW;
 818:.\Generated_Source\PSoC4/BLE_1.c ****             }       
 819:.\Generated_Source\PSoC4/BLE_1.c ****             else /* Do not update scanning intervals */
 820:.\Generated_Source\PSoC4/BLE_1.c ****             {
 821:.\Generated_Source\PSoC4/BLE_1.c ****             }
 822:.\Generated_Source\PSoC4/BLE_1.c ****             
 823:.\Generated_Source\PSoC4/BLE_1.c ****             cyBle_scanningIntervalType = scanningIntervalType;
 824:.\Generated_Source\PSoC4/BLE_1.c ****             apiResult = CyBle_GapcStartDiscovery(&cyBle_discoveryInfo);
 825:.\Generated_Source\PSoC4/BLE_1.c ****         
 826:.\Generated_Source\PSoC4/BLE_1.c ****             if(CYBLE_ERROR_OK == apiResult)
 827:.\Generated_Source\PSoC4/BLE_1.c ****             {
 828:.\Generated_Source\PSoC4/BLE_1.c ****                 cyBle_eventHandlerFlag |= CYBLE_START_FLAG;
 829:.\Generated_Source\PSoC4/BLE_1.c ****             }
 830:.\Generated_Source\PSoC4/BLE_1.c ****         }
 831:.\Generated_Source\PSoC4/BLE_1.c ****        
 832:.\Generated_Source\PSoC4/BLE_1.c ****         return (apiResult);
 833:.\Generated_Source\PSoC4/BLE_1.c ****     }
 834:.\Generated_Source\PSoC4/BLE_1.c ****     
 835:.\Generated_Source\PSoC4/BLE_1.c ****     
 836:.\Generated_Source\PSoC4/BLE_1.c ****     /******************************************************************************
 837:.\Generated_Source\PSoC4/BLE_1.c ****     * Function Name: CyBle_GapcStopScan
 838:.\Generated_Source\PSoC4/BLE_1.c ****     ***************************************************************************//**
 839:.\Generated_Source\PSoC4/BLE_1.c ****     * 
 840:.\Generated_Source\PSoC4/BLE_1.c ****     *   This function used to stop the discovery of devices. On stopping discovery
 841:.\Generated_Source\PSoC4/BLE_1.c ****     *   operation, CYBLE_EVT_GAPC_SCAN_START_STOP event is generated. Application
 842:.\Generated_Source\PSoC4/BLE_1.c ****     *   layer needs to keep track of the function call made before receiving this
 843:.\Generated_Source\PSoC4/BLE_1.c ****     *   event to associate this event with either the start or stop discovery
 844:.\Generated_Source\PSoC4/BLE_1.c ****     *   function.
 845:.\Generated_Source\PSoC4/BLE_1.c ****     * 
 846:.\Generated_Source\PSoC4/BLE_1.c ****     *   Possible events generated are:
 847:.\Generated_Source\PSoC4/BLE_1.c ****     *    * CYBLE_EVT_GAPC_SCAN_START_STOP
 848:.\Generated_Source\PSoC4/BLE_1.c ****     * 
 849:.\Generated_Source\PSoC4/BLE_1.c ****     *  \return
 850:.\Generated_Source\PSoC4/BLE_1.c ****     *   None
 851:.\Generated_Source\PSoC4/BLE_1.c ****     * 
 852:.\Generated_Source\PSoC4/BLE_1.c ****     *******************************************************************************/
 853:.\Generated_Source\PSoC4/BLE_1.c ****     void CyBle_GapcStopScan(void)
 854:.\Generated_Source\PSoC4/BLE_1.c ****     {
 855:.\Generated_Source\PSoC4/BLE_1.c ****         CyBle_GapcStopDiscovery();
 856:.\Generated_Source\PSoC4/BLE_1.c ****         
 857:.\Generated_Source\PSoC4/BLE_1.c ****         cyBle_eventHandlerFlag |= CYBLE_STOP_FLAG;
 858:.\Generated_Source\PSoC4/BLE_1.c ****     }
 859:.\Generated_Source\PSoC4/BLE_1.c **** 
 860:.\Generated_Source\PSoC4/BLE_1.c ****     
 861:.\Generated_Source\PSoC4/BLE_1.c **** #endif /* CYBLE_GAP_ROLE_CENTRAL || CYBLE_GAP_ROLE_OBSERVER */
 862:.\Generated_Source\PSoC4/BLE_1.c **** 
 863:.\Generated_Source\PSoC4/BLE_1.c **** 
 864:.\Generated_Source\PSoC4/BLE_1.c **** #if(CYBLE_GAP_ROLE_CENTRAL)
 865:.\Generated_Source\PSoC4/BLE_1.c **** 
 866:.\Generated_Source\PSoC4/BLE_1.c ****     /******************************************************************************
 867:.\Generated_Source\PSoC4/BLE_1.c ****     * Function Name: CyBle_GapcConnectDevice
 868:.\Generated_Source\PSoC4/BLE_1.c ****     ***************************************************************************//**
 869:.\Generated_Source\PSoC4/BLE_1.c ****     * 
 870:.\Generated_Source\PSoC4/BLE_1.c ****     *  This function is used to send a connection request to the remote device with
ARM GAS  C:\Users\ilias\AppData\Local\Temp\ccbZWpbs.s 			page 31


 871:.\Generated_Source\PSoC4/BLE_1.c ****     *  the connection parameters set in the component customizer. This function needs
 872:.\Generated_Source\PSoC4/BLE_1.c ****     *  to be called only once after the target device is discovered by 
 873:.\Generated_Source\PSoC4/BLE_1.c ****     *  CyBle_GapcStartScan() and further scanning has stopped. Scanning is 
 874:.\Generated_Source\PSoC4/BLE_1.c ****     *  successfully stopped on invoking CyBle_GapcStopScan() and then receiving the
 875:.\Generated_Source\PSoC4/BLE_1.c ****     *  event CYBLE_EVT_GAPC_SCAN_START_STOP with sub-parameter 'success' = 0x01u.
 876:.\Generated_Source\PSoC4/BLE_1.c ****     *  
 877:.\Generated_Source\PSoC4/BLE_1.c ****     *  On successful connection, the following events are generated at the GAP 
 878:.\Generated_Source\PSoC4/BLE_1.c ****     *  Central device (as well as the GAP Peripheral device), in the following order.
 879:.\Generated_Source\PSoC4/BLE_1.c ****     *  * CYBLE_EVT_GATT_CONNECT_IND
 880:.\Generated_Source\PSoC4/BLE_1.c ****     *  * CYBLE_EVT_GAP_DEVICE_CONNECTED
 881:.\Generated_Source\PSoC4/BLE_1.c ****     *  
 882:.\Generated_Source\PSoC4/BLE_1.c ****     *  A procedure is considered to have timed out if a connection response packet is 
 883:.\Generated_Source\PSoC4/BLE_1.c ****     *  not received within time set by cyBle_connectingTimeout global variable
 884:.\Generated_Source\PSoC4/BLE_1.c ****     *  (30 seconds by default). CYBLE_EVT_TIMEOUT event with CYBLE_GENERIC_TO parameter
 885:.\Generated_Source\PSoC4/BLE_1.c ****     *  will indicate about connection procedure timeout. Connection will automatically
 886:.\Generated_Source\PSoC4/BLE_1.c ****     *  be canceled and state will be changed to CYBLE_STATE_DISCONNECTED.
 887:.\Generated_Source\PSoC4/BLE_1.c ****     * 
 888:.\Generated_Source\PSoC4/BLE_1.c ****     *  \param address: The device address of the remote device to connect to. 
 889:.\Generated_Source\PSoC4/BLE_1.c ****     *  \param timeout: Timeout for which timer to be started in seconds.
 890:.\Generated_Source\PSoC4/BLE_1.c ****     *  
 891:.\Generated_Source\PSoC4/BLE_1.c ****     * \return
 892:.\Generated_Source\PSoC4/BLE_1.c ****     *  CYBLE_API_RESULT_T : Return value indicates if the function succeeded or 
 893:.\Generated_Source\PSoC4/BLE_1.c ****     *  failed. Following are the possible error codes.
 894:.\Generated_Source\PSoC4/BLE_1.c ****     *
 895:.\Generated_Source\PSoC4/BLE_1.c ****     *   Errors codes                       | Description
 896:.\Generated_Source\PSoC4/BLE_1.c ****     *   ------------                       | -----------
 897:.\Generated_Source\PSoC4/BLE_1.c ****     *   CYBLE_ERROR_OK                     | On successful operation.
 898:.\Generated_Source\PSoC4/BLE_1.c ****     *   CYBLE_ERROR_STACK_INTERNAL         | On error occurred in the BLE stack.
 899:.\Generated_Source\PSoC4/BLE_1.c ****     *   CYBLE_ERROR_INVALID_PARAMETER      | On passing an invalid parameter.
 900:.\Generated_Source\PSoC4/BLE_1.c ****     *   CYBLE_ERROR_INVALID_STATE          | On calling this API not in Disconnected state.
 901:.\Generated_Source\PSoC4/BLE_1.c ****     *  
 902:.\Generated_Source\PSoC4/BLE_1.c ****     ******************************************************************************/
 903:.\Generated_Source\PSoC4/BLE_1.c ****     CYBLE_API_RESULT_T CyBle_GapcConnectDevice(const CYBLE_GAP_BD_ADDR_T * address)
 904:.\Generated_Source\PSoC4/BLE_1.c ****     {
 905:.\Generated_Source\PSoC4/BLE_1.c ****         CYBLE_API_RESULT_T apiResult;
 906:.\Generated_Source\PSoC4/BLE_1.c ****         uint8 i;
 907:.\Generated_Source\PSoC4/BLE_1.c **** 
 908:.\Generated_Source\PSoC4/BLE_1.c ****         if(CYBLE_STATE_DISCONNECTED != CyBle_GetState())
 909:.\Generated_Source\PSoC4/BLE_1.c ****         {
 910:.\Generated_Source\PSoC4/BLE_1.c ****             apiResult = CYBLE_ERROR_INVALID_STATE;
 911:.\Generated_Source\PSoC4/BLE_1.c ****         }
 912:.\Generated_Source\PSoC4/BLE_1.c ****         else if(address == NULL)
 913:.\Generated_Source\PSoC4/BLE_1.c ****         {
 914:.\Generated_Source\PSoC4/BLE_1.c ****             apiResult = CYBLE_ERROR_INVALID_PARAMETER;
 915:.\Generated_Source\PSoC4/BLE_1.c ****         }
 916:.\Generated_Source\PSoC4/BLE_1.c ****         else
 917:.\Generated_Source\PSoC4/BLE_1.c ****         {
 918:.\Generated_Source\PSoC4/BLE_1.c ****             for(i = 0u; i < CYBLE_GAP_BD_ADDR_SIZE; i++)
 919:.\Generated_Source\PSoC4/BLE_1.c ****             {
 920:.\Generated_Source\PSoC4/BLE_1.c ****                 cyBle_connectionParameters.peerBdAddr[i] = address->bdAddr[i];
 921:.\Generated_Source\PSoC4/BLE_1.c ****             }
 922:.\Generated_Source\PSoC4/BLE_1.c ****             cyBle_connectionParameters.peerAddrType = address -> type;
 923:.\Generated_Source\PSoC4/BLE_1.c ****             apiResult = CyBle_GapcInitConnection(&cyBle_connectionParameters);
 924:.\Generated_Source\PSoC4/BLE_1.c ****             
 925:.\Generated_Source\PSoC4/BLE_1.c ****             if(CYBLE_ERROR_OK == apiResult)
 926:.\Generated_Source\PSoC4/BLE_1.c ****             {
 927:.\Generated_Source\PSoC4/BLE_1.c ****                 CyBle_SetState(CYBLE_STATE_CONNECTING);
ARM GAS  C:\Users\ilias\AppData\Local\Temp\ccbZWpbs.s 			page 32


 928:.\Generated_Source\PSoC4/BLE_1.c ****                 if(cyBle_connectingTimeout != 0u)
 929:.\Generated_Source\PSoC4/BLE_1.c ****                 {
 930:.\Generated_Source\PSoC4/BLE_1.c ****                     (void)CyBle_StartTimer(cyBle_connectingTimeout);
 931:.\Generated_Source\PSoC4/BLE_1.c ****                 }
 932:.\Generated_Source\PSoC4/BLE_1.c ****             }
 933:.\Generated_Source\PSoC4/BLE_1.c ****         }
 934:.\Generated_Source\PSoC4/BLE_1.c ****         return (apiResult);
 935:.\Generated_Source\PSoC4/BLE_1.c ****     }
 936:.\Generated_Source\PSoC4/BLE_1.c ****     
 937:.\Generated_Source\PSoC4/BLE_1.c **** 
 938:.\Generated_Source\PSoC4/BLE_1.c ****     /******************************************************************************
 939:.\Generated_Source\PSoC4/BLE_1.c ****     * Function Name: CyBle_GapcCancelDeviceConnection
 940:.\Generated_Source\PSoC4/BLE_1.c ****     ***************************************************************************//**
 941:.\Generated_Source\PSoC4/BLE_1.c ****     * 
 942:.\Generated_Source\PSoC4/BLE_1.c ****     *  This function cancels a previously initiated connection with the remote 
 943:.\Generated_Source\PSoC4/BLE_1.c ****     *  device. It is a blocking function. No event is generated on calling this 
 944:.\Generated_Source\PSoC4/BLE_1.c ****     *  function. If the devices are already connected then this function should not
 945:.\Generated_Source\PSoC4/BLE_1.c ****     *  be used. If you intend to disconnect from an existing connection, the function
 946:.\Generated_Source\PSoC4/BLE_1.c ****     *  CyBle_GapDisconnect() should be used.
 947:.\Generated_Source\PSoC4/BLE_1.c ****     * 
 948:.\Generated_Source\PSoC4/BLE_1.c ****     * \return
 949:.\Generated_Source\PSoC4/BLE_1.c ****     *  CYBLE_API_RESULT_T : Return value indicates if the function succeeded or 
 950:.\Generated_Source\PSoC4/BLE_1.c ****     *  failed. Following are the possible error codes.
 951:.\Generated_Source\PSoC4/BLE_1.c ****     *
 952:.\Generated_Source\PSoC4/BLE_1.c ****     *   Errors codes                       | Description
 953:.\Generated_Source\PSoC4/BLE_1.c ****     *   ---------------------------------- | --------------------------------------
 954:.\Generated_Source\PSoC4/BLE_1.c ****     *   CYBLE_ERROR_OK                     | On successful operation.
 955:.\Generated_Source\PSoC4/BLE_1.c ****     *   CYBLE_ERROR_STACK_INTERNAL         | An error occurred in the BLE stack.
 956:.\Generated_Source\PSoC4/BLE_1.c ****     *   CYBLE_ERROR_INVALID_OPERATION      | Device is already connected.
 957:.\Generated_Source\PSoC4/BLE_1.c ****     *  
 958:.\Generated_Source\PSoC4/BLE_1.c ****     *******************************************************************************/
 959:.\Generated_Source\PSoC4/BLE_1.c ****     CYBLE_API_RESULT_T CyBle_GapcCancelDeviceConnection(void)
 960:.\Generated_Source\PSoC4/BLE_1.c ****     {
 961:.\Generated_Source\PSoC4/BLE_1.c ****         CYBLE_API_RESULT_T apiResult;
 962:.\Generated_Source\PSoC4/BLE_1.c ****         
 963:.\Generated_Source\PSoC4/BLE_1.c ****         apiResult = CyBle_GapcCancelConnection();
 964:.\Generated_Source\PSoC4/BLE_1.c ****             
 965:.\Generated_Source\PSoC4/BLE_1.c ****         if(cyBle_connectingTimeout != 0u)
 966:.\Generated_Source\PSoC4/BLE_1.c ****         {
 967:.\Generated_Source\PSoC4/BLE_1.c ****             (void)CyBle_StopTimer();
 968:.\Generated_Source\PSoC4/BLE_1.c ****         }
 969:.\Generated_Source\PSoC4/BLE_1.c **** 
 970:.\Generated_Source\PSoC4/BLE_1.c ****         if(CYBLE_ERROR_OK == apiResult)
 971:.\Generated_Source\PSoC4/BLE_1.c ****         {
 972:.\Generated_Source\PSoC4/BLE_1.c ****             CyBle_SetState(CYBLE_STATE_DISCONNECTED);
 973:.\Generated_Source\PSoC4/BLE_1.c ****         }
 974:.\Generated_Source\PSoC4/BLE_1.c ****         return (apiResult);
 975:.\Generated_Source\PSoC4/BLE_1.c ****     }    
 976:.\Generated_Source\PSoC4/BLE_1.c **** 
 977:.\Generated_Source\PSoC4/BLE_1.c ****     
 978:.\Generated_Source\PSoC4/BLE_1.c **** #endif /* CYBLE_GAP_ROLE_CENTRAL */
 979:.\Generated_Source\PSoC4/BLE_1.c **** 
 980:.\Generated_Source\PSoC4/BLE_1.c **** 
 981:.\Generated_Source\PSoC4/BLE_1.c **** #if(CYBLE_GATT_ROLE_SERVER)
 982:.\Generated_Source\PSoC4/BLE_1.c **** 
 983:.\Generated_Source\PSoC4/BLE_1.c **** #if(CYBLE_GAP_ROLE_PERIPHERAL)
 984:.\Generated_Source\PSoC4/BLE_1.c **** 
ARM GAS  C:\Users\ilias\AppData\Local\Temp\ccbZWpbs.s 			page 33


 985:.\Generated_Source\PSoC4/BLE_1.c ****         /******************************************************************************
 986:.\Generated_Source\PSoC4/BLE_1.c ****         * Function Name: CyBle_ChangeAdLocalName
 987:.\Generated_Source\PSoC4/BLE_1.c ****         ***************************************************************************//**
 988:.\Generated_Source\PSoC4/BLE_1.c ****         *  This API is used to set the local device name in the advertisement or scan 
 989:.\Generated_Source\PSoC4/BLE_1.c ****         *  response data structure.
 990:.\Generated_Source\PSoC4/BLE_1.c ****         * 
 991:.\Generated_Source\PSoC4/BLE_1.c ****         *  \param name: The local device name string to be set in advertisement data 
 992:.\Generated_Source\PSoC4/BLE_1.c ****         *            structure.
 993:.\Generated_Source\PSoC4/BLE_1.c ****         *  \param dest: 0 - advertisement structure, not zero value selects scan response
 994:.\Generated_Source\PSoC4/BLE_1.c ****         *              structure.
 995:.\Generated_Source\PSoC4/BLE_1.c ****         * 
 996:.\Generated_Source\PSoC4/BLE_1.c ****         * \return
 997:.\Generated_Source\PSoC4/BLE_1.c ****         *  None
 998:.\Generated_Source\PSoC4/BLE_1.c ****         *  
 999:.\Generated_Source\PSoC4/BLE_1.c ****         *******************************************************************************/
1000:.\Generated_Source\PSoC4/BLE_1.c ****         static void CyBle_ChangeAdLocalName(const char8 name[], uint8 dest)
1001:.\Generated_Source\PSoC4/BLE_1.c ****         {
 824              		.loc 1 1001 0
 825              		.cfi_startproc
 826 0000 80B5     		push	{r7, lr}
 827              		.cfi_def_cfa_offset 8
 828              		.cfi_offset 7, -8
 829              		.cfi_offset 14, -4
 830 0002 86B0     		sub	sp, sp, #24
 831              		.cfi_def_cfa_offset 32
 832 0004 00AF     		add	r7, sp, #0
 833              		.cfi_def_cfa_register 7
 834 0006 7860     		str	r0, [r7, #4]
 835 0008 0A1C     		mov	r2, r1
 836 000a FB1C     		add	r3, r7, #3
 837 000c 1A70     		strb	r2, [r3]
1002:.\Generated_Source\PSoC4/BLE_1.c ****             uint8 i;
1003:.\Generated_Source\PSoC4/BLE_1.c ****             uint8 flag = 0u;
 838              		.loc 1 1003 0
 839 000e 1623     		mov	r3, #22
 840 0010 FB18     		add	r3, r7, r3
 841 0012 0022     		mov	r2, #0
 842 0014 1A70     		strb	r2, [r3]
1004:.\Generated_Source\PSoC4/BLE_1.c ****             uint8 adLength = 0u;
 843              		.loc 1 1004 0
 844 0016 1523     		mov	r3, #21
 845 0018 FB18     		add	r3, r7, r3
 846 001a 0022     		mov	r2, #0
 847 001c 1A70     		strb	r2, [r3]
1005:.\Generated_Source\PSoC4/BLE_1.c ****             uint8 byteCounter = 0u;
 848              		.loc 1 1005 0
 849 001e 1423     		mov	r3, #20
 850 0020 FB18     		add	r3, r7, r3
 851 0022 0022     		mov	r2, #0
 852 0024 1A70     		strb	r2, [r3]
1006:.\Generated_Source\PSoC4/BLE_1.c ****             uint8 *destBuffer;
1007:.\Generated_Source\PSoC4/BLE_1.c ****             uint8 maxLength;
1008:.\Generated_Source\PSoC4/BLE_1.c ****             
1009:.\Generated_Source\PSoC4/BLE_1.c ****             if(dest == 0u)      /* Destination - advertising structure */
 853              		.loc 1 1009 0
 854 0026 FB1C     		add	r3, r7, #3
 855 0028 1B78     		ldrb	r3, [r3]
ARM GAS  C:\Users\ilias\AppData\Local\Temp\ccbZWpbs.s 			page 34


 856 002a 002B     		cmp	r3, #0
 857 002c 07D1     		bne	.L41
1010:.\Generated_Source\PSoC4/BLE_1.c ****             {
1011:.\Generated_Source\PSoC4/BLE_1.c ****                 destBuffer = cyBle_discoveryData.advData;
 858              		.loc 1 1011 0
 859 002e 5B4B     		ldr	r3, .L56
 860 0030 3B61     		str	r3, [r7, #16]
1012:.\Generated_Source\PSoC4/BLE_1.c ****                 maxLength = cyBle_discoveryData.advDataLen;
 861              		.loc 1 1012 0
 862 0032 0F23     		mov	r3, #15
 863 0034 FB18     		add	r3, r7, r3
 864 0036 594A     		ldr	r2, .L56
 865 0038 D27F     		ldrb	r2, [r2, #31]
 866 003a 1A70     		strb	r2, [r3]
 867 003c 06E0     		b	.L42
 868              	.L41:
1013:.\Generated_Source\PSoC4/BLE_1.c ****             }
1014:.\Generated_Source\PSoC4/BLE_1.c ****             else                /* Destination - scan response structure */
1015:.\Generated_Source\PSoC4/BLE_1.c ****             {
1016:.\Generated_Source\PSoC4/BLE_1.c ****                 destBuffer = cyBle_scanRspData.scanRspData;
 869              		.loc 1 1016 0
 870 003e 584B     		ldr	r3, .L56+4
 871 0040 3B61     		str	r3, [r7, #16]
1017:.\Generated_Source\PSoC4/BLE_1.c ****                 maxLength = cyBle_scanRspData.scanRspDataLen;
 872              		.loc 1 1017 0
 873 0042 0F23     		mov	r3, #15
 874 0044 FB18     		add	r3, r7, r3
 875 0046 564A     		ldr	r2, .L56+4
 876 0048 D27F     		ldrb	r2, [r2, #31]
 877 004a 1A70     		strb	r2, [r3]
 878              	.L42:
1018:.\Generated_Source\PSoC4/BLE_1.c ****             }
1019:.\Generated_Source\PSoC4/BLE_1.c ****             
1020:.\Generated_Source\PSoC4/BLE_1.c ****             while((byteCounter < maxLength) && (0u == flag))
 879              		.loc 1 1020 0
 880 004c 35E0     		b	.L43
 881              	.L49:
1021:.\Generated_Source\PSoC4/BLE_1.c ****             {
1022:.\Generated_Source\PSoC4/BLE_1.c ****                 adLength = destBuffer[byteCounter];
 882              		.loc 1 1022 0
 883 004e 1423     		mov	r3, #20
 884 0050 FB18     		add	r3, r7, r3
 885 0052 1B78     		ldrb	r3, [r3]
 886 0054 3A69     		ldr	r2, [r7, #16]
 887 0056 D218     		add	r2, r2, r3
 888 0058 1523     		mov	r3, #21
 889 005a FB18     		add	r3, r7, r3
 890 005c 1278     		ldrb	r2, [r2]
 891 005e 1A70     		strb	r2, [r3]
1023:.\Generated_Source\PSoC4/BLE_1.c ****                 
1024:.\Generated_Source\PSoC4/BLE_1.c ****                 if(0u != adLength)
 892              		.loc 1 1024 0
 893 0060 1523     		mov	r3, #21
 894 0062 FB18     		add	r3, r7, r3
 895 0064 1B78     		ldrb	r3, [r3]
 896 0066 002B     		cmp	r3, #0
 897 0068 26D0     		beq	.L44
ARM GAS  C:\Users\ilias\AppData\Local\Temp\ccbZWpbs.s 			page 35


1025:.\Generated_Source\PSoC4/BLE_1.c ****                 {
1026:.\Generated_Source\PSoC4/BLE_1.c ****                     /* Increment byte counter so it can point to AD type */
1027:.\Generated_Source\PSoC4/BLE_1.c ****                     byteCounter++;
 898              		.loc 1 1027 0
 899 006a 1423     		mov	r3, #20
 900 006c FB18     		add	r3, r7, r3
 901 006e 1A78     		ldrb	r2, [r3]
 902 0070 1423     		mov	r3, #20
 903 0072 FB18     		add	r3, r7, r3
 904 0074 0132     		add	r2, r2, #1
 905 0076 1A70     		strb	r2, [r3]
1028:.\Generated_Source\PSoC4/BLE_1.c ****                     
1029:.\Generated_Source\PSoC4/BLE_1.c ****                     if((CYBLE_SHORT_LOCAL_NAME == destBuffer[byteCounter]) || 
 906              		.loc 1 1029 0
 907 0078 1423     		mov	r3, #20
 908 007a FB18     		add	r3, r7, r3
 909 007c 1B78     		ldrb	r3, [r3]
 910 007e 3A69     		ldr	r2, [r7, #16]
 911 0080 D318     		add	r3, r2, r3
 912 0082 1B78     		ldrb	r3, [r3]
 913 0084 082B     		cmp	r3, #8
 914 0086 07D0     		beq	.L45
1030:.\Generated_Source\PSoC4/BLE_1.c ****                        (CYBLE_COMPLETE_LOCAL_NAME == destBuffer[byteCounter]))
 915              		.loc 1 1030 0 discriminator 1
 916 0088 1423     		mov	r3, #20
 917 008a FB18     		add	r3, r7, r3
 918 008c 1B78     		ldrb	r3, [r3]
 919 008e 3A69     		ldr	r2, [r7, #16]
 920 0090 D318     		add	r3, r2, r3
 921 0092 1B78     		ldrb	r3, [r3]
1029:.\Generated_Source\PSoC4/BLE_1.c ****                        (CYBLE_COMPLETE_LOCAL_NAME == destBuffer[byteCounter]))
 922              		.loc 1 1029 0 discriminator 1
 923 0094 092B     		cmp	r3, #9
 924 0096 04D1     		bne	.L46
 925              	.L45:
1031:.\Generated_Source\PSoC4/BLE_1.c ****                     {
1032:.\Generated_Source\PSoC4/BLE_1.c ****                         /* Start of the Local Name AD type was fount. Set flag and exit the loop. *
1033:.\Generated_Source\PSoC4/BLE_1.c ****                         flag = 1u;
 926              		.loc 1 1033 0
 927 0098 1623     		mov	r3, #22
 928 009a FB18     		add	r3, r7, r3
 929 009c 0122     		mov	r2, #1
 930 009e 1A70     		strb	r2, [r3]
 931 00a0 09E0     		b	.L47
 932              	.L46:
1034:.\Generated_Source\PSoC4/BLE_1.c ****                     }
1035:.\Generated_Source\PSoC4/BLE_1.c ****                     else
1036:.\Generated_Source\PSoC4/BLE_1.c ****                     {
1037:.\Generated_Source\PSoC4/BLE_1.c ****                         byteCounter += adLength;
 933              		.loc 1 1037 0
 934 00a2 1423     		mov	r3, #20
 935 00a4 FB18     		add	r3, r7, r3
 936 00a6 1422     		mov	r2, #20
 937 00a8 B918     		add	r1, r7, r2
 938 00aa 1522     		mov	r2, #21
 939 00ac BA18     		add	r2, r7, r2
 940 00ae 0978     		ldrb	r1, [r1]
ARM GAS  C:\Users\ilias\AppData\Local\Temp\ccbZWpbs.s 			page 36


 941 00b0 1278     		ldrb	r2, [r2]
 942 00b2 8A18     		add	r2, r1, r2
 943 00b4 1A70     		strb	r2, [r3]
 944              	.L47:
 945 00b6 00E0     		b	.L43
 946              	.L44:
1038:.\Generated_Source\PSoC4/BLE_1.c ****                     }
1039:.\Generated_Source\PSoC4/BLE_1.c ****                 }
1040:.\Generated_Source\PSoC4/BLE_1.c ****                 else
1041:.\Generated_Source\PSoC4/BLE_1.c ****                 {
1042:.\Generated_Source\PSoC4/BLE_1.c ****                     /* The end of advertisement data structure was encountered though exit the loop
1043:.\Generated_Source\PSoC4/BLE_1.c ****                     break;
 947              		.loc 1 1043 0
 948 00b8 0CE0     		b	.L48
 949              	.L43:
1020:.\Generated_Source\PSoC4/BLE_1.c ****             {
 950              		.loc 1 1020 0
 951 00ba 1423     		mov	r3, #20
 952 00bc FA18     		add	r2, r7, r3
 953 00be 0F23     		mov	r3, #15
 954 00c0 FB18     		add	r3, r7, r3
 955 00c2 1278     		ldrb	r2, [r2]
 956 00c4 1B78     		ldrb	r3, [r3]
 957 00c6 9A42     		cmp	r2, r3
 958 00c8 04D2     		bcs	.L48
1020:.\Generated_Source\PSoC4/BLE_1.c ****             {
 959              		.loc 1 1020 0 is_stmt 0 discriminator 1
 960 00ca 1623     		mov	r3, #22
 961 00cc FB18     		add	r3, r7, r3
 962 00ce 1B78     		ldrb	r3, [r3]
 963 00d0 002B     		cmp	r3, #0
 964 00d2 BCD0     		beq	.L49
 965              	.L48:
1044:.\Generated_Source\PSoC4/BLE_1.c ****                 }
1045:.\Generated_Source\PSoC4/BLE_1.c ****             }
1046:.\Generated_Source\PSoC4/BLE_1.c ****             
1047:.\Generated_Source\PSoC4/BLE_1.c ****             if(0u != flag)
 966              		.loc 1 1047 0 is_stmt 1
 967 00d4 1623     		mov	r3, #22
 968 00d6 FB18     		add	r3, r7, r3
 969 00d8 1B78     		ldrb	r3, [r3]
 970 00da 002B     		cmp	r3, #0
 971 00dc 5BD0     		beq	.L40
1048:.\Generated_Source\PSoC4/BLE_1.c ****             {
1049:.\Generated_Source\PSoC4/BLE_1.c ****                 /* Reuse "adLength" to hold location of the last character of local name in 
1050:.\Generated_Source\PSoC4/BLE_1.c ****                    AD structure. */
1051:.\Generated_Source\PSoC4/BLE_1.c ****                 adLength += byteCounter;
 972              		.loc 1 1051 0
 973 00de 1523     		mov	r3, #21
 974 00e0 FB18     		add	r3, r7, r3
 975 00e2 1522     		mov	r2, #21
 976 00e4 B918     		add	r1, r7, r2
 977 00e6 1422     		mov	r2, #20
 978 00e8 BA18     		add	r2, r7, r2
 979 00ea 0978     		ldrb	r1, [r1]
 980 00ec 1278     		ldrb	r2, [r2]
 981 00ee 8A18     		add	r2, r1, r2
ARM GAS  C:\Users\ilias\AppData\Local\Temp\ccbZWpbs.s 			page 37


 982 00f0 1A70     		strb	r2, [r3]
1052:.\Generated_Source\PSoC4/BLE_1.c ****                 
1053:.\Generated_Source\PSoC4/BLE_1.c ****                 /* Increment byte counter to point to start of the local Name string */
1054:.\Generated_Source\PSoC4/BLE_1.c ****                 byteCounter++;
 983              		.loc 1 1054 0
 984 00f2 1423     		mov	r3, #20
 985 00f4 FB18     		add	r3, r7, r3
 986 00f6 1A78     		ldrb	r2, [r3]
 987 00f8 1423     		mov	r3, #20
 988 00fa FB18     		add	r3, r7, r3
 989 00fc 0132     		add	r2, r2, #1
 990 00fe 1A70     		strb	r2, [r3]
1055:.\Generated_Source\PSoC4/BLE_1.c ****                 
1056:.\Generated_Source\PSoC4/BLE_1.c ****                 for(i = byteCounter; ((i < (adLength)) && (CYBLE_NULL_CHARCTER != name[i - byteCoun
 991              		.loc 1 1056 0
 992 0100 1723     		mov	r3, #23
 993 0102 FB18     		add	r3, r7, r3
 994 0104 1422     		mov	r2, #20
 995 0106 BA18     		add	r2, r7, r2
 996 0108 1278     		ldrb	r2, [r2]
 997 010a 1A70     		strb	r2, [r3]
 998 010c 17E0     		b	.L51
 999              	.L53:
1057:.\Generated_Source\PSoC4/BLE_1.c ****                 {
1058:.\Generated_Source\PSoC4/BLE_1.c ****                     destBuffer[i] = (uint8)name[i - byteCounter];
 1000              		.loc 1 1058 0 discriminator 4
 1001 010e 1723     		mov	r3, #23
 1002 0110 FB18     		add	r3, r7, r3
 1003 0112 1B78     		ldrb	r3, [r3]
 1004 0114 3A69     		ldr	r2, [r7, #16]
 1005 0116 D318     		add	r3, r2, r3
 1006 0118 1722     		mov	r2, #23
 1007 011a BA18     		add	r2, r7, r2
 1008 011c 1178     		ldrb	r1, [r2]
 1009 011e 1422     		mov	r2, #20
 1010 0120 BA18     		add	r2, r7, r2
 1011 0122 1278     		ldrb	r2, [r2]
 1012 0124 8A1A     		sub	r2, r1, r2
 1013 0126 111C     		mov	r1, r2
 1014 0128 7A68     		ldr	r2, [r7, #4]
 1015 012a 5218     		add	r2, r2, r1
 1016 012c 1278     		ldrb	r2, [r2]
 1017 012e 1A70     		strb	r2, [r3]
1056:.\Generated_Source\PSoC4/BLE_1.c ****                 {
 1018              		.loc 1 1056 0 discriminator 4
 1019 0130 1723     		mov	r3, #23
 1020 0132 FB18     		add	r3, r7, r3
 1021 0134 1A78     		ldrb	r2, [r3]
 1022 0136 1723     		mov	r3, #23
 1023 0138 FB18     		add	r3, r7, r3
 1024 013a 0132     		add	r2, r2, #1
 1025 013c 1A70     		strb	r2, [r3]
 1026              	.L51:
1056:.\Generated_Source\PSoC4/BLE_1.c ****                 {
 1027              		.loc 1 1056 0 is_stmt 0 discriminator 1
 1028 013e 1723     		mov	r3, #23
 1029 0140 FA18     		add	r2, r7, r3
ARM GAS  C:\Users\ilias\AppData\Local\Temp\ccbZWpbs.s 			page 38


 1030 0142 1523     		mov	r3, #21
 1031 0144 FB18     		add	r3, r7, r3
 1032 0146 1278     		ldrb	r2, [r2]
 1033 0148 1B78     		ldrb	r3, [r3]
 1034 014a 9A42     		cmp	r2, r3
 1035 014c 0CD2     		bcs	.L52
1056:.\Generated_Source\PSoC4/BLE_1.c ****                 {
 1036              		.loc 1 1056 0 discriminator 3
 1037 014e 1723     		mov	r3, #23
 1038 0150 FB18     		add	r3, r7, r3
 1039 0152 1A78     		ldrb	r2, [r3]
 1040 0154 1423     		mov	r3, #20
 1041 0156 FB18     		add	r3, r7, r3
 1042 0158 1B78     		ldrb	r3, [r3]
 1043 015a D31A     		sub	r3, r2, r3
 1044 015c 1A1C     		mov	r2, r3
 1045 015e 7B68     		ldr	r3, [r7, #4]
 1046 0160 9B18     		add	r3, r3, r2
 1047 0162 1B78     		ldrb	r3, [r3]
 1048 0164 002B     		cmp	r3, #0
 1049 0166 D2D1     		bne	.L53
 1050              	.L52:
1059:.\Generated_Source\PSoC4/BLE_1.c ****                 }
1060:.\Generated_Source\PSoC4/BLE_1.c ****                 
1061:.\Generated_Source\PSoC4/BLE_1.c ****                 /* This loop handles the case when new local name is shorted than old one.
1062:.\Generated_Source\PSoC4/BLE_1.c ****                    In this case all remaining characters should be null characters. */
1063:.\Generated_Source\PSoC4/BLE_1.c ****                 while(adLength > i)
 1051              		.loc 1 1063 0 is_stmt 1
 1052 0168 0DE0     		b	.L54
 1053              	.L55:
1064:.\Generated_Source\PSoC4/BLE_1.c ****                 {
1065:.\Generated_Source\PSoC4/BLE_1.c ****                     /* Terminate string */
1066:.\Generated_Source\PSoC4/BLE_1.c ****                     destBuffer[i] = (uint8)CYBLE_NULL_CHARCTER;
 1054              		.loc 1 1066 0
 1055 016a 1723     		mov	r3, #23
 1056 016c FB18     		add	r3, r7, r3
 1057 016e 1B78     		ldrb	r3, [r3]
 1058 0170 3A69     		ldr	r2, [r7, #16]
 1059 0172 D318     		add	r3, r2, r3
 1060 0174 0022     		mov	r2, #0
 1061 0176 1A70     		strb	r2, [r3]
1067:.\Generated_Source\PSoC4/BLE_1.c ****                     i++;
 1062              		.loc 1 1067 0
 1063 0178 1723     		mov	r3, #23
 1064 017a FB18     		add	r3, r7, r3
 1065 017c 1A78     		ldrb	r2, [r3]
 1066 017e 1723     		mov	r3, #23
 1067 0180 FB18     		add	r3, r7, r3
 1068 0182 0132     		add	r2, r2, #1
 1069 0184 1A70     		strb	r2, [r3]
 1070              	.L54:
1063:.\Generated_Source\PSoC4/BLE_1.c ****                 {
 1071              		.loc 1 1063 0
 1072 0186 1523     		mov	r3, #21
 1073 0188 FA18     		add	r2, r7, r3
 1074 018a 1723     		mov	r3, #23
 1075 018c FB18     		add	r3, r7, r3
ARM GAS  C:\Users\ilias\AppData\Local\Temp\ccbZWpbs.s 			page 39


 1076 018e 1278     		ldrb	r2, [r2]
 1077 0190 1B78     		ldrb	r3, [r3]
 1078 0192 9A42     		cmp	r2, r3
 1079 0194 E9D8     		bhi	.L55
 1080              	.L40:
1068:.\Generated_Source\PSoC4/BLE_1.c ****                 }
1069:.\Generated_Source\PSoC4/BLE_1.c ****             }
1070:.\Generated_Source\PSoC4/BLE_1.c ****         }
 1081              		.loc 1 1070 0
 1082 0196 BD46     		mov	sp, r7
 1083 0198 06B0     		add	sp, sp, #24
 1084              		@ sp needed
 1085 019a 80BD     		pop	{r7, pc}
 1086              	.L57:
 1087              		.align	2
 1088              	.L56:
 1089 019c 00000000 		.word	cyBle_discoveryData
 1090 01a0 00000000 		.word	cyBle_scanRspData
 1091              		.cfi_endproc
 1092              	.LFE10:
 1093              		.size	CyBle_ChangeAdLocalName, .-CyBle_ChangeAdLocalName
 1094              		.section	.text.CyBle_GapSetLocalName,"ax",%progbits
 1095              		.align	2
 1096              		.global	CyBle_GapSetLocalName
 1097              		.code	16
 1098              		.thumb_func
 1099              		.type	CyBle_GapSetLocalName, %function
 1100              	CyBle_GapSetLocalName:
 1101              	.LFB11:
1071:.\Generated_Source\PSoC4/BLE_1.c ****         
1072:.\Generated_Source\PSoC4/BLE_1.c **** #endif /* (CYBLE_GAP_ROLE_PERIPHERAL) */  
1073:.\Generated_Source\PSoC4/BLE_1.c ****     
1074:.\Generated_Source\PSoC4/BLE_1.c ****     
1075:.\Generated_Source\PSoC4/BLE_1.c ****     /******************************************************************************
1076:.\Generated_Source\PSoC4/BLE_1.c ****     * Function Name: CyBle_GapSetLocalName
1077:.\Generated_Source\PSoC4/BLE_1.c ****     ***************************************************************************//**
1078:.\Generated_Source\PSoC4/BLE_1.c ****     *  This API is used to set the local device name - a Characteristic of the 
1079:.\Generated_Source\PSoC4/BLE_1.c ****     *  GAP Service. If the characteristic length entered in the component customizer
1080:.\Generated_Source\PSoC4/BLE_1.c ****     *  is shorter than the string specified by the "name" parameter, the local device
1081:.\Generated_Source\PSoC4/BLE_1.c ****     *  name will be cut to the length specified in the customizer.
1082:.\Generated_Source\PSoC4/BLE_1.c ****     * 
1083:.\Generated_Source\PSoC4/BLE_1.c ****     *  \param name: The local device name string. The name string to be written as
1084:.\Generated_Source\PSoC4/BLE_1.c ****     *              the local device name. It represents a UTF-8 encoded User
1085:.\Generated_Source\PSoC4/BLE_1.c ****     *              Friendly Descriptive Name for the device. The length of the local
1086:.\Generated_Source\PSoC4/BLE_1.c ****     *              device string is entered into the component customizer and it can
1087:.\Generated_Source\PSoC4/BLE_1.c ****     *              be set to a value from 0 to 248 bytes. If the name contained in
1088:.\Generated_Source\PSoC4/BLE_1.c ****     *              the parameter is shorter than the length from the customizer, the
1089:.\Generated_Source\PSoC4/BLE_1.c ****     *              end of the name is indicated by a NULL octet (0x00).
1090:.\Generated_Source\PSoC4/BLE_1.c ****     * 
1091:.\Generated_Source\PSoC4/BLE_1.c ****     * \return
1092:.\Generated_Source\PSoC4/BLE_1.c ****     *  CYBLE_API_RESULT_T : Return value indicates if the function succeeded or 
1093:.\Generated_Source\PSoC4/BLE_1.c ****     *  failed. Following are the possible error codes.
1094:.\Generated_Source\PSoC4/BLE_1.c ****     *
1095:.\Generated_Source\PSoC4/BLE_1.c ****     *   Errors codes                       | Description
1096:.\Generated_Source\PSoC4/BLE_1.c ****     *   ------------                       | -----------
1097:.\Generated_Source\PSoC4/BLE_1.c ****     *   CYBLE_ERROR_OK                     | Function completed successfully.
1098:.\Generated_Source\PSoC4/BLE_1.c ****     *   CYBLE_ERROR_INVALID_PARAMETER      | On specifying NULL as input parameter
ARM GAS  C:\Users\ilias\AppData\Local\Temp\ccbZWpbs.s 			page 40


1099:.\Generated_Source\PSoC4/BLE_1.c ****     *  
1100:.\Generated_Source\PSoC4/BLE_1.c ****     *******************************************************************************/
1101:.\Generated_Source\PSoC4/BLE_1.c ****     CYBLE_API_RESULT_T CyBle_GapSetLocalName(const char8 name[])
1102:.\Generated_Source\PSoC4/BLE_1.c ****     {
 1102              		.loc 1 1102 0
 1103              		.cfi_startproc
 1104 0000 80B5     		push	{r7, lr}
 1105              		.cfi_def_cfa_offset 8
 1106              		.cfi_offset 7, -8
 1107              		.cfi_offset 14, -4
 1108 0002 86B0     		sub	sp, sp, #24
 1109              		.cfi_def_cfa_offset 32
 1110 0004 00AF     		add	r7, sp, #0
 1111              		.cfi_def_cfa_register 7
 1112 0006 7860     		str	r0, [r7, #4]
1103:.\Generated_Source\PSoC4/BLE_1.c ****         CYBLE_API_RESULT_T apiResult = CYBLE_ERROR_OK;
 1113              		.loc 1 1103 0
 1114 0008 1623     		mov	r3, #22
 1115 000a FB18     		add	r3, r7, r3
 1116 000c 0022     		mov	r2, #0
 1117 000e 1A80     		strh	r2, [r3]
1104:.\Generated_Source\PSoC4/BLE_1.c ****         uint8 i;
1105:.\Generated_Source\PSoC4/BLE_1.c ****         char8 *ptr;
1106:.\Generated_Source\PSoC4/BLE_1.c ****         uint8 charLen;
1107:.\Generated_Source\PSoC4/BLE_1.c **** 
1108:.\Generated_Source\PSoC4/BLE_1.c ****         if(NULL != name)
 1118              		.loc 1 1108 0
 1119 0010 7B68     		ldr	r3, [r7, #4]
 1120 0012 002B     		cmp	r3, #0
 1121 0014 4AD0     		beq	.L59
1109:.\Generated_Source\PSoC4/BLE_1.c ****         {
1110:.\Generated_Source\PSoC4/BLE_1.c ****             /* Get the pointer to the Device Name characteristic  */
1111:.\Generated_Source\PSoC4/BLE_1.c ****             ptr = (char8 *) CYBLE_GATT_DB_ATTR_GET_ATTR_GEN_PTR(CYBLE_GAP_DEVICE_NAME_INDEX + 1u);
 1122              		.loc 1 1111 0
 1123 0016 2B4B     		ldr	r3, .L66
 1124 0018 9B6B     		ldr	r3, [r3, #56]
 1125 001a 5B68     		ldr	r3, [r3, #4]
 1126 001c 3B61     		str	r3, [r7, #16]
1112:.\Generated_Source\PSoC4/BLE_1.c **** 
1113:.\Generated_Source\PSoC4/BLE_1.c ****             /* First need to get the maximum length of the characteristic data in the GATT
1114:.\Generated_Source\PSoC4/BLE_1.c ****                 database to make sure there is enough place for the data. The length
1115:.\Generated_Source\PSoC4/BLE_1.c ****                 can't be longer than 248, so only the LSB of 16 bit of length is to
1116:.\Generated_Source\PSoC4/BLE_1.c ****                 be used. */
1117:.\Generated_Source\PSoC4/BLE_1.c ****             charLen = (uint8)CYBLE_GATT_DB_ATTR_GET_ATTR_GEN_MAX_LEN(CYBLE_GAP_DEVICE_NAME_INDEX + 
 1127              		.loc 1 1117 0
 1128 001e 294B     		ldr	r3, .L66
 1129 0020 9A8E     		ldrh	r2, [r3, #52]
 1130 0022 0F23     		mov	r3, #15
 1131 0024 FB18     		add	r3, r7, r3
 1132 0026 1A70     		strb	r2, [r3]
1118:.\Generated_Source\PSoC4/BLE_1.c **** 
1119:.\Generated_Source\PSoC4/BLE_1.c ****             /* Copy name into characteristic */
1120:.\Generated_Source\PSoC4/BLE_1.c ****             for(i = 0u; ((i < charLen) && (CYBLE_NULL_CHARCTER != name[i])); i++)
 1133              		.loc 1 1120 0
 1134 0028 1523     		mov	r3, #21
 1135 002a FB18     		add	r3, r7, r3
 1136 002c 0022     		mov	r2, #0
ARM GAS  C:\Users\ilias\AppData\Local\Temp\ccbZWpbs.s 			page 41


 1137 002e 1A70     		strb	r2, [r3]
 1138 0030 12E0     		b	.L60
 1139              	.L62:
1121:.\Generated_Source\PSoC4/BLE_1.c ****             {
1122:.\Generated_Source\PSoC4/BLE_1.c ****                 ptr[i] = name[i];
 1140              		.loc 1 1122 0 discriminator 4
 1141 0032 1523     		mov	r3, #21
 1142 0034 FB18     		add	r3, r7, r3
 1143 0036 1B78     		ldrb	r3, [r3]
 1144 0038 3A69     		ldr	r2, [r7, #16]
 1145 003a D318     		add	r3, r2, r3
 1146 003c 1522     		mov	r2, #21
 1147 003e BA18     		add	r2, r7, r2
 1148 0040 1278     		ldrb	r2, [r2]
 1149 0042 7968     		ldr	r1, [r7, #4]
 1150 0044 8A18     		add	r2, r1, r2
 1151 0046 1278     		ldrb	r2, [r2]
 1152 0048 1A70     		strb	r2, [r3]
1120:.\Generated_Source\PSoC4/BLE_1.c ****             {
 1153              		.loc 1 1120 0 discriminator 4
 1154 004a 1523     		mov	r3, #21
 1155 004c FB18     		add	r3, r7, r3
 1156 004e 1A78     		ldrb	r2, [r3]
 1157 0050 1523     		mov	r3, #21
 1158 0052 FB18     		add	r3, r7, r3
 1159 0054 0132     		add	r2, r2, #1
 1160 0056 1A70     		strb	r2, [r3]
 1161              	.L60:
1120:.\Generated_Source\PSoC4/BLE_1.c ****             {
 1162              		.loc 1 1120 0 is_stmt 0 discriminator 1
 1163 0058 1523     		mov	r3, #21
 1164 005a FA18     		add	r2, r7, r3
 1165 005c 0F23     		mov	r3, #15
 1166 005e FB18     		add	r3, r7, r3
 1167 0060 1278     		ldrb	r2, [r2]
 1168 0062 1B78     		ldrb	r3, [r3]
 1169 0064 9A42     		cmp	r2, r3
 1170 0066 07D2     		bcs	.L61
1120:.\Generated_Source\PSoC4/BLE_1.c ****             {
 1171              		.loc 1 1120 0 discriminator 3
 1172 0068 1523     		mov	r3, #21
 1173 006a FB18     		add	r3, r7, r3
 1174 006c 1B78     		ldrb	r3, [r3]
 1175 006e 7A68     		ldr	r2, [r7, #4]
 1176 0070 D318     		add	r3, r2, r3
 1177 0072 1B78     		ldrb	r3, [r3]
 1178 0074 002B     		cmp	r3, #0
 1179 0076 DCD1     		bne	.L62
 1180              	.L61:
1123:.\Generated_Source\PSoC4/BLE_1.c ****             }
1124:.\Generated_Source\PSoC4/BLE_1.c **** 
1125:.\Generated_Source\PSoC4/BLE_1.c ****             if(i < charLen)
 1181              		.loc 1 1125 0 is_stmt 1
 1182 0078 1523     		mov	r3, #21
 1183 007a FA18     		add	r2, r7, r3
 1184 007c 0F23     		mov	r3, #15
 1185 007e FB18     		add	r3, r7, r3
ARM GAS  C:\Users\ilias\AppData\Local\Temp\ccbZWpbs.s 			page 42


 1186 0080 1278     		ldrb	r2, [r2]
 1187 0082 1B78     		ldrb	r3, [r3]
 1188 0084 9A42     		cmp	r2, r3
 1189 0086 06D2     		bcs	.L63
1126:.\Generated_Source\PSoC4/BLE_1.c ****             {
1127:.\Generated_Source\PSoC4/BLE_1.c ****                 /* Terminate string */
1128:.\Generated_Source\PSoC4/BLE_1.c ****                 ptr[i] = CYBLE_NULL_CHARCTER;
 1190              		.loc 1 1128 0
 1191 0088 1523     		mov	r3, #21
 1192 008a FB18     		add	r3, r7, r3
 1193 008c 1B78     		ldrb	r3, [r3]
 1194 008e 3A69     		ldr	r2, [r7, #16]
 1195 0090 D318     		add	r3, r2, r3
 1196 0092 0022     		mov	r2, #0
 1197 0094 1A70     		strb	r2, [r3]
 1198              	.L63:
1129:.\Generated_Source\PSoC4/BLE_1.c ****             }
1130:.\Generated_Source\PSoC4/BLE_1.c ****             
1131:.\Generated_Source\PSoC4/BLE_1.c ****             /* Set new actual length */
1132:.\Generated_Source\PSoC4/BLE_1.c ****             
1133:.\Generated_Source\PSoC4/BLE_1.c ****             /* Update device name in advertising and scan response structure */
1134:.\Generated_Source\PSoC4/BLE_1.c ****             #if(CYBLE_GAP_ROLE_PERIPHERAL)
1135:.\Generated_Source\PSoC4/BLE_1.c ****                 CyBle_ChangeAdLocalName(name, 0u);
 1199              		.loc 1 1135 0
 1200 0096 7B68     		ldr	r3, [r7, #4]
 1201 0098 181C     		mov	r0, r3
 1202 009a 0021     		mov	r1, #0
 1203 009c FFF7FEFF 		bl	CyBle_ChangeAdLocalName
1136:.\Generated_Source\PSoC4/BLE_1.c ****                 CyBle_ChangeAdLocalName(name, 1u);
 1204              		.loc 1 1136 0
 1205 00a0 7B68     		ldr	r3, [r7, #4]
 1206 00a2 181C     		mov	r0, r3
 1207 00a4 0121     		mov	r1, #1
 1208 00a6 FFF7FEFF 		bl	CyBle_ChangeAdLocalName
 1209 00aa 03E0     		b	.L64
 1210              	.L59:
1137:.\Generated_Source\PSoC4/BLE_1.c ****             #endif /* (CYBLE_GAP_ROLE_PERIPHERAL) */
1138:.\Generated_Source\PSoC4/BLE_1.c ****         }
1139:.\Generated_Source\PSoC4/BLE_1.c ****         else
1140:.\Generated_Source\PSoC4/BLE_1.c ****         {
1141:.\Generated_Source\PSoC4/BLE_1.c ****             apiResult = CYBLE_ERROR_INVALID_PARAMETER;
 1211              		.loc 1 1141 0
 1212 00ac 1623     		mov	r3, #22
 1213 00ae FB18     		add	r3, r7, r3
 1214 00b0 0122     		mov	r2, #1
 1215 00b2 1A80     		strh	r2, [r3]
 1216              	.L64:
1142:.\Generated_Source\PSoC4/BLE_1.c ****         }
1143:.\Generated_Source\PSoC4/BLE_1.c ****         
1144:.\Generated_Source\PSoC4/BLE_1.c ****         return(apiResult);
 1217              		.loc 1 1144 0
 1218 00b4 1623     		mov	r3, #22
 1219 00b6 FB18     		add	r3, r7, r3
 1220 00b8 1B88     		ldrh	r3, [r3]
1145:.\Generated_Source\PSoC4/BLE_1.c ****     }
 1221              		.loc 1 1145 0
 1222 00ba 181C     		mov	r0, r3
ARM GAS  C:\Users\ilias\AppData\Local\Temp\ccbZWpbs.s 			page 43


 1223 00bc BD46     		mov	sp, r7
 1224 00be 06B0     		add	sp, sp, #24
 1225              		@ sp needed
 1226 00c0 80BD     		pop	{r7, pc}
 1227              	.L67:
 1228 00c2 C046     		.align	2
 1229              	.L66:
 1230 00c4 00000000 		.word	cyBle_gattDB
 1231              		.cfi_endproc
 1232              	.LFE11:
 1233              		.size	CyBle_GapSetLocalName, .-CyBle_GapSetLocalName
 1234              		.section	.text.CyBle_GapGetLocalName,"ax",%progbits
 1235              		.align	2
 1236              		.global	CyBle_GapGetLocalName
 1237              		.code	16
 1238              		.thumb_func
 1239              		.type	CyBle_GapGetLocalName, %function
 1240              	CyBle_GapGetLocalName:
 1241              	.LFB12:
1146:.\Generated_Source\PSoC4/BLE_1.c **** 
1147:.\Generated_Source\PSoC4/BLE_1.c **** 
1148:.\Generated_Source\PSoC4/BLE_1.c ****     /******************************************************************************
1149:.\Generated_Source\PSoC4/BLE_1.c ****     * Function Name: CyBle_GapGetLocalName
1150:.\Generated_Source\PSoC4/BLE_1.c ****     ***************************************************************************//**
1151:.\Generated_Source\PSoC4/BLE_1.c ****     *  
1152:.\Generated_Source\PSoC4/BLE_1.c ****     *  This API is used to read the local device name - a Characteristic of the 
1153:.\Generated_Source\PSoC4/BLE_1.c ****     *  GAP Service.
1154:.\Generated_Source\PSoC4/BLE_1.c ****     * 
1155:.\Generated_Source\PSoC4/BLE_1.c ****     * \param name: The local device name string. Used to read the local name to the
1156:.\Generated_Source\PSoC4/BLE_1.c ****     *             given string array. It represents a UTF-8 encoded User Friendly 
1157:.\Generated_Source\PSoC4/BLE_1.c ****     *             Descriptive Name for the device. The length of the local device
1158:.\Generated_Source\PSoC4/BLE_1.c ****     *             string is entered into the component customizer and it can be set
1159:.\Generated_Source\PSoC4/BLE_1.c ****     *             to a value from 0 to 248 bytes. If the name contained in the
1160:.\Generated_Source\PSoC4/BLE_1.c ****     *             parameter is shorter than the length from the customizer, the end
1161:.\Generated_Source\PSoC4/BLE_1.c ****     *             of the name is indicated by a NULL octet (0x00).
1162:.\Generated_Source\PSoC4/BLE_1.c ****     * 
1163:.\Generated_Source\PSoC4/BLE_1.c ****     * \return
1164:.\Generated_Source\PSoC4/BLE_1.c ****     *  CYBLE_API_RESULT_T : Return value indicates if the function succeeded or 
1165:.\Generated_Source\PSoC4/BLE_1.c ****     *  failed. Following are the possible error codes.
1166:.\Generated_Source\PSoC4/BLE_1.c ****     *
1167:.\Generated_Source\PSoC4/BLE_1.c ****     *   Errors codes                       | Description
1168:.\Generated_Source\PSoC4/BLE_1.c ****     *   ------------                       | -----------
1169:.\Generated_Source\PSoC4/BLE_1.c ****     *   CYBLE_ERROR_OK                     | Function completed successfully.
1170:.\Generated_Source\PSoC4/BLE_1.c ****     *   CYBLE_ERROR_INVALID_PARAMETER      | On specifying NULL as input parameter
1171:.\Generated_Source\PSoC4/BLE_1.c ****     *
1172:.\Generated_Source\PSoC4/BLE_1.c ****     *******************************************************************************/
1173:.\Generated_Source\PSoC4/BLE_1.c ****     CYBLE_API_RESULT_T CyBle_GapGetLocalName(char8 name[])
1174:.\Generated_Source\PSoC4/BLE_1.c ****     {
 1242              		.loc 1 1174 0
 1243              		.cfi_startproc
 1244 0000 80B5     		push	{r7, lr}
 1245              		.cfi_def_cfa_offset 8
 1246              		.cfi_offset 7, -8
 1247              		.cfi_offset 14, -4
 1248 0002 86B0     		sub	sp, sp, #24
 1249              		.cfi_def_cfa_offset 32
 1250 0004 00AF     		add	r7, sp, #0
ARM GAS  C:\Users\ilias\AppData\Local\Temp\ccbZWpbs.s 			page 44


 1251              		.cfi_def_cfa_register 7
 1252 0006 7860     		str	r0, [r7, #4]
1175:.\Generated_Source\PSoC4/BLE_1.c ****         CYBLE_API_RESULT_T apiResult = CYBLE_ERROR_OK;
 1253              		.loc 1 1175 0
 1254 0008 1623     		mov	r3, #22
 1255 000a FB18     		add	r3, r7, r3
 1256 000c 0022     		mov	r2, #0
 1257 000e 1A80     		strh	r2, [r3]
1176:.\Generated_Source\PSoC4/BLE_1.c ****         uint8 charLen;
1177:.\Generated_Source\PSoC4/BLE_1.c ****         uint8 i;
1178:.\Generated_Source\PSoC4/BLE_1.c ****         char8 *ptr;
1179:.\Generated_Source\PSoC4/BLE_1.c **** 
1180:.\Generated_Source\PSoC4/BLE_1.c ****         if(NULL != name)
 1258              		.loc 1 1180 0
 1259 0010 7B68     		ldr	r3, [r7, #4]
 1260 0012 002B     		cmp	r3, #0
 1261 0014 39D0     		beq	.L69
1181:.\Generated_Source\PSoC4/BLE_1.c ****         {
1182:.\Generated_Source\PSoC4/BLE_1.c ****             /* Get the pointer to the Device Name characteristic  */
1183:.\Generated_Source\PSoC4/BLE_1.c ****             ptr = (char8 *) CYBLE_GATT_DB_ATTR_GET_ATTR_GEN_PTR(CYBLE_GAP_DEVICE_NAME_INDEX + 1u);
 1262              		.loc 1 1183 0
 1263 0016 224B     		ldr	r3, .L75
 1264 0018 9B6B     		ldr	r3, [r3, #56]
 1265 001a 5B68     		ldr	r3, [r3, #4]
 1266 001c 3B61     		str	r3, [r7, #16]
1184:.\Generated_Source\PSoC4/BLE_1.c **** 
1185:.\Generated_Source\PSoC4/BLE_1.c ****             /* First need to get the length of the characteristic data in the GATT
1186:.\Generated_Source\PSoC4/BLE_1.c ****                 database to make sure there is enough place for the data. The length
1187:.\Generated_Source\PSoC4/BLE_1.c ****                 can't be longer than 248, so only the LSB of 16 bit of length is to
1188:.\Generated_Source\PSoC4/BLE_1.c ****                 be used. */
1189:.\Generated_Source\PSoC4/BLE_1.c ****             charLen = (uint8)CYBLE_GATT_DB_ATTR_GET_ATTR_GEN_LEN(CYBLE_GAP_DEVICE_NAME_INDEX + 1u);
 1267              		.loc 1 1189 0
 1268 001e 204B     		ldr	r3, .L75
 1269 0020 9B6B     		ldr	r3, [r3, #56]
 1270 0022 1A88     		ldrh	r2, [r3]
 1271 0024 0F23     		mov	r3, #15
 1272 0026 FB18     		add	r3, r7, r3
 1273 0028 1A70     		strb	r2, [r3]
1190:.\Generated_Source\PSoC4/BLE_1.c **** 
1191:.\Generated_Source\PSoC4/BLE_1.c ****             /* Copy name from characteristic */
1192:.\Generated_Source\PSoC4/BLE_1.c ****             for(i = 0u; ((i < charLen) && (CYBLE_NULL_CHARCTER != ptr[i])); i++)
 1274              		.loc 1 1192 0
 1275 002a 1523     		mov	r3, #21
 1276 002c FB18     		add	r3, r7, r3
 1277 002e 0022     		mov	r2, #0
 1278 0030 1A70     		strb	r2, [r3]
 1279 0032 12E0     		b	.L70
 1280              	.L72:
1193:.\Generated_Source\PSoC4/BLE_1.c ****             {
1194:.\Generated_Source\PSoC4/BLE_1.c ****                 name[i] = ptr[i];
 1281              		.loc 1 1194 0 discriminator 4
 1282 0034 1523     		mov	r3, #21
 1283 0036 FB18     		add	r3, r7, r3
 1284 0038 1B78     		ldrb	r3, [r3]
 1285 003a 7A68     		ldr	r2, [r7, #4]
 1286 003c D318     		add	r3, r2, r3
 1287 003e 1522     		mov	r2, #21
ARM GAS  C:\Users\ilias\AppData\Local\Temp\ccbZWpbs.s 			page 45


 1288 0040 BA18     		add	r2, r7, r2
 1289 0042 1278     		ldrb	r2, [r2]
 1290 0044 3969     		ldr	r1, [r7, #16]
 1291 0046 8A18     		add	r2, r1, r2
 1292 0048 1278     		ldrb	r2, [r2]
 1293 004a 1A70     		strb	r2, [r3]
1192:.\Generated_Source\PSoC4/BLE_1.c ****             {
 1294              		.loc 1 1192 0 discriminator 4
 1295 004c 1523     		mov	r3, #21
 1296 004e FB18     		add	r3, r7, r3
 1297 0050 1A78     		ldrb	r2, [r3]
 1298 0052 1523     		mov	r3, #21
 1299 0054 FB18     		add	r3, r7, r3
 1300 0056 0132     		add	r2, r2, #1
 1301 0058 1A70     		strb	r2, [r3]
 1302              	.L70:
1192:.\Generated_Source\PSoC4/BLE_1.c ****             {
 1303              		.loc 1 1192 0 is_stmt 0 discriminator 1
 1304 005a 1523     		mov	r3, #21
 1305 005c FA18     		add	r2, r7, r3
 1306 005e 0F23     		mov	r3, #15
 1307 0060 FB18     		add	r3, r7, r3
 1308 0062 1278     		ldrb	r2, [r2]
 1309 0064 1B78     		ldrb	r3, [r3]
 1310 0066 9A42     		cmp	r2, r3
 1311 0068 07D2     		bcs	.L71
1192:.\Generated_Source\PSoC4/BLE_1.c ****             {
 1312              		.loc 1 1192 0 discriminator 3
 1313 006a 1523     		mov	r3, #21
 1314 006c FB18     		add	r3, r7, r3
 1315 006e 1B78     		ldrb	r3, [r3]
 1316 0070 3A69     		ldr	r2, [r7, #16]
 1317 0072 D318     		add	r3, r2, r3
 1318 0074 1B78     		ldrb	r3, [r3]
 1319 0076 002B     		cmp	r3, #0
 1320 0078 DCD1     		bne	.L72
 1321              	.L71:
1195:.\Generated_Source\PSoC4/BLE_1.c ****             }
1196:.\Generated_Source\PSoC4/BLE_1.c **** 
1197:.\Generated_Source\PSoC4/BLE_1.c ****             /* Terminate string */
1198:.\Generated_Source\PSoC4/BLE_1.c ****             name[i] = CYBLE_NULL_CHARCTER;
 1322              		.loc 1 1198 0 is_stmt 1
 1323 007a 1523     		mov	r3, #21
 1324 007c FB18     		add	r3, r7, r3
 1325 007e 1B78     		ldrb	r3, [r3]
 1326 0080 7A68     		ldr	r2, [r7, #4]
 1327 0082 D318     		add	r3, r2, r3
 1328 0084 0022     		mov	r2, #0
 1329 0086 1A70     		strb	r2, [r3]
 1330 0088 03E0     		b	.L73
 1331              	.L69:
1199:.\Generated_Source\PSoC4/BLE_1.c ****         }
1200:.\Generated_Source\PSoC4/BLE_1.c ****         else
1201:.\Generated_Source\PSoC4/BLE_1.c ****         {
1202:.\Generated_Source\PSoC4/BLE_1.c ****             apiResult = CYBLE_ERROR_INVALID_PARAMETER;
 1332              		.loc 1 1202 0
 1333 008a 1623     		mov	r3, #22
ARM GAS  C:\Users\ilias\AppData\Local\Temp\ccbZWpbs.s 			page 46


 1334 008c FB18     		add	r3, r7, r3
 1335 008e 0122     		mov	r2, #1
 1336 0090 1A80     		strh	r2, [r3]
 1337              	.L73:
1203:.\Generated_Source\PSoC4/BLE_1.c ****         }
1204:.\Generated_Source\PSoC4/BLE_1.c ****         
1205:.\Generated_Source\PSoC4/BLE_1.c ****         return(apiResult);
 1338              		.loc 1 1205 0
 1339 0092 1623     		mov	r3, #22
 1340 0094 FB18     		add	r3, r7, r3
 1341 0096 1B88     		ldrh	r3, [r3]
1206:.\Generated_Source\PSoC4/BLE_1.c ****     }
 1342              		.loc 1 1206 0
 1343 0098 181C     		mov	r0, r3
 1344 009a BD46     		mov	sp, r7
 1345 009c 06B0     		add	sp, sp, #24
 1346              		@ sp needed
 1347 009e 80BD     		pop	{r7, pc}
 1348              	.L76:
 1349              		.align	2
 1350              	.L75:
 1351 00a0 00000000 		.word	cyBle_gattDB
 1352              		.cfi_endproc
 1353              	.LFE12:
 1354              		.size	CyBle_GapGetLocalName, .-CyBle_GapGetLocalName
 1355              		.section	.text.CyBle_Get16ByPtr,"ax",%progbits
 1356              		.align	2
 1357              		.global	CyBle_Get16ByPtr
 1358              		.code	16
 1359              		.thumb_func
 1360              		.type	CyBle_Get16ByPtr, %function
 1361              	CyBle_Get16ByPtr:
 1362              	.LFB13:
1207:.\Generated_Source\PSoC4/BLE_1.c **** 
1208:.\Generated_Source\PSoC4/BLE_1.c **** #endif /* (CYBLE_GATT_ROLE_SERVER) */
1209:.\Generated_Source\PSoC4/BLE_1.c **** 
1210:.\Generated_Source\PSoC4/BLE_1.c **** 
1211:.\Generated_Source\PSoC4/BLE_1.c **** /******************************************************************************
1212:.\Generated_Source\PSoC4/BLE_1.c **** * Function Name: CyBle_Get16ByPtr
1213:.\Generated_Source\PSoC4/BLE_1.c **** ***************************************************************************//**
1214:.\Generated_Source\PSoC4/BLE_1.c **** * 
1215:.\Generated_Source\PSoC4/BLE_1.c **** *  Returns the two-bytes value by using a pointer to the LSB.
1216:.\Generated_Source\PSoC4/BLE_1.c **** * 
1217:.\Generated_Source\PSoC4/BLE_1.c **** *  \param ptr: Pointer to the LSB of two-bytes data (little endian).
1218:.\Generated_Source\PSoC4/BLE_1.c **** * 
1219:.\Generated_Source\PSoC4/BLE_1.c **** *  \return
1220:.\Generated_Source\PSoC4/BLE_1.c **** *  uint16: Two-bytes data.
1221:.\Generated_Source\PSoC4/BLE_1.c **** * 
1222:.\Generated_Source\PSoC4/BLE_1.c **** ******************************************************************************/
1223:.\Generated_Source\PSoC4/BLE_1.c **** uint16 CyBle_Get16ByPtr(const uint8 ptr[])
1224:.\Generated_Source\PSoC4/BLE_1.c **** {
 1363              		.loc 1 1224 0
 1364              		.cfi_startproc
 1365 0000 80B5     		push	{r7, lr}
 1366              		.cfi_def_cfa_offset 8
 1367              		.cfi_offset 7, -8
 1368              		.cfi_offset 14, -4
ARM GAS  C:\Users\ilias\AppData\Local\Temp\ccbZWpbs.s 			page 47


 1369 0002 82B0     		sub	sp, sp, #8
 1370              		.cfi_def_cfa_offset 16
 1371 0004 00AF     		add	r7, sp, #0
 1372              		.cfi_def_cfa_register 7
 1373 0006 7860     		str	r0, [r7, #4]
1225:.\Generated_Source\PSoC4/BLE_1.c ****     return ((uint16) ptr[0u] | ((uint16) (((uint16) ptr[1u]) << 8u)));
 1374              		.loc 1 1225 0
 1375 0008 7B68     		ldr	r3, [r7, #4]
 1376 000a 1B78     		ldrb	r3, [r3]
 1377 000c 9AB2     		uxth	r2, r3
 1378 000e 7B68     		ldr	r3, [r7, #4]
 1379 0010 0133     		add	r3, r3, #1
 1380 0012 1B78     		ldrb	r3, [r3]
 1381 0014 9BB2     		uxth	r3, r3
 1382 0016 1B02     		lsl	r3, r3, #8
 1383 0018 9BB2     		uxth	r3, r3
 1384 001a 1343     		orr	r3, r2
 1385 001c 9BB2     		uxth	r3, r3
1226:.\Generated_Source\PSoC4/BLE_1.c **** }
 1386              		.loc 1 1226 0
 1387 001e 181C     		mov	r0, r3
 1388 0020 BD46     		mov	sp, r7
 1389 0022 02B0     		add	sp, sp, #8
 1390              		@ sp needed
 1391 0024 80BD     		pop	{r7, pc}
 1392              		.cfi_endproc
 1393              	.LFE13:
 1394              		.size	CyBle_Get16ByPtr, .-CyBle_Get16ByPtr
 1395 0026 C046     		.section	.text.CyBle_Set16ByPtr,"ax",%progbits
 1396              		.align	2
 1397              		.global	CyBle_Set16ByPtr
 1398              		.code	16
 1399              		.thumb_func
 1400              		.type	CyBle_Set16ByPtr, %function
 1401              	CyBle_Set16ByPtr:
 1402              	.LFB14:
1227:.\Generated_Source\PSoC4/BLE_1.c **** 
1228:.\Generated_Source\PSoC4/BLE_1.c **** 
1229:.\Generated_Source\PSoC4/BLE_1.c **** /******************************************************************************
1230:.\Generated_Source\PSoC4/BLE_1.c **** * Function Name: CyBle_Set16ByPtr
1231:.\Generated_Source\PSoC4/BLE_1.c **** ***************************************************************************//**
1232:.\Generated_Source\PSoC4/BLE_1.c **** * 
1233:.\Generated_Source\PSoC4/BLE_1.c **** *  Sets the two-bytes value by using a pointer to the LSB.
1234:.\Generated_Source\PSoC4/BLE_1.c **** * 
1235:.\Generated_Source\PSoC4/BLE_1.c **** *  \param ptr:    Pointer to the LSB of two-bytes data (little endian).
1236:.\Generated_Source\PSoC4/BLE_1.c **** *  \param value:  Two-bytes data to be written.
1237:.\Generated_Source\PSoC4/BLE_1.c **** * 
1238:.\Generated_Source\PSoC4/BLE_1.c **** *  \return
1239:.\Generated_Source\PSoC4/BLE_1.c **** *  None
1240:.\Generated_Source\PSoC4/BLE_1.c **** * 
1241:.\Generated_Source\PSoC4/BLE_1.c **** ******************************************************************************/
1242:.\Generated_Source\PSoC4/BLE_1.c **** void CyBle_Set16ByPtr(uint8 ptr[], uint16 value)
1243:.\Generated_Source\PSoC4/BLE_1.c **** {
 1403              		.loc 1 1243 0
 1404              		.cfi_startproc
 1405 0000 80B5     		push	{r7, lr}
 1406              		.cfi_def_cfa_offset 8
ARM GAS  C:\Users\ilias\AppData\Local\Temp\ccbZWpbs.s 			page 48


 1407              		.cfi_offset 7, -8
 1408              		.cfi_offset 14, -4
 1409 0002 82B0     		sub	sp, sp, #8
 1410              		.cfi_def_cfa_offset 16
 1411 0004 00AF     		add	r7, sp, #0
 1412              		.cfi_def_cfa_register 7
 1413 0006 7860     		str	r0, [r7, #4]
 1414 0008 0A1C     		mov	r2, r1
 1415 000a BB1C     		add	r3, r7, #2
 1416 000c 1A80     		strh	r2, [r3]
1244:.\Generated_Source\PSoC4/BLE_1.c ****     ptr[0u] = (uint8) value;
 1417              		.loc 1 1244 0
 1418 000e BB1C     		add	r3, r7, #2
 1419 0010 1B88     		ldrh	r3, [r3]
 1420 0012 DAB2     		uxtb	r2, r3
 1421 0014 7B68     		ldr	r3, [r7, #4]
 1422 0016 1A70     		strb	r2, [r3]
1245:.\Generated_Source\PSoC4/BLE_1.c ****     ptr[1u] = (uint8) (value >> 8u);
 1423              		.loc 1 1245 0
 1424 0018 7B68     		ldr	r3, [r7, #4]
 1425 001a 0133     		add	r3, r3, #1
 1426 001c BA1C     		add	r2, r7, #2
 1427 001e 1288     		ldrh	r2, [r2]
 1428 0020 120A     		lsr	r2, r2, #8
 1429 0022 92B2     		uxth	r2, r2
 1430 0024 D2B2     		uxtb	r2, r2
 1431 0026 1A70     		strb	r2, [r3]
1246:.\Generated_Source\PSoC4/BLE_1.c **** }
 1432              		.loc 1 1246 0
 1433 0028 BD46     		mov	sp, r7
 1434 002a 02B0     		add	sp, sp, #8
 1435              		@ sp needed
 1436 002c 80BD     		pop	{r7, pc}
 1437              		.cfi_endproc
 1438              	.LFE14:
 1439              		.size	CyBle_Set16ByPtr, .-CyBle_Set16ByPtr
 1440 002e C046     		.text
 1441              	.Letext0:
 1442              		.file 2 ".\\Generated_Source\\PSoC4\\cytypes.h"
 1443              		.file 3 ".\\Generated_Source\\PSoC4\\BLE_1_Stack.h"
 1444              		.file 4 ".\\Generated_Source\\PSoC4\\BLE_1_StackGap.h"
 1445              		.file 5 ".\\Generated_Source\\PSoC4\\BLE_1_StackGatt.h"
 1446              		.file 6 ".\\Generated_Source\\PSoC4\\BLE_1_StackGattDb.h"
 1447              		.file 7 ".\\Generated_Source\\PSoC4\\BLE_1.h"
 1448              		.file 8 ".\\Generated_Source\\PSoC4\\BLE_1_gatt.h"
 1449              		.file 9 ".\\Generated_Source\\PSoC4\\BLE_1_eventHandler.h"
 1450              		.section	.debug_info,"",%progbits
 1451              	.Ldebug_info0:
 1452 0000 7D0B0000 		.4byte	0xb7d
 1453 0004 0400     		.2byte	0x4
 1454 0006 00000000 		.4byte	.Ldebug_abbrev0
 1455 000a 04       		.byte	0x4
 1456 000b 01       		.uleb128 0x1
 1457 000c AD110000 		.4byte	.LASF210
 1458 0010 01       		.byte	0x1
 1459 0011 650E0000 		.4byte	.LASF211
 1460 0015 560D0000 		.4byte	.LASF212
ARM GAS  C:\Users\ilias\AppData\Local\Temp\ccbZWpbs.s 			page 49


 1461 0019 00000000 		.4byte	.Ldebug_ranges0+0
 1462 001d 00000000 		.4byte	0
 1463 0021 00000000 		.4byte	.Ldebug_line0
 1464 0025 02       		.uleb128 0x2
 1465 0026 01       		.byte	0x1
 1466 0027 06       		.byte	0x6
 1467 0028 A8030000 		.4byte	.LASF0
 1468 002c 02       		.uleb128 0x2
 1469 002d 01       		.byte	0x1
 1470 002e 08       		.byte	0x8
 1471 002f 870C0000 		.4byte	.LASF1
 1472 0033 02       		.uleb128 0x2
 1473 0034 02       		.byte	0x2
 1474 0035 05       		.byte	0x5
 1475 0036 D10C0000 		.4byte	.LASF2
 1476 003a 02       		.uleb128 0x2
 1477 003b 02       		.byte	0x2
 1478 003c 07       		.byte	0x7
 1479 003d C60F0000 		.4byte	.LASF3
 1480 0041 02       		.uleb128 0x2
 1481 0042 04       		.byte	0x4
 1482 0043 05       		.byte	0x5
 1483 0044 E5010000 		.4byte	.LASF4
 1484 0048 02       		.uleb128 0x2
 1485 0049 04       		.byte	0x4
 1486 004a 07       		.byte	0x7
 1487 004b 6D070000 		.4byte	.LASF5
 1488 004f 02       		.uleb128 0x2
 1489 0050 08       		.byte	0x8
 1490 0051 05       		.byte	0x5
 1491 0052 9A030000 		.4byte	.LASF6
 1492 0056 02       		.uleb128 0x2
 1493 0057 08       		.byte	0x8
 1494 0058 07       		.byte	0x7
 1495 0059 C0060000 		.4byte	.LASF7
 1496 005d 03       		.uleb128 0x3
 1497 005e 04       		.byte	0x4
 1498 005f 05       		.byte	0x5
 1499 0060 696E7400 		.ascii	"int\000"
 1500 0064 02       		.uleb128 0x2
 1501 0065 04       		.byte	0x4
 1502 0066 07       		.byte	0x7
 1503 0067 EE0E0000 		.4byte	.LASF8
 1504 006b 04       		.uleb128 0x4
 1505 006c 44050000 		.4byte	.LASF9
 1506 0070 02       		.byte	0x2
 1507 0071 3801     		.2byte	0x138
 1508 0073 2C000000 		.4byte	0x2c
 1509 0077 04       		.uleb128 0x4
 1510 0078 950C0000 		.4byte	.LASF10
 1511 007c 02       		.byte	0x2
 1512 007d 3901     		.2byte	0x139
 1513 007f 3A000000 		.4byte	0x3a
 1514 0083 04       		.uleb128 0x4
 1515 0084 1A060000 		.4byte	.LASF11
 1516 0088 02       		.byte	0x2
 1517 0089 3A01     		.2byte	0x13a
ARM GAS  C:\Users\ilias\AppData\Local\Temp\ccbZWpbs.s 			page 50


 1518 008b 48000000 		.4byte	0x48
 1519 008f 02       		.uleb128 0x2
 1520 0090 04       		.byte	0x4
 1521 0091 04       		.byte	0x4
 1522 0092 DB0B0000 		.4byte	.LASF12
 1523 0096 02       		.uleb128 0x2
 1524 0097 08       		.byte	0x8
 1525 0098 04       		.byte	0x4
 1526 0099 9B050000 		.4byte	.LASF13
 1527 009d 04       		.uleb128 0x4
 1528 009e 540F0000 		.4byte	.LASF14
 1529 00a2 02       		.byte	0x2
 1530 00a3 4901     		.2byte	0x149
 1531 00a5 A9000000 		.4byte	0xa9
 1532 00a9 02       		.uleb128 0x2
 1533 00aa 01       		.byte	0x1
 1534 00ab 08       		.byte	0x8
 1535 00ac 860E0000 		.4byte	.LASF15
 1536 00b0 05       		.uleb128 0x5
 1537 00b1 6B000000 		.4byte	0x6b
 1538 00b5 02       		.uleb128 0x2
 1539 00b6 04       		.byte	0x4
 1540 00b7 07       		.byte	0x7
 1541 00b8 620A0000 		.4byte	.LASF16
 1542 00bc 06       		.uleb128 0x6
 1543 00bd 04       		.byte	0x4
 1544 00be 07       		.uleb128 0x7
 1545 00bf 01       		.byte	0x1
 1546 00c0 03       		.byte	0x3
 1547 00c1 A4       		.byte	0xa4
 1548 00c2 43020000 		.4byte	0x243
 1549 00c6 08       		.uleb128 0x8
 1550 00c7 43080000 		.4byte	.LASF17
 1551 00cb 00       		.sleb128 0
 1552 00cc 08       		.uleb128 0x8
 1553 00cd B4030000 		.4byte	.LASF18
 1554 00d1 01       		.sleb128 1
 1555 00d2 08       		.uleb128 0x8
 1556 00d3 D3010000 		.4byte	.LASF19
 1557 00d7 02       		.sleb128 2
 1558 00d8 08       		.uleb128 0x8
 1559 00d9 AD0F0000 		.4byte	.LASF20
 1560 00dd 03       		.sleb128 3
 1561 00de 08       		.uleb128 0x8
 1562 00df 66020000 		.4byte	.LASF21
 1563 00e3 04       		.sleb128 4
 1564 00e4 08       		.uleb128 0x8
 1565 00e5 23000000 		.4byte	.LASF22
 1566 00e9 05       		.sleb128 5
 1567 00ea 08       		.uleb128 0x8
 1568 00eb C0090000 		.4byte	.LASF23
 1569 00ef 20       		.sleb128 32
 1570 00f0 08       		.uleb128 0x8
 1571 00f1 27040000 		.4byte	.LASF24
 1572 00f5 21       		.sleb128 33
 1573 00f6 08       		.uleb128 0x8
 1574 00f7 86080000 		.4byte	.LASF25
ARM GAS  C:\Users\ilias\AppData\Local\Temp\ccbZWpbs.s 			page 51


 1575 00fb 22       		.sleb128 34
 1576 00fc 08       		.uleb128 0x8
 1577 00fd 55090000 		.4byte	.LASF26
 1578 0101 23       		.sleb128 35
 1579 0102 08       		.uleb128 0x8
 1580 0103 E50A0000 		.4byte	.LASF27
 1581 0107 24       		.sleb128 36
 1582 0108 08       		.uleb128 0x8
 1583 0109 900A0000 		.4byte	.LASF28
 1584 010d 25       		.sleb128 37
 1585 010e 08       		.uleb128 0x8
 1586 010f DB040000 		.4byte	.LASF29
 1587 0113 26       		.sleb128 38
 1588 0114 08       		.uleb128 0x8
 1589 0115 AA080000 		.4byte	.LASF30
 1590 0119 27       		.sleb128 39
 1591 011a 08       		.uleb128 0x8
 1592 011b B40E0000 		.4byte	.LASF31
 1593 011f 28       		.sleb128 40
 1594 0120 08       		.uleb128 0x8
 1595 0121 28030000 		.4byte	.LASF32
 1596 0125 29       		.sleb128 41
 1597 0126 08       		.uleb128 0x8
 1598 0127 C2000000 		.4byte	.LASF33
 1599 012b 2A       		.sleb128 42
 1600 012c 08       		.uleb128 0x8
 1601 012d 83020000 		.4byte	.LASF34
 1602 0131 2B       		.sleb128 43
 1603 0132 08       		.uleb128 0x8
 1604 0133 77120000 		.4byte	.LASF35
 1605 0137 2C       		.sleb128 44
 1606 0138 08       		.uleb128 0x8
 1607 0139 49060000 		.4byte	.LASF36
 1608 013d C000     		.sleb128 64
 1609 013f 08       		.uleb128 0x8
 1610 0140 7B090000 		.4byte	.LASF37
 1611 0144 C100     		.sleb128 65
 1612 0146 08       		.uleb128 0x8
 1613 0147 F9120000 		.4byte	.LASF38
 1614 014b C200     		.sleb128 66
 1615 014d 08       		.uleb128 0x8
 1616 014e 26050000 		.4byte	.LASF39
 1617 0152 C300     		.sleb128 67
 1618 0154 08       		.uleb128 0x8
 1619 0155 99070000 		.4byte	.LASF40
 1620 0159 C400     		.sleb128 68
 1621 015b 08       		.uleb128 0x8
 1622 015c B40B0000 		.4byte	.LASF41
 1623 0160 C500     		.sleb128 69
 1624 0162 08       		.uleb128 0x8
 1625 0163 290A0000 		.4byte	.LASF42
 1626 0167 C600     		.sleb128 70
 1627 0169 08       		.uleb128 0x8
 1628 016a 5A080000 		.4byte	.LASF43
 1629 016e C700     		.sleb128 71
 1630 0170 08       		.uleb128 0x8
 1631 0171 3B120000 		.4byte	.LASF44
ARM GAS  C:\Users\ilias\AppData\Local\Temp\ccbZWpbs.s 			page 52


 1632 0175 C800     		.sleb128 72
 1633 0177 08       		.uleb128 0x8
 1634 0178 49040000 		.4byte	.LASF45
 1635 017c C900     		.sleb128 73
 1636 017e 08       		.uleb128 0x8
 1637 017f DD100000 		.4byte	.LASF46
 1638 0183 CA00     		.sleb128 74
 1639 0185 08       		.uleb128 0x8
 1640 0186 46010000 		.4byte	.LASF47
 1641 018a CB00     		.sleb128 75
 1642 018c 08       		.uleb128 0x8
 1643 018d 7F070000 		.4byte	.LASF48
 1644 0191 CC00     		.sleb128 76
 1645 0193 08       		.uleb128 0x8
 1646 0194 BB0A0000 		.4byte	.LASF49
 1647 0198 CD00     		.sleb128 77
 1648 019a 08       		.uleb128 0x8
 1649 019b 8C040000 		.4byte	.LASF50
 1650 019f CE00     		.sleb128 78
 1651 01a1 08       		.uleb128 0x8
 1652 01a2 7D0D0000 		.4byte	.LASF51
 1653 01a6 CF00     		.sleb128 79
 1654 01a8 08       		.uleb128 0x8
 1655 01a9 65010000 		.4byte	.LASF52
 1656 01ad D000     		.sleb128 80
 1657 01af 08       		.uleb128 0x8
 1658 01b0 5D050000 		.4byte	.LASF53
 1659 01b4 D100     		.sleb128 81
 1660 01b6 08       		.uleb128 0x8
 1661 01b7 290B0000 		.4byte	.LASF54
 1662 01bb D200     		.sleb128 82
 1663 01bd 08       		.uleb128 0x8
 1664 01be DB0C0000 		.4byte	.LASF55
 1665 01c2 D300     		.sleb128 83
 1666 01c4 08       		.uleb128 0x8
 1667 01c5 050E0000 		.4byte	.LASF56
 1668 01c9 D400     		.sleb128 84
 1669 01cb 08       		.uleb128 0x8
 1670 01cc B7070000 		.4byte	.LASF57
 1671 01d0 D500     		.sleb128 85
 1672 01d2 08       		.uleb128 0x8
 1673 01d3 DD060000 		.4byte	.LASF58
 1674 01d7 D600     		.sleb128 86
 1675 01d9 08       		.uleb128 0x8
 1676 01da 080F0000 		.4byte	.LASF59
 1677 01de D700     		.sleb128 87
 1678 01e0 08       		.uleb128 0x8
 1679 01e1 63060000 		.4byte	.LASF60
 1680 01e5 F000     		.sleb128 112
 1681 01e7 08       		.uleb128 0x8
 1682 01e8 CD120000 		.4byte	.LASF61
 1683 01ec F100     		.sleb128 113
 1684 01ee 08       		.uleb128 0x8
 1685 01ef A4090000 		.4byte	.LASF62
 1686 01f3 F200     		.sleb128 114
 1687 01f5 08       		.uleb128 0x8
 1688 01f6 0B0A0000 		.4byte	.LASF63
ARM GAS  C:\Users\ilias\AppData\Local\Temp\ccbZWpbs.s 			page 53


 1689 01fa F300     		.sleb128 115
 1690 01fc 08       		.uleb128 0x8
 1691 01fd 830B0000 		.4byte	.LASF64
 1692 0201 F400     		.sleb128 116
 1693 0203 08       		.uleb128 0x8
 1694 0204 A2050000 		.4byte	.LASF65
 1695 0208 F500     		.sleb128 117
 1696 020a 08       		.uleb128 0x8
 1697 020b F9000000 		.4byte	.LASF66
 1698 020f F600     		.sleb128 118
 1699 0211 08       		.uleb128 0x8
 1700 0212 53000000 		.4byte	.LASF67
 1701 0216 F700     		.sleb128 119
 1702 0218 08       		.uleb128 0x8
 1703 0219 00000000 		.4byte	.LASF68
 1704 021d F800     		.sleb128 120
 1705 021f 08       		.uleb128 0x8
 1706 0220 5F030000 		.4byte	.LASF69
 1707 0224 F900     		.sleb128 121
 1708 0226 08       		.uleb128 0x8
 1709 0227 89060000 		.4byte	.LASF70
 1710 022b FA00     		.sleb128 122
 1711 022d 08       		.uleb128 0x8
 1712 022e A4120000 		.4byte	.LASF71
 1713 0232 FA01     		.sleb128 250
 1714 0234 08       		.uleb128 0x8
 1715 0235 180D0000 		.4byte	.LASF72
 1716 0239 FB01     		.sleb128 251
 1717 023b 08       		.uleb128 0x8
 1718 023c 2C060000 		.4byte	.LASF73
 1719 0240 FF01     		.sleb128 255
 1720 0242 00       		.byte	0
 1721 0243 09       		.uleb128 0x9
 1722 0244 02       		.byte	0x2
 1723 0245 03       		.byte	0x3
 1724 0246 0C02     		.2byte	0x20c
 1725 0248 FA020000 		.4byte	0x2fa
 1726 024c 08       		.uleb128 0x8
 1727 024d 3A060000 		.4byte	.LASF74
 1728 0251 00       		.sleb128 0
 1729 0252 08       		.uleb128 0x8
 1730 0253 CC050000 		.4byte	.LASF75
 1731 0257 01       		.sleb128 1
 1732 0258 08       		.uleb128 0x8
 1733 0259 EA0F0000 		.4byte	.LASF76
 1734 025d 02       		.sleb128 2
 1735 025e 08       		.uleb128 0x8
 1736 025f 86000000 		.4byte	.LASF77
 1737 0263 03       		.sleb128 3
 1738 0264 08       		.uleb128 0x8
 1739 0265 43020000 		.4byte	.LASF78
 1740 0269 04       		.sleb128 4
 1741 026a 08       		.uleb128 0x8
 1742 026b FF060000 		.4byte	.LASF79
 1743 026f 05       		.sleb128 5
 1744 0270 08       		.uleb128 0x8
 1745 0271 3C0D0000 		.4byte	.LASF80
ARM GAS  C:\Users\ilias\AppData\Local\Temp\ccbZWpbs.s 			page 54


 1746 0275 06       		.sleb128 6
 1747 0276 08       		.uleb128 0x8
 1748 0277 E9030000 		.4byte	.LASF81
 1749 027b 07       		.sleb128 7
 1750 027c 08       		.uleb128 0x8
 1751 027d 260E0000 		.4byte	.LASF82
 1752 0281 08       		.sleb128 8
 1753 0282 08       		.uleb128 0x8
 1754 0283 62120000 		.4byte	.LASF83
 1755 0287 09       		.sleb128 9
 1756 0288 08       		.uleb128 0x8
 1757 0289 570C0000 		.4byte	.LASF84
 1758 028d 0A       		.sleb128 10
 1759 028e 08       		.uleb128 0x8
 1760 028f 8B0E0000 		.4byte	.LASF85
 1761 0293 0B       		.sleb128 11
 1762 0294 08       		.uleb128 0x8
 1763 0295 ED020000 		.4byte	.LASF86
 1764 0299 0C       		.sleb128 12
 1765 029a 08       		.uleb128 0x8
 1766 029b 1E020000 		.4byte	.LASF87
 1767 029f 0D       		.sleb128 13
 1768 02a0 08       		.uleb128 0x8
 1769 02a1 44070000 		.4byte	.LASF88
 1770 02a5 0E       		.sleb128 14
 1771 02a6 08       		.uleb128 0x8
 1772 02a7 58110000 		.4byte	.LASF89
 1773 02ab 0F       		.sleb128 15
 1774 02ac 08       		.uleb128 0x8
 1775 02ad 7F0F0000 		.4byte	.LASF90
 1776 02b1 10       		.sleb128 16
 1777 02b2 08       		.uleb128 0x8
 1778 02b3 04030000 		.4byte	.LASF91
 1779 02b7 11       		.sleb128 17
 1780 02b8 08       		.uleb128 0x8
 1781 02b9 03050000 		.4byte	.LASF92
 1782 02bd 12       		.sleb128 18
 1783 02be 08       		.uleb128 0x8
 1784 02bf 17130000 		.4byte	.LASF93
 1785 02c3 13       		.sleb128 19
 1786 02c4 08       		.uleb128 0x8
 1787 02c5 C7030000 		.4byte	.LASF94
 1788 02c9 27       		.sleb128 39
 1789 02ca 08       		.uleb128 0x8
 1790 02cb 5A0F0000 		.4byte	.LASF95
 1791 02cf 28       		.sleb128 40
 1792 02d0 08       		.uleb128 0x8
 1793 02d1 3C110000 		.4byte	.LASF96
 1794 02d5 29       		.sleb128 41
 1795 02d6 08       		.uleb128 0x8
 1796 02d7 FB090000 		.4byte	.LASF97
 1797 02db FF01     		.sleb128 255
 1798 02dd 08       		.uleb128 0x8
 1799 02de 2A080000 		.4byte	.LASF98
 1800 02e2 8002     		.sleb128 256
 1801 02e4 08       		.uleb128 0x8
 1802 02e5 4A0B0000 		.4byte	.LASF99
ARM GAS  C:\Users\ilias\AppData\Local\Temp\ccbZWpbs.s 			page 55


 1803 02e9 8102     		.sleb128 257
 1804 02eb 08       		.uleb128 0x8
 1805 02ec AE0C0000 		.4byte	.LASF100
 1806 02f0 8202     		.sleb128 258
 1807 02f2 08       		.uleb128 0x8
 1808 02f3 62040000 		.4byte	.LASF101
 1809 02f7 8302     		.sleb128 259
 1810 02f9 00       		.byte	0
 1811 02fa 04       		.uleb128 0x4
 1812 02fb 0B0B0000 		.4byte	.LASF102
 1813 02ff 03       		.byte	0x3
 1814 0300 6902     		.2byte	0x269
 1815 0302 43020000 		.4byte	0x243
 1816 0306 0A       		.uleb128 0xa
 1817 0307 07       		.byte	0x7
 1818 0308 03       		.byte	0x3
 1819 0309 0503     		.2byte	0x305
 1820 030b 2A030000 		.4byte	0x32a
 1821 030f 0B       		.uleb128 0xb
 1822 0310 56050000 		.4byte	.LASF103
 1823 0314 03       		.byte	0x3
 1824 0315 0803     		.2byte	0x308
 1825 0317 2A030000 		.4byte	0x32a
 1826 031b 00       		.byte	0
 1827 031c 0B       		.uleb128 0xb
 1828 031d CE010000 		.4byte	.LASF104
 1829 0321 03       		.byte	0x3
 1830 0322 0A03     		.2byte	0x30a
 1831 0324 6B000000 		.4byte	0x6b
 1832 0328 06       		.byte	0x6
 1833 0329 00       		.byte	0
 1834 032a 0C       		.uleb128 0xc
 1835 032b 6B000000 		.4byte	0x6b
 1836 032f 3A030000 		.4byte	0x33a
 1837 0333 0D       		.uleb128 0xd
 1838 0334 B5000000 		.4byte	0xb5
 1839 0338 05       		.byte	0x5
 1840 0339 00       		.byte	0
 1841 033a 04       		.uleb128 0x4
 1842 033b D9020000 		.4byte	.LASF105
 1843 033f 03       		.byte	0x3
 1844 0340 0B03     		.2byte	0x30b
 1845 0342 06030000 		.4byte	0x306
 1846 0346 0A       		.uleb128 0xa
 1847 0347 04       		.byte	0x4
 1848 0348 03       		.byte	0x3
 1849 0349 1503     		.2byte	0x315
 1850 034b 6A030000 		.4byte	0x36a
 1851 034f 0B       		.uleb128 0xb
 1852 0350 310F0000 		.4byte	.LASF106
 1853 0354 03       		.byte	0x3
 1854 0355 1803     		.2byte	0x318
 1855 0357 77000000 		.4byte	0x77
 1856 035b 00       		.byte	0
 1857 035c 0B       		.uleb128 0xb
 1858 035d 1E080000 		.4byte	.LASF107
 1859 0361 03       		.byte	0x3
ARM GAS  C:\Users\ilias\AppData\Local\Temp\ccbZWpbs.s 			page 56


 1860 0362 1A03     		.2byte	0x31a
 1861 0364 6B000000 		.4byte	0x6b
 1862 0368 02       		.byte	0x2
 1863 0369 00       		.byte	0
 1864 036a 04       		.uleb128 0x4
 1865 036b 45030000 		.4byte	.LASF108
 1866 036f 03       		.byte	0x3
 1867 0370 1B03     		.2byte	0x31b
 1868 0372 46030000 		.4byte	0x346
 1869 0376 07       		.uleb128 0x7
 1870 0377 01       		.byte	0x1
 1871 0378 04       		.byte	0x4
 1872 0379 90       		.byte	0x90
 1873 037a 9D030000 		.4byte	0x39d
 1874 037e 08       		.uleb128 0x8
 1875 037f B3020000 		.4byte	.LASF109
 1876 0383 00       		.sleb128 0
 1877 0384 08       		.uleb128 0x8
 1878 0385 1A010000 		.4byte	.LASF110
 1879 0389 01       		.sleb128 1
 1880 038a 08       		.uleb128 0x8
 1881 038b 99010000 		.4byte	.LASF111
 1882 038f 02       		.sleb128 2
 1883 0390 08       		.uleb128 0x8
 1884 0391 B3100000 		.4byte	.LASF112
 1885 0395 03       		.sleb128 3
 1886 0396 08       		.uleb128 0x8
 1887 0397 A70D0000 		.4byte	.LASF113
 1888 039b 04       		.sleb128 4
 1889 039c 00       		.byte	0
 1890 039d 0E       		.uleb128 0xe
 1891 039e 7F100000 		.4byte	.LASF114
 1892 03a2 04       		.byte	0x4
 1893 03a3 A0       		.byte	0xa0
 1894 03a4 76030000 		.4byte	0x376
 1895 03a8 0A       		.uleb128 0xa
 1896 03a9 10       		.byte	0x10
 1897 03aa 04       		.byte	0x4
 1898 03ab 6E01     		.2byte	0x16e
 1899 03ad 1A040000 		.4byte	0x41a
 1900 03b1 0B       		.uleb128 0xb
 1901 03b2 9C0D0000 		.4byte	.LASF115
 1902 03b6 04       		.byte	0x4
 1903 03b7 7401     		.2byte	0x174
 1904 03b9 77000000 		.4byte	0x77
 1905 03bd 00       		.byte	0
 1906 03be 0B       		.uleb128 0xb
 1907 03bf B7040000 		.4byte	.LASF116
 1908 03c3 04       		.byte	0x4
 1909 03c4 7A01     		.2byte	0x17a
 1910 03c6 77000000 		.4byte	0x77
 1911 03ca 02       		.byte	0x2
 1912 03cb 0B       		.uleb128 0xb
 1913 03cc 7B020000 		.4byte	.LASF117
 1914 03d0 04       		.byte	0x4
 1915 03d1 8301     		.2byte	0x183
 1916 03d3 9D030000 		.4byte	0x39d
ARM GAS  C:\Users\ilias\AppData\Local\Temp\ccbZWpbs.s 			page 57


 1917 03d7 04       		.byte	0x4
 1918 03d8 0B       		.uleb128 0xb
 1919 03d9 840A0000 		.4byte	.LASF118
 1920 03dd 04       		.byte	0x4
 1921 03de 8901     		.2byte	0x189
 1922 03e0 6B000000 		.4byte	0x6b
 1923 03e4 05       		.byte	0x5
 1924 03e5 0B       		.uleb128 0xb
 1925 03e6 480C0000 		.4byte	.LASF119
 1926 03ea 04       		.byte	0x4
 1927 03eb 9001     		.2byte	0x190
 1928 03ed 6B000000 		.4byte	0x6b
 1929 03f1 06       		.byte	0x6
 1930 03f2 0B       		.uleb128 0xb
 1931 03f3 06040000 		.4byte	.LASF120
 1932 03f7 04       		.byte	0x4
 1933 03f8 9601     		.2byte	0x196
 1934 03fa 2A030000 		.4byte	0x32a
 1935 03fe 07       		.byte	0x7
 1936 03ff 0B       		.uleb128 0xb
 1937 0400 EB000000 		.4byte	.LASF121
 1938 0404 04       		.byte	0x4
 1939 0405 9E01     		.2byte	0x19e
 1940 0407 6B000000 		.4byte	0x6b
 1941 040b 0D       		.byte	0xd
 1942 040c 0B       		.uleb128 0xb
 1943 040d 7C040000 		.4byte	.LASF122
 1944 0411 04       		.byte	0x4
 1945 0412 AA01     		.2byte	0x1aa
 1946 0414 6B000000 		.4byte	0x6b
 1947 0418 0E       		.byte	0xe
 1948 0419 00       		.byte	0
 1949 041a 04       		.uleb128 0x4
 1950 041b 3C0F0000 		.4byte	.LASF123
 1951 041f 04       		.byte	0x4
 1952 0420 AC01     		.2byte	0x1ac
 1953 0422 A8030000 		.4byte	0x3a8
 1954 0426 0A       		.uleb128 0xa
 1955 0427 20       		.byte	0x20
 1956 0428 04       		.byte	0x4
 1957 0429 AF01     		.2byte	0x1af
 1958 042b 4A040000 		.4byte	0x44a
 1959 042f 0B       		.uleb128 0xb
 1960 0430 D20D0000 		.4byte	.LASF124
 1961 0434 04       		.byte	0x4
 1962 0435 B201     		.2byte	0x1b2
 1963 0437 4A040000 		.4byte	0x44a
 1964 043b 00       		.byte	0
 1965 043c 0B       		.uleb128 0xb
 1966 043d B5060000 		.4byte	.LASF125
 1967 0441 04       		.byte	0x4
 1968 0442 B501     		.2byte	0x1b5
 1969 0444 6B000000 		.4byte	0x6b
 1970 0448 1F       		.byte	0x1f
 1971 0449 00       		.byte	0
 1972 044a 0C       		.uleb128 0xc
 1973 044b 6B000000 		.4byte	0x6b
ARM GAS  C:\Users\ilias\AppData\Local\Temp\ccbZWpbs.s 			page 58


 1974 044f 5A040000 		.4byte	0x45a
 1975 0453 0D       		.uleb128 0xd
 1976 0454 B5000000 		.4byte	0xb5
 1977 0458 1E       		.byte	0x1e
 1978 0459 00       		.byte	0
 1979 045a 04       		.uleb128 0x4
 1980 045b AB000000 		.4byte	.LASF126
 1981 045f 04       		.byte	0x4
 1982 0460 B701     		.2byte	0x1b7
 1983 0462 26040000 		.4byte	0x426
 1984 0466 0A       		.uleb128 0xa
 1985 0467 20       		.byte	0x20
 1986 0468 04       		.byte	0x4
 1987 0469 BA01     		.2byte	0x1ba
 1988 046b 8A040000 		.4byte	0x48a
 1989 046f 0B       		.uleb128 0xb
 1990 0470 4A050000 		.4byte	.LASF127
 1991 0474 04       		.byte	0x4
 1992 0475 BE01     		.2byte	0x1be
 1993 0477 4A040000 		.4byte	0x44a
 1994 047b 00       		.byte	0
 1995 047c 0B       		.uleb128 0xb
 1996 047d F2080000 		.4byte	.LASF128
 1997 0481 04       		.byte	0x4
 1998 0482 C101     		.2byte	0x1c1
 1999 0484 6B000000 		.4byte	0x6b
 2000 0488 1F       		.byte	0x1f
 2001 0489 00       		.byte	0
 2002 048a 04       		.uleb128 0x4
 2003 048b EF070000 		.4byte	.LASF129
 2004 048f 04       		.byte	0x4
 2005 0490 C301     		.2byte	0x1c3
 2006 0492 66040000 		.4byte	0x466
 2007 0496 0A       		.uleb128 0xa
 2008 0497 14       		.byte	0x14
 2009 0498 04       		.byte	0x4
 2010 0499 C601     		.2byte	0x1c6
 2011 049b E1040000 		.4byte	0x4e1
 2012 049f 0B       		.uleb128 0xb
 2013 04a0 C3050000 		.4byte	.LASF130
 2014 04a4 04       		.byte	0x4
 2015 04a5 CE01     		.2byte	0x1ce
 2016 04a7 6B000000 		.4byte	0x6b
 2017 04ab 00       		.byte	0
 2018 04ac 0B       		.uleb128 0xb
 2019 04ad 76100000 		.4byte	.LASF131
 2020 04b1 04       		.byte	0x4
 2021 04b2 D101     		.2byte	0x1d1
 2022 04b4 E1040000 		.4byte	0x4e1
 2023 04b8 04       		.byte	0x4
 2024 04b9 0B       		.uleb128 0xb
 2025 04ba D20D0000 		.4byte	.LASF124
 2026 04be 04       		.byte	0x4
 2027 04bf D301     		.2byte	0x1d3
 2028 04c1 E7040000 		.4byte	0x4e7
 2029 04c5 08       		.byte	0x8
 2030 04c6 0B       		.uleb128 0xb
ARM GAS  C:\Users\ilias\AppData\Local\Temp\ccbZWpbs.s 			page 59


 2031 04c7 4A050000 		.4byte	.LASF127
 2032 04cb 04       		.byte	0x4
 2033 04cc D501     		.2byte	0x1d5
 2034 04ce ED040000 		.4byte	0x4ed
 2035 04d2 0C       		.byte	0xc
 2036 04d3 0B       		.uleb128 0xb
 2037 04d4 F3120000 		.4byte	.LASF132
 2038 04d8 04       		.byte	0x4
 2039 04d9 DF01     		.2byte	0x1df
 2040 04db 77000000 		.4byte	0x77
 2041 04df 10       		.byte	0x10
 2042 04e0 00       		.byte	0
 2043 04e1 0F       		.uleb128 0xf
 2044 04e2 04       		.byte	0x4
 2045 04e3 1A040000 		.4byte	0x41a
 2046 04e7 0F       		.uleb128 0xf
 2047 04e8 04       		.byte	0x4
 2048 04e9 5A040000 		.4byte	0x45a
 2049 04ed 0F       		.uleb128 0xf
 2050 04ee 04       		.byte	0x4
 2051 04ef 8A040000 		.4byte	0x48a
 2052 04f3 04       		.uleb128 0x4
 2053 04f4 5A100000 		.4byte	.LASF133
 2054 04f8 04       		.byte	0x4
 2055 04f9 E101     		.2byte	0x1e1
 2056 04fb 96040000 		.4byte	0x496
 2057 04ff 0F       		.uleb128 0xf
 2058 0500 04       		.byte	0x4
 2059 0501 6B000000 		.4byte	0x6b
 2060 0505 0A       		.uleb128 0xa
 2061 0506 02       		.byte	0x2
 2062 0507 05       		.byte	0x5
 2063 0508 9201     		.2byte	0x192
 2064 050a 29050000 		.4byte	0x529
 2065 050e 0B       		.uleb128 0xb
 2066 050f 9B120000 		.4byte	.LASF134
 2067 0513 05       		.byte	0x5
 2068 0514 9901     		.2byte	0x199
 2069 0516 6B000000 		.4byte	0x6b
 2070 051a 00       		.byte	0
 2071 051b 0B       		.uleb128 0xb
 2072 051c 96090000 		.4byte	.LASF135
 2073 0520 05       		.byte	0x5
 2074 0521 9F01     		.2byte	0x19f
 2075 0523 6B000000 		.4byte	0x6b
 2076 0527 01       		.byte	0x1
 2077 0528 00       		.byte	0
 2078 0529 04       		.uleb128 0x4
 2079 052a 72000000 		.4byte	.LASF136
 2080 052e 05       		.byte	0x5
 2081 052f A101     		.2byte	0x1a1
 2082 0531 05050000 		.4byte	0x505
 2083 0535 10       		.uleb128 0x10
 2084 0536 08       		.byte	0x8
 2085 0537 06       		.byte	0x6
 2086 0538 C1       		.byte	0xc1
 2087 0539 56050000 		.4byte	0x556
ARM GAS  C:\Users\ilias\AppData\Local\Temp\ccbZWpbs.s 			page 60


 2088 053d 11       		.uleb128 0x11
 2089 053e 3C090000 		.4byte	.LASF137
 2090 0542 06       		.byte	0x6
 2091 0543 C4       		.byte	0xc4
 2092 0544 77000000 		.4byte	0x77
 2093 0548 00       		.byte	0
 2094 0549 11       		.uleb128 0x11
 2095 054a 750B0000 		.4byte	.LASF138
 2096 054e 06       		.byte	0x6
 2097 054f C9       		.byte	0xc9
 2098 0550 BC000000 		.4byte	0xbc
 2099 0554 04       		.byte	0x4
 2100 0555 00       		.byte	0
 2101 0556 0E       		.uleb128 0xe
 2102 0557 30100000 		.4byte	.LASF139
 2103 055b 06       		.byte	0x6
 2104 055c CB       		.byte	0xcb
 2105 055d 35050000 		.4byte	0x535
 2106 0561 10       		.uleb128 0x10
 2107 0562 08       		.byte	0x8
 2108 0563 06       		.byte	0x6
 2109 0564 CE       		.byte	0xce
 2110 0565 82050000 		.4byte	0x582
 2111 0569 11       		.uleb128 0x11
 2112 056a C9080000 		.4byte	.LASF140
 2113 056e 06       		.byte	0x6
 2114 056f D1       		.byte	0xd1
 2115 0570 77000000 		.4byte	0x77
 2116 0574 00       		.byte	0
 2117 0575 11       		.uleb128 0x11
 2118 0576 FB100000 		.4byte	.LASF141
 2119 057a 06       		.byte	0x6
 2120 057b D6       		.byte	0xd6
 2121 057c 82050000 		.4byte	0x582
 2122 0580 04       		.byte	0x4
 2123 0581 00       		.byte	0
 2124 0582 0F       		.uleb128 0xf
 2125 0583 04       		.byte	0x4
 2126 0584 56050000 		.4byte	0x556
 2127 0588 0E       		.uleb128 0xe
 2128 0589 7C050000 		.4byte	.LASF142
 2129 058d 06       		.byte	0x6
 2130 058e D8       		.byte	0xd8
 2131 058f 61050000 		.4byte	0x561
 2132 0593 12       		.uleb128 0x12
 2133 0594 08       		.byte	0x8
 2134 0595 06       		.byte	0x6
 2135 0596 DB       		.byte	0xdb
 2136 0597 B2050000 		.4byte	0x5b2
 2137 059b 13       		.uleb128 0x13
 2138 059c E0070000 		.4byte	.LASF143
 2139 05a0 06       		.byte	0x6
 2140 05a1 E2       		.byte	0xe2
 2141 05a2 88050000 		.4byte	0x588
 2142 05a6 13       		.uleb128 0x13
 2143 05a7 680B0000 		.4byte	.LASF144
 2144 05ab 06       		.byte	0x6
ARM GAS  C:\Users\ilias\AppData\Local\Temp\ccbZWpbs.s 			page 61


 2145 05ac E5       		.byte	0xe5
 2146 05ad 77000000 		.4byte	0x77
 2147 05b1 00       		.byte	0
 2148 05b2 0E       		.uleb128 0xe
 2149 05b3 F8050000 		.4byte	.LASF145
 2150 05b7 06       		.byte	0x6
 2151 05b8 E7       		.byte	0xe7
 2152 05b9 93050000 		.4byte	0x593
 2153 05bd 10       		.uleb128 0x10
 2154 05be 14       		.byte	0x14
 2155 05bf 06       		.byte	0x6
 2156 05c0 EA       		.byte	0xea
 2157 05c1 04060000 		.4byte	0x604
 2158 05c5 11       		.uleb128 0x11
 2159 05c6 10060000 		.4byte	.LASF146
 2160 05ca 06       		.byte	0x6
 2161 05cb ED       		.byte	0xed
 2162 05cc 77000000 		.4byte	0x77
 2163 05d0 00       		.byte	0
 2164 05d1 11       		.uleb128 0x11
 2165 05d2 AD060000 		.4byte	.LASF147
 2166 05d6 06       		.byte	0x6
 2167 05d7 F3       		.byte	0xf3
 2168 05d8 77000000 		.4byte	0x77
 2169 05dc 02       		.byte	0x2
 2170 05dd 11       		.uleb128 0x11
 2171 05de 3E040000 		.4byte	.LASF148
 2172 05e2 06       		.byte	0x6
 2173 05e3 FD       		.byte	0xfd
 2174 05e4 83000000 		.4byte	0x83
 2175 05e8 04       		.byte	0x4
 2176 05e9 0B       		.uleb128 0xb
 2177 05ea FB0E0000 		.4byte	.LASF149
 2178 05ee 06       		.byte	0x6
 2179 05ef 0001     		.2byte	0x100
 2180 05f1 77000000 		.4byte	0x77
 2181 05f5 08       		.byte	0x8
 2182 05f6 0B       		.uleb128 0xb
 2183 05f7 7E0C0000 		.4byte	.LASF150
 2184 05fb 06       		.byte	0x6
 2185 05fc 0901     		.2byte	0x109
 2186 05fe B2050000 		.4byte	0x5b2
 2187 0602 0C       		.byte	0xc
 2188 0603 00       		.byte	0
 2189 0604 04       		.uleb128 0x4
 2190 0605 D90F0000 		.4byte	.LASF151
 2191 0609 06       		.byte	0x6
 2192 060a 0A01     		.2byte	0x10a
 2193 060c BD050000 		.4byte	0x5bd
 2194 0610 04       		.uleb128 0x4
 2195 0611 1F100000 		.4byte	.LASF152
 2196 0615 07       		.byte	0x7
 2197 0616 4101     		.2byte	0x141
 2198 0618 1C060000 		.4byte	0x61c
 2199 061c 0F       		.uleb128 0xf
 2200 061d 04       		.byte	0x4
 2201 061e 22060000 		.4byte	0x622
ARM GAS  C:\Users\ilias\AppData\Local\Temp\ccbZWpbs.s 			page 62


 2202 0622 14       		.uleb128 0x14
 2203 0623 32060000 		.4byte	0x632
 2204 0627 15       		.uleb128 0x15
 2205 0628 83000000 		.4byte	0x83
 2206 062c 15       		.uleb128 0x15
 2207 062d BC000000 		.4byte	0xbc
 2208 0631 00       		.byte	0
 2209 0632 16       		.uleb128 0x16
 2210 0633 8301     		.2byte	0x183
 2211 0635 08       		.byte	0x8
 2212 0636 9B       		.byte	0x9b
 2213 0637 6F060000 		.4byte	0x66f
 2214 063b 11       		.uleb128 0x11
 2215 063c EA050000 		.4byte	.LASF153
 2216 0640 08       		.byte	0x8
 2217 0641 9D       		.byte	0x9d
 2218 0642 6F060000 		.4byte	0x66f
 2219 0646 00       		.byte	0
 2220 0647 17       		.uleb128 0x17
 2221 0648 23090000 		.4byte	.LASF154
 2222 064c 08       		.byte	0x8
 2223 064d 9E       		.byte	0x9e
 2224 064e 80060000 		.4byte	0x680
 2225 0652 6D01     		.2byte	0x16d
 2226 0654 17       		.uleb128 0x17
 2227 0655 E8080000 		.4byte	.LASF155
 2228 0659 08       		.byte	0x8
 2229 065a 9F       		.byte	0x9f
 2230 065b 6B000000 		.4byte	0x6b
 2231 065f 8101     		.2byte	0x181
 2232 0661 17       		.uleb128 0x17
 2233 0662 D50A0000 		.4byte	.LASF156
 2234 0666 08       		.byte	0x8
 2235 0667 A0       		.byte	0xa0
 2236 0668 6B000000 		.4byte	0x6b
 2237 066c 8201     		.2byte	0x182
 2238 066e 00       		.byte	0
 2239 066f 0C       		.uleb128 0xc
 2240 0670 6B000000 		.4byte	0x6b
 2241 0674 80060000 		.4byte	0x680
 2242 0678 18       		.uleb128 0x18
 2243 0679 B5000000 		.4byte	0xb5
 2244 067d 6C01     		.2byte	0x16c
 2245 067f 00       		.byte	0
 2246 0680 0C       		.uleb128 0xc
 2247 0681 6B000000 		.4byte	0x6b
 2248 0685 96060000 		.4byte	0x696
 2249 0689 0D       		.uleb128 0xd
 2250 068a B5000000 		.4byte	0xb5
 2251 068e 04       		.byte	0x4
 2252 068f 0D       		.uleb128 0xd
 2253 0690 B5000000 		.4byte	0xb5
 2254 0694 03       		.byte	0x3
 2255 0695 00       		.byte	0
 2256 0696 0E       		.uleb128 0xe
 2257 0697 90100000 		.4byte	.LASF157
 2258 069b 08       		.byte	0x8
ARM GAS  C:\Users\ilias\AppData\Local\Temp\ccbZWpbs.s 			page 63


 2259 069c A1       		.byte	0xa1
 2260 069d 32060000 		.4byte	0x632
 2261 06a1 09       		.uleb128 0x9
 2262 06a2 01       		.byte	0x1
 2263 06a3 09       		.byte	0x9
 2264 06a4 3707     		.2byte	0x737
 2265 06a6 C9060000 		.4byte	0x6c9
 2266 06aa 08       		.uleb128 0x8
 2267 06ab 3F000000 		.4byte	.LASF158
 2268 06af 00       		.sleb128 0
 2269 06b0 08       		.uleb128 0x8
 2270 06b1 6B0A0000 		.4byte	.LASF159
 2271 06b5 01       		.sleb128 1
 2272 06b6 08       		.uleb128 0x8
 2273 06b7 97110000 		.4byte	.LASF160
 2274 06bb 02       		.sleb128 2
 2275 06bc 08       		.uleb128 0x8
 2276 06bd 82030000 		.4byte	.LASF161
 2277 06c1 03       		.sleb128 3
 2278 06c2 08       		.uleb128 0x8
 2279 06c3 C2040000 		.4byte	.LASF162
 2280 06c7 04       		.sleb128 4
 2281 06c8 00       		.byte	0
 2282 06c9 04       		.uleb128 0x4
 2283 06ca A5100000 		.4byte	.LASF163
 2284 06ce 09       		.byte	0x9
 2285 06cf 4507     		.2byte	0x745
 2286 06d1 A1060000 		.4byte	0x6a1
 2287 06d5 19       		.uleb128 0x19
 2288 06d6 C2120000 		.4byte	.LASF164
 2289 06da 01       		.byte	0x1
 2290 06db 9F       		.byte	0x9f
 2291 06dc 00000000 		.4byte	.LFB2
 2292 06e0 40000000 		.4byte	.LFE2-.LFB2
 2293 06e4 01       		.uleb128 0x1
 2294 06e5 9C       		.byte	0x9c
 2295 06e6 19       		.uleb128 0x19
 2296 06e7 32070000 		.4byte	.LASF165
 2297 06eb 01       		.byte	0x1
 2298 06ec D0       		.byte	0xd0
 2299 06ed 00000000 		.4byte	.LFB3
 2300 06f1 0C000000 		.4byte	.LFE3-.LFB3
 2301 06f5 01       		.uleb128 0x1
 2302 06f6 9C       		.byte	0x9c
 2303 06f7 1A       		.uleb128 0x1a
 2304 06f8 01090000 		.4byte	.LASF169
 2305 06fc 01       		.byte	0x1
 2306 06fd 7F01     		.2byte	0x17f
 2307 06ff FA020000 		.4byte	0x2fa
 2308 0703 00000000 		.4byte	.LFB4
 2309 0707 DC000000 		.4byte	.LFE4-.LFB4
 2310 070b 01       		.uleb128 0x1
 2311 070c 9C       		.byte	0x9c
 2312 070d 3F070000 		.4byte	0x73f
 2313 0711 1B       		.uleb128 0x1b
 2314 0712 710C0000 		.4byte	.LASF171
 2315 0716 01       		.byte	0x1
ARM GAS  C:\Users\ilias\AppData\Local\Temp\ccbZWpbs.s 			page 64


 2316 0717 7F01     		.2byte	0x17f
 2317 0719 10060000 		.4byte	0x610
 2318 071d 02       		.uleb128 0x2
 2319 071e 91       		.byte	0x91
 2320 071f 44       		.sleb128 -60
 2321 0720 1C       		.uleb128 0x1c
 2322 0721 010B0000 		.4byte	.LASF166
 2323 0725 01       		.byte	0x1
 2324 0726 8101     		.2byte	0x181
 2325 0728 FA020000 		.4byte	0x2fa
 2326 072c 02       		.uleb128 0x2
 2327 072d 91       		.byte	0x91
 2328 072e 66       		.sleb128 -26
 2329 072f 1C       		.uleb128 0x1c
 2330 0730 440E0000 		.4byte	.LASF167
 2331 0734 01       		.byte	0x1
 2332 0735 8501     		.2byte	0x185
 2333 0737 3F070000 		.4byte	0x73f
 2334 073b 02       		.uleb128 0x2
 2335 073c 91       		.byte	0x91
 2336 073d 4C       		.sleb128 -52
 2337 073e 00       		.byte	0
 2338 073f 0C       		.uleb128 0xc
 2339 0740 6A030000 		.4byte	0x36a
 2340 0744 4F070000 		.4byte	0x74f
 2341 0748 0D       		.uleb128 0xd
 2342 0749 B5000000 		.4byte	0xb5
 2343 074d 05       		.byte	0x5
 2344 074e 00       		.byte	0
 2345 074f 1D       		.uleb128 0x1d
 2346 0750 1E0B0000 		.4byte	.LASF168
 2347 0754 01       		.byte	0x1
 2348 0755 D301     		.2byte	0x1d3
 2349 0757 00000000 		.4byte	.LFB5
 2350 075b 18000000 		.4byte	.LFE5-.LFB5
 2351 075f 01       		.uleb128 0x1
 2352 0760 9C       		.byte	0x9c
 2353 0761 1A       		.uleb128 0x1a
 2354 0762 08100000 		.4byte	.LASF170
 2355 0766 01       		.byte	0x1
 2356 0767 0802     		.2byte	0x208
 2357 0769 FA020000 		.4byte	0x2fa
 2358 076d 00000000 		.4byte	.LFB6
 2359 0771 E0000000 		.4byte	.LFE6-.LFB6
 2360 0775 01       		.uleb128 0x1
 2361 0776 9C       		.byte	0x9c
 2362 0777 9A070000 		.4byte	0x79a
 2363 077b 1B       		.uleb128 0x1b
 2364 077c AA040000 		.4byte	.LASF172
 2365 0780 01       		.byte	0x1
 2366 0781 0802     		.2byte	0x208
 2367 0783 6B000000 		.4byte	0x6b
 2368 0787 02       		.uleb128 0x2
 2369 0788 91       		.byte	0x91
 2370 0789 67       		.sleb128 -25
 2371 078a 1C       		.uleb128 0x1c
 2372 078b 010B0000 		.4byte	.LASF166
ARM GAS  C:\Users\ilias\AppData\Local\Temp\ccbZWpbs.s 			page 65


 2373 078f 01       		.byte	0x1
 2374 0790 0A02     		.2byte	0x20a
 2375 0792 FA020000 		.4byte	0x2fa
 2376 0796 02       		.uleb128 0x2
 2377 0797 91       		.byte	0x91
 2378 0798 6E       		.sleb128 -18
 2379 0799 00       		.byte	0
 2380 079a 1A       		.uleb128 0x1a
 2381 079b 170C0000 		.4byte	.LASF173
 2382 079f 01       		.byte	0x1
 2383 07a0 6002     		.2byte	0x260
 2384 07a2 FA020000 		.4byte	0x2fa
 2385 07a6 00000000 		.4byte	.LFB7
 2386 07aa D4000000 		.4byte	.LFE7-.LFB7
 2387 07ae 01       		.uleb128 0x1
 2388 07af 9C       		.byte	0x9c
 2389 07b0 D3070000 		.4byte	0x7d3
 2390 07b4 1B       		.uleb128 0x1b
 2391 07b5 D60E0000 		.4byte	.LASF174
 2392 07b9 01       		.byte	0x1
 2393 07ba 6002     		.2byte	0x260
 2394 07bc 6B000000 		.4byte	0x6b
 2395 07c0 02       		.uleb128 0x2
 2396 07c1 91       		.byte	0x91
 2397 07c2 67       		.sleb128 -25
 2398 07c3 1C       		.uleb128 0x1c
 2399 07c4 010B0000 		.4byte	.LASF166
 2400 07c8 01       		.byte	0x1
 2401 07c9 6202     		.2byte	0x262
 2402 07cb FA020000 		.4byte	0x2fa
 2403 07cf 02       		.uleb128 0x2
 2404 07d0 91       		.byte	0x91
 2405 07d1 6E       		.sleb128 -18
 2406 07d2 00       		.byte	0
 2407 07d3 1D       		.uleb128 0x1d
 2408 07d4 EE010000 		.4byte	.LASF175
 2409 07d8 01       		.byte	0x1
 2410 07d9 9D02     		.2byte	0x29d
 2411 07db 00000000 		.4byte	.LFB8
 2412 07df 20000000 		.4byte	.LFE8-.LFB8
 2413 07e3 01       		.uleb128 0x1
 2414 07e4 9C       		.byte	0x9c
 2415 07e5 1E       		.uleb128 0x1e
 2416 07e6 FC0C0000 		.4byte	.LASF187
 2417 07ea 01       		.byte	0x1
 2418 07eb B302     		.2byte	0x2b3
 2419 07ed 00000000 		.4byte	.LFB9
 2420 07f1 60000000 		.4byte	.LFE9-.LFB9
 2421 07f5 01       		.uleb128 0x1
 2422 07f6 9C       		.byte	0x9c
 2423 07f7 36080000 		.4byte	0x836
 2424 07fb 1B       		.uleb128 0x1b
 2425 07fc 56050000 		.4byte	.LASF103
 2426 0800 01       		.byte	0x1
 2427 0801 B302     		.2byte	0x2b3
 2428 0803 36080000 		.4byte	0x836
 2429 0807 02       		.uleb128 0x2
ARM GAS  C:\Users\ilias\AppData\Local\Temp\ccbZWpbs.s 			page 66


 2430 0808 91       		.byte	0x91
 2431 0809 6C       		.sleb128 -20
 2432 080a 1B       		.uleb128 0x1b
 2433 080b 630B0000 		.4byte	.LASF176
 2434 080f 01       		.byte	0x1
 2435 0810 B302     		.2byte	0x2b3
 2436 0812 6B000000 		.4byte	0x6b
 2437 0816 02       		.uleb128 0x2
 2438 0817 91       		.byte	0x91
 2439 0818 6B       		.sleb128 -21
 2440 0819 1F       		.uleb128 0x1f
 2441 081a 6900     		.ascii	"i\000"
 2442 081c 01       		.byte	0x1
 2443 081d B502     		.2byte	0x2b5
 2444 081f 6B000000 		.4byte	0x6b
 2445 0823 02       		.uleb128 0x2
 2446 0824 91       		.byte	0x91
 2447 0825 77       		.sleb128 -9
 2448 0826 1C       		.uleb128 0x1c
 2449 0827 21060000 		.4byte	.LASF177
 2450 082b 01       		.byte	0x1
 2451 082c B602     		.2byte	0x2b6
 2452 082e FF040000 		.4byte	0x4ff
 2453 0832 02       		.uleb128 0x2
 2454 0833 91       		.byte	0x91
 2455 0834 70       		.sleb128 -16
 2456 0835 00       		.byte	0
 2457 0836 0F       		.uleb128 0xf
 2458 0837 04       		.byte	0x4
 2459 0838 3C080000 		.4byte	0x83c
 2460 083c 20       		.uleb128 0x20
 2461 083d 3A030000 		.4byte	0x33a
 2462 0841 21       		.uleb128 0x21
 2463 0842 ED0D0000 		.4byte	.LASF213
 2464 0846 01       		.byte	0x1
 2465 0847 E803     		.2byte	0x3e8
 2466 0849 00000000 		.4byte	.LFB10
 2467 084d A4010000 		.4byte	.LFE10-.LFB10
 2468 0851 01       		.uleb128 0x1
 2469 0852 9C       		.byte	0x9c
 2470 0853 CE080000 		.4byte	0x8ce
 2471 0857 1B       		.uleb128 0x1b
 2472 0858 DB070000 		.4byte	.LASF178
 2473 085c 01       		.byte	0x1
 2474 085d E803     		.2byte	0x3e8
 2475 085f CE080000 		.4byte	0x8ce
 2476 0863 02       		.uleb128 0x2
 2477 0864 91       		.byte	0x91
 2478 0865 64       		.sleb128 -28
 2479 0866 1B       		.uleb128 0x1b
 2480 0867 630B0000 		.4byte	.LASF176
 2481 086b 01       		.byte	0x1
 2482 086c E803     		.2byte	0x3e8
 2483 086e 6B000000 		.4byte	0x6b
 2484 0872 02       		.uleb128 0x2
 2485 0873 91       		.byte	0x91
 2486 0874 63       		.sleb128 -29
ARM GAS  C:\Users\ilias\AppData\Local\Temp\ccbZWpbs.s 			page 67


 2487 0875 1F       		.uleb128 0x1f
 2488 0876 6900     		.ascii	"i\000"
 2489 0878 01       		.byte	0x1
 2490 0879 EA03     		.2byte	0x3ea
 2491 087b 6B000000 		.4byte	0x6b
 2492 087f 02       		.uleb128 0x2
 2493 0880 91       		.byte	0x91
 2494 0881 77       		.sleb128 -9
 2495 0882 1C       		.uleb128 0x1c
 2496 0883 370D0000 		.4byte	.LASF179
 2497 0887 01       		.byte	0x1
 2498 0888 EB03     		.2byte	0x3eb
 2499 088a 6B000000 		.4byte	0x6b
 2500 088e 02       		.uleb128 0x2
 2501 088f 91       		.byte	0x91
 2502 0890 76       		.sleb128 -10
 2503 0891 1C       		.uleb128 0x1c
 2504 0892 AB0E0000 		.4byte	.LASF180
 2505 0896 01       		.byte	0x1
 2506 0897 EC03     		.2byte	0x3ec
 2507 0899 6B000000 		.4byte	0x6b
 2508 089d 02       		.uleb128 0x2
 2509 089e 91       		.byte	0x91
 2510 089f 75       		.sleb128 -11
 2511 08a0 1C       		.uleb128 0x1c
 2512 08a1 4E100000 		.4byte	.LASF181
 2513 08a5 01       		.byte	0x1
 2514 08a6 ED03     		.2byte	0x3ed
 2515 08a8 6B000000 		.4byte	0x6b
 2516 08ac 02       		.uleb128 0x2
 2517 08ad 91       		.byte	0x91
 2518 08ae 74       		.sleb128 -12
 2519 08af 1C       		.uleb128 0x1c
 2520 08b0 21060000 		.4byte	.LASF177
 2521 08b4 01       		.byte	0x1
 2522 08b5 EE03     		.2byte	0x3ee
 2523 08b7 FF040000 		.4byte	0x4ff
 2524 08bb 02       		.uleb128 0x2
 2525 08bc 91       		.byte	0x91
 2526 08bd 70       		.sleb128 -16
 2527 08be 1C       		.uleb128 0x1c
 2528 08bf 0C110000 		.4byte	.LASF182
 2529 08c3 01       		.byte	0x1
 2530 08c4 EF03     		.2byte	0x3ef
 2531 08c6 6B000000 		.4byte	0x6b
 2532 08ca 02       		.uleb128 0x2
 2533 08cb 91       		.byte	0x91
 2534 08cc 6F       		.sleb128 -17
 2535 08cd 00       		.byte	0
 2536 08ce 0F       		.uleb128 0xf
 2537 08cf 04       		.byte	0x4
 2538 08d0 D4080000 		.4byte	0x8d4
 2539 08d4 20       		.uleb128 0x20
 2540 08d5 9D000000 		.4byte	0x9d
 2541 08d9 1A       		.uleb128 0x1a
 2542 08da 11040000 		.4byte	.LASF183
 2543 08de 01       		.byte	0x1
ARM GAS  C:\Users\ilias\AppData\Local\Temp\ccbZWpbs.s 			page 68


 2544 08df 4D04     		.2byte	0x44d
 2545 08e1 FA020000 		.4byte	0x2fa
 2546 08e5 00000000 		.4byte	.LFB11
 2547 08e9 C8000000 		.4byte	.LFE11-.LFB11
 2548 08ed 01       		.uleb128 0x1
 2549 08ee 9C       		.byte	0x9c
 2550 08ef 3D090000 		.4byte	0x93d
 2551 08f3 1B       		.uleb128 0x1b
 2552 08f4 DB070000 		.4byte	.LASF178
 2553 08f8 01       		.byte	0x1
 2554 08f9 4D04     		.2byte	0x44d
 2555 08fb CE080000 		.4byte	0x8ce
 2556 08ff 02       		.uleb128 0x2
 2557 0900 91       		.byte	0x91
 2558 0901 64       		.sleb128 -28
 2559 0902 1C       		.uleb128 0x1c
 2560 0903 010B0000 		.4byte	.LASF166
 2561 0907 01       		.byte	0x1
 2562 0908 4F04     		.2byte	0x44f
 2563 090a FA020000 		.4byte	0x2fa
 2564 090e 02       		.uleb128 0x2
 2565 090f 91       		.byte	0x91
 2566 0910 76       		.sleb128 -10
 2567 0911 1F       		.uleb128 0x1f
 2568 0912 6900     		.ascii	"i\000"
 2569 0914 01       		.byte	0x1
 2570 0915 5004     		.2byte	0x450
 2571 0917 6B000000 		.4byte	0x6b
 2572 091b 02       		.uleb128 0x2
 2573 091c 91       		.byte	0x91
 2574 091d 75       		.sleb128 -11
 2575 091e 1F       		.uleb128 0x1f
 2576 091f 70747200 		.ascii	"ptr\000"
 2577 0923 01       		.byte	0x1
 2578 0924 5104     		.2byte	0x451
 2579 0926 3D090000 		.4byte	0x93d
 2580 092a 02       		.uleb128 0x2
 2581 092b 91       		.byte	0x91
 2582 092c 70       		.sleb128 -16
 2583 092d 1C       		.uleb128 0x1c
 2584 092e 9C090000 		.4byte	.LASF184
 2585 0932 01       		.byte	0x1
 2586 0933 5204     		.2byte	0x452
 2587 0935 6B000000 		.4byte	0x6b
 2588 0939 02       		.uleb128 0x2
 2589 093a 91       		.byte	0x91
 2590 093b 6F       		.sleb128 -17
 2591 093c 00       		.byte	0
 2592 093d 0F       		.uleb128 0xf
 2593 093e 04       		.byte	0x4
 2594 093f 9D000000 		.4byte	0x9d
 2595 0943 22       		.uleb128 0x22
 2596 0944 0D090000 		.4byte	.LASF185
 2597 0948 01       		.byte	0x1
 2598 0949 9504     		.2byte	0x495
 2599 094b FA020000 		.4byte	0x2fa
 2600 094f 00000000 		.4byte	.LFB12
ARM GAS  C:\Users\ilias\AppData\Local\Temp\ccbZWpbs.s 			page 69


 2601 0953 A4000000 		.4byte	.LFE12-.LFB12
 2602 0957 01       		.uleb128 0x1
 2603 0958 9C       		.byte	0x9c
 2604 0959 A7090000 		.4byte	0x9a7
 2605 095d 1B       		.uleb128 0x1b
 2606 095e DB070000 		.4byte	.LASF178
 2607 0962 01       		.byte	0x1
 2608 0963 9504     		.2byte	0x495
 2609 0965 3D090000 		.4byte	0x93d
 2610 0969 02       		.uleb128 0x2
 2611 096a 91       		.byte	0x91
 2612 096b 64       		.sleb128 -28
 2613 096c 1C       		.uleb128 0x1c
 2614 096d 010B0000 		.4byte	.LASF166
 2615 0971 01       		.byte	0x1
 2616 0972 9704     		.2byte	0x497
 2617 0974 FA020000 		.4byte	0x2fa
 2618 0978 02       		.uleb128 0x2
 2619 0979 91       		.byte	0x91
 2620 097a 76       		.sleb128 -10
 2621 097b 1C       		.uleb128 0x1c
 2622 097c 9C090000 		.4byte	.LASF184
 2623 0980 01       		.byte	0x1
 2624 0981 9804     		.2byte	0x498
 2625 0983 6B000000 		.4byte	0x6b
 2626 0987 02       		.uleb128 0x2
 2627 0988 91       		.byte	0x91
 2628 0989 6F       		.sleb128 -17
 2629 098a 1F       		.uleb128 0x1f
 2630 098b 6900     		.ascii	"i\000"
 2631 098d 01       		.byte	0x1
 2632 098e 9904     		.2byte	0x499
 2633 0990 6B000000 		.4byte	0x6b
 2634 0994 02       		.uleb128 0x2
 2635 0995 91       		.byte	0x91
 2636 0996 75       		.sleb128 -11
 2637 0997 1F       		.uleb128 0x1f
 2638 0998 70747200 		.ascii	"ptr\000"
 2639 099c 01       		.byte	0x1
 2640 099d 9A04     		.2byte	0x49a
 2641 099f 3D090000 		.4byte	0x93d
 2642 09a3 02       		.uleb128 0x2
 2643 09a4 91       		.byte	0x91
 2644 09a5 70       		.sleb128 -16
 2645 09a6 00       		.byte	0
 2646 09a7 22       		.uleb128 0x22
 2647 09a8 BD010000 		.4byte	.LASF186
 2648 09ac 01       		.byte	0x1
 2649 09ad C704     		.2byte	0x4c7
 2650 09af 77000000 		.4byte	0x77
 2651 09b3 00000000 		.4byte	.LFB13
 2652 09b7 26000000 		.4byte	.LFE13-.LFB13
 2653 09bb 01       		.uleb128 0x1
 2654 09bc 9C       		.byte	0x9c
 2655 09bd D1090000 		.4byte	0x9d1
 2656 09c1 23       		.uleb128 0x23
 2657 09c2 70747200 		.ascii	"ptr\000"
ARM GAS  C:\Users\ilias\AppData\Local\Temp\ccbZWpbs.s 			page 70


 2658 09c6 01       		.byte	0x1
 2659 09c7 C704     		.2byte	0x4c7
 2660 09c9 D1090000 		.4byte	0x9d1
 2661 09cd 02       		.uleb128 0x2
 2662 09ce 91       		.byte	0x91
 2663 09cf 74       		.sleb128 -12
 2664 09d0 00       		.byte	0
 2665 09d1 0F       		.uleb128 0xf
 2666 09d2 04       		.byte	0x4
 2667 09d3 D7090000 		.4byte	0x9d7
 2668 09d7 20       		.uleb128 0x20
 2669 09d8 6B000000 		.4byte	0x6b
 2670 09dc 1E       		.uleb128 0x1e
 2671 09dd D7080000 		.4byte	.LASF188
 2672 09e1 01       		.byte	0x1
 2673 09e2 DA04     		.2byte	0x4da
 2674 09e4 00000000 		.4byte	.LFB14
 2675 09e8 2E000000 		.4byte	.LFE14-.LFB14
 2676 09ec 01       		.uleb128 0x1
 2677 09ed 9C       		.byte	0x9c
 2678 09ee 110A0000 		.4byte	0xa11
 2679 09f2 23       		.uleb128 0x23
 2680 09f3 70747200 		.ascii	"ptr\000"
 2681 09f7 01       		.byte	0x1
 2682 09f8 DA04     		.2byte	0x4da
 2683 09fa FF040000 		.4byte	0x4ff
 2684 09fe 02       		.uleb128 0x2
 2685 09ff 91       		.byte	0x91
 2686 0a00 74       		.sleb128 -12
 2687 0a01 1B       		.uleb128 0x1b
 2688 0a02 D7060000 		.4byte	.LASF189
 2689 0a06 01       		.byte	0x1
 2690 0a07 DA04     		.2byte	0x4da
 2691 0a09 77000000 		.4byte	0x77
 2692 0a0d 02       		.uleb128 0x2
 2693 0a0e 91       		.byte	0x91
 2694 0a0f 72       		.sleb128 -14
 2695 0a10 00       		.byte	0
 2696 0a11 24       		.uleb128 0x24
 2697 0a12 DA0D0000 		.4byte	.LASF190
 2698 0a16 01       		.byte	0x1
 2699 0a17 85       		.byte	0x85
 2700 0a18 10060000 		.4byte	0x610
 2701 0a1c 05       		.uleb128 0x5
 2702 0a1d 03       		.byte	0x3
 2703 0a1e 00000000 		.4byte	CyBle_ApplCallback
 2704 0a22 24       		.uleb128 0x24
 2705 0a23 78080000 		.4byte	.LASF191
 2706 0a27 01       		.byte	0x1
 2707 0a28 2B       		.byte	0x2b
 2708 0a29 6B000000 		.4byte	0x6b
 2709 0a2d 05       		.uleb128 0x5
 2710 0a2e 03       		.byte	0x3
 2711 0a2f 00000000 		.4byte	cyBle_initVar
 2712 0a33 0C       		.uleb128 0xc
 2713 0a34 6B000000 		.4byte	0x6b
 2714 0a38 440A0000 		.4byte	0xa44
ARM GAS  C:\Users\ilias\AppData\Local\Temp\ccbZWpbs.s 			page 71


 2715 0a3c 18       		.uleb128 0x18
 2716 0a3d B5000000 		.4byte	0xb5
 2717 0a41 C70A     		.2byte	0xac7
 2718 0a43 00       		.byte	0
 2719 0a44 24       		.uleb128 0x24
 2720 0a45 84010000 		.4byte	.LASF192
 2721 0a49 01       		.byte	0x1
 2722 0a4a 36       		.byte	0x36
 2723 0a4b 330A0000 		.4byte	0xa33
 2724 0a4f 05       		.uleb128 0x5
 2725 0a50 03       		.byte	0x3
 2726 0a51 00000000 		.4byte	cyBle_stackMemoryRam
 2727 0a55 25       		.uleb128 0x25
 2728 0a56 E4090000 		.4byte	.LASF193
 2729 0a5a 07       		.byte	0x7
 2730 0a5b D301     		.2byte	0x1d3
 2731 0a5d B0000000 		.4byte	0xb0
 2732 0a61 24       		.uleb128 0x24
 2733 0a62 16110000 		.4byte	.LASF194
 2734 0a66 01       		.byte	0x1
 2735 0a67 86       		.byte	0x86
 2736 0a68 3A030000 		.4byte	0x33a
 2737 0a6c 05       		.uleb128 0x5
 2738 0a6d 03       		.byte	0x3
 2739 0a6e 00000000 		.4byte	cyBle_deviceAddress
 2740 0a72 24       		.uleb128 0x24
 2741 0a73 7D110000 		.4byte	.LASF195
 2742 0a77 01       		.byte	0x1
 2743 0a78 87       		.byte	0x87
 2744 0a79 830A0000 		.4byte	0xa83
 2745 0a7d 05       		.uleb128 0x5
 2746 0a7e 03       		.byte	0x3
 2747 0a7f 00000000 		.4byte	cyBle_sflashDeviceAddress
 2748 0a83 0F       		.uleb128 0xf
 2749 0a84 04       		.byte	0x4
 2750 0a85 3A030000 		.4byte	0x33a
 2751 0a89 24       		.uleb128 0x24
 2752 0a8a 340C0000 		.4byte	.LASF196
 2753 0a8e 01       		.byte	0x1
 2754 0a8f 8D       		.byte	0x8d
 2755 0a90 9A0A0000 		.4byte	0xa9a
 2756 0a94 05       		.uleb128 0x5
 2757 0a95 03       		.byte	0x3
 2758 0a96 00000000 		.4byte	cyBle_StackFlashptr
 2759 0a9a 20       		.uleb128 0x20
 2760 0a9b 6F060000 		.4byte	0x66f
 2761 0a9f 24       		.uleb128 0x24
 2762 0aa0 1D070000 		.4byte	.LASF197
 2763 0aa4 01       		.byte	0x1
 2764 0aa5 3C       		.byte	0x3c
 2765 0aa6 1A040000 		.4byte	0x41a
 2766 0aaa 05       		.uleb128 0x5
 2767 0aab 03       		.byte	0x3
 2768 0aac 00000000 		.4byte	cyBle_discoveryParam
 2769 0ab0 24       		.uleb128 0x24
 2770 0ab1 0A020000 		.4byte	.LASF198
 2771 0ab5 01       		.byte	0x1
ARM GAS  C:\Users\ilias\AppData\Local\Temp\ccbZWpbs.s 			page 72


 2772 0ab6 48       		.byte	0x48
 2773 0ab7 5A040000 		.4byte	0x45a
 2774 0abb 05       		.uleb128 0x5
 2775 0abc 03       		.byte	0x3
 2776 0abd 00000000 		.4byte	cyBle_discoveryData
 2777 0ac1 24       		.uleb128 0x24
 2778 0ac2 2A110000 		.4byte	.LASF199
 2779 0ac6 01       		.byte	0x1
 2780 0ac7 51       		.byte	0x51
 2781 0ac8 8A040000 		.4byte	0x48a
 2782 0acc 05       		.uleb128 0x5
 2783 0acd 03       		.byte	0x3
 2784 0ace 00000000 		.4byte	cyBle_scanRspData
 2785 0ad2 24       		.uleb128 0x24
 2786 0ad3 4A0A0000 		.4byte	.LASF200
 2787 0ad7 01       		.byte	0x1
 2788 0ad8 61       		.byte	0x61
 2789 0ad9 F3040000 		.4byte	0x4f3
 2790 0add 05       		.uleb128 0x5
 2791 0ade 03       		.byte	0x3
 2792 0adf 00000000 		.4byte	cyBle_discoveryModeInfo
 2793 0ae3 24       		.uleb128 0x24
 2794 0ae4 E10B0000 		.4byte	.LASF201
 2795 0ae8 01       		.byte	0x1
 2796 0ae9 81       		.byte	0x81
 2797 0aea 6B000000 		.4byte	0x6b
 2798 0aee 05       		.uleb128 0x5
 2799 0aef 03       		.byte	0x3
 2800 0af0 00000000 		.4byte	cyBle_pendingFlashWrite
 2801 0af4 24       		.uleb128 0x24
 2802 0af5 9C0C0000 		.4byte	.LASF202
 2803 0af9 01       		.byte	0x1
 2804 0afa 80       		.byte	0x80
 2805 0afb 6B000000 		.4byte	0x6b
 2806 0aff 05       		.uleb128 0x5
 2807 0b00 03       		.byte	0x3
 2808 0b01 00000000 		.4byte	cyBle_peerBonding
 2809 0b05 0C       		.uleb128 0xc
 2810 0b06 04060000 		.4byte	0x604
 2811 0b0a 150B0000 		.4byte	0xb15
 2812 0b0e 0D       		.uleb128 0xd
 2813 0b0f B5000000 		.4byte	0xb5
 2814 0b13 0F       		.byte	0xf
 2815 0b14 00       		.byte	0
 2816 0b15 26       		.uleb128 0x26
 2817 0b16 580E0000 		.4byte	.LASF203
 2818 0b1a 08       		.byte	0x8
 2819 0b1b DE       		.byte	0xde
 2820 0b1c 200B0000 		.4byte	0xb20
 2821 0b20 20       		.uleb128 0x20
 2822 0b21 050B0000 		.4byte	0xb05
 2823 0b25 0C       		.uleb128 0xc
 2824 0b26 6B000000 		.4byte	0x6b
 2825 0b2a 350B0000 		.4byte	0xb35
 2826 0b2e 0D       		.uleb128 0xd
 2827 0b2f B5000000 		.4byte	0xb5
 2828 0b33 03       		.byte	0x3
ARM GAS  C:\Users\ilias\AppData\Local\Temp\ccbZWpbs.s 			page 73


 2829 0b34 00       		.byte	0
 2830 0b35 26       		.uleb128 0x26
 2831 0b36 0A080000 		.4byte	.LASF204
 2832 0b3a 08       		.byte	0x8
 2833 0b3b E2       		.byte	0xe2
 2834 0b3c 250B0000 		.4byte	0xb25
 2835 0b40 26       		.uleb128 0x26
 2836 0b41 A10B0000 		.4byte	.LASF205
 2837 0b45 08       		.byte	0x8
 2838 0b46 E9       		.byte	0xe9
 2839 0b47 4B0B0000 		.4byte	0xb4b
 2840 0b4b 20       		.uleb128 0x20
 2841 0b4c 96060000 		.4byte	0x696
 2842 0b50 25       		.uleb128 0x25
 2843 0b51 49090000 		.4byte	.LASF206
 2844 0b55 09       		.byte	0x9
 2845 0b56 2C09     		.2byte	0x92c
 2846 0b58 C9060000 		.4byte	0x6c9
 2847 0b5c 25       		.uleb128 0x25
 2848 0b5d AA0A0000 		.4byte	.LASF207
 2849 0b61 09       		.byte	0x9
 2850 0b62 2D09     		.2byte	0x92d
 2851 0b64 29050000 		.4byte	0x529
 2852 0b68 25       		.uleb128 0x25
 2853 0b69 A2020000 		.4byte	.LASF208
 2854 0b6d 09       		.byte	0x9
 2855 0b6e 2E09     		.2byte	0x92e
 2856 0b70 B0000000 		.4byte	0xb0
 2857 0b74 25       		.uleb128 0x25
 2858 0b75 F90B0000 		.4byte	.LASF209
 2859 0b79 09       		.byte	0x9
 2860 0b7a 3109     		.2byte	0x931
 2861 0b7c 6B000000 		.4byte	0x6b
 2862 0b80 00       		.byte	0
 2863              		.section	.debug_abbrev,"",%progbits
 2864              	.Ldebug_abbrev0:
 2865 0000 01       		.uleb128 0x1
 2866 0001 11       		.uleb128 0x11
 2867 0002 01       		.byte	0x1
 2868 0003 25       		.uleb128 0x25
 2869 0004 0E       		.uleb128 0xe
 2870 0005 13       		.uleb128 0x13
 2871 0006 0B       		.uleb128 0xb
 2872 0007 03       		.uleb128 0x3
 2873 0008 0E       		.uleb128 0xe
 2874 0009 1B       		.uleb128 0x1b
 2875 000a 0E       		.uleb128 0xe
 2876 000b 55       		.uleb128 0x55
 2877 000c 17       		.uleb128 0x17
 2878 000d 11       		.uleb128 0x11
 2879 000e 01       		.uleb128 0x1
 2880 000f 10       		.uleb128 0x10
 2881 0010 17       		.uleb128 0x17
 2882 0011 00       		.byte	0
 2883 0012 00       		.byte	0
 2884 0013 02       		.uleb128 0x2
 2885 0014 24       		.uleb128 0x24
ARM GAS  C:\Users\ilias\AppData\Local\Temp\ccbZWpbs.s 			page 74


 2886 0015 00       		.byte	0
 2887 0016 0B       		.uleb128 0xb
 2888 0017 0B       		.uleb128 0xb
 2889 0018 3E       		.uleb128 0x3e
 2890 0019 0B       		.uleb128 0xb
 2891 001a 03       		.uleb128 0x3
 2892 001b 0E       		.uleb128 0xe
 2893 001c 00       		.byte	0
 2894 001d 00       		.byte	0
 2895 001e 03       		.uleb128 0x3
 2896 001f 24       		.uleb128 0x24
 2897 0020 00       		.byte	0
 2898 0021 0B       		.uleb128 0xb
 2899 0022 0B       		.uleb128 0xb
 2900 0023 3E       		.uleb128 0x3e
 2901 0024 0B       		.uleb128 0xb
 2902 0025 03       		.uleb128 0x3
 2903 0026 08       		.uleb128 0x8
 2904 0027 00       		.byte	0
 2905 0028 00       		.byte	0
 2906 0029 04       		.uleb128 0x4
 2907 002a 16       		.uleb128 0x16
 2908 002b 00       		.byte	0
 2909 002c 03       		.uleb128 0x3
 2910 002d 0E       		.uleb128 0xe
 2911 002e 3A       		.uleb128 0x3a
 2912 002f 0B       		.uleb128 0xb
 2913 0030 3B       		.uleb128 0x3b
 2914 0031 05       		.uleb128 0x5
 2915 0032 49       		.uleb128 0x49
 2916 0033 13       		.uleb128 0x13
 2917 0034 00       		.byte	0
 2918 0035 00       		.byte	0
 2919 0036 05       		.uleb128 0x5
 2920 0037 35       		.uleb128 0x35
 2921 0038 00       		.byte	0
 2922 0039 49       		.uleb128 0x49
 2923 003a 13       		.uleb128 0x13
 2924 003b 00       		.byte	0
 2925 003c 00       		.byte	0
 2926 003d 06       		.uleb128 0x6
 2927 003e 0F       		.uleb128 0xf
 2928 003f 00       		.byte	0
 2929 0040 0B       		.uleb128 0xb
 2930 0041 0B       		.uleb128 0xb
 2931 0042 00       		.byte	0
 2932 0043 00       		.byte	0
 2933 0044 07       		.uleb128 0x7
 2934 0045 04       		.uleb128 0x4
 2935 0046 01       		.byte	0x1
 2936 0047 0B       		.uleb128 0xb
 2937 0048 0B       		.uleb128 0xb
 2938 0049 3A       		.uleb128 0x3a
 2939 004a 0B       		.uleb128 0xb
 2940 004b 3B       		.uleb128 0x3b
 2941 004c 0B       		.uleb128 0xb
 2942 004d 01       		.uleb128 0x1
ARM GAS  C:\Users\ilias\AppData\Local\Temp\ccbZWpbs.s 			page 75


 2943 004e 13       		.uleb128 0x13
 2944 004f 00       		.byte	0
 2945 0050 00       		.byte	0
 2946 0051 08       		.uleb128 0x8
 2947 0052 28       		.uleb128 0x28
 2948 0053 00       		.byte	0
 2949 0054 03       		.uleb128 0x3
 2950 0055 0E       		.uleb128 0xe
 2951 0056 1C       		.uleb128 0x1c
 2952 0057 0D       		.uleb128 0xd
 2953 0058 00       		.byte	0
 2954 0059 00       		.byte	0
 2955 005a 09       		.uleb128 0x9
 2956 005b 04       		.uleb128 0x4
 2957 005c 01       		.byte	0x1
 2958 005d 0B       		.uleb128 0xb
 2959 005e 0B       		.uleb128 0xb
 2960 005f 3A       		.uleb128 0x3a
 2961 0060 0B       		.uleb128 0xb
 2962 0061 3B       		.uleb128 0x3b
 2963 0062 05       		.uleb128 0x5
 2964 0063 01       		.uleb128 0x1
 2965 0064 13       		.uleb128 0x13
 2966 0065 00       		.byte	0
 2967 0066 00       		.byte	0
 2968 0067 0A       		.uleb128 0xa
 2969 0068 13       		.uleb128 0x13
 2970 0069 01       		.byte	0x1
 2971 006a 0B       		.uleb128 0xb
 2972 006b 0B       		.uleb128 0xb
 2973 006c 3A       		.uleb128 0x3a
 2974 006d 0B       		.uleb128 0xb
 2975 006e 3B       		.uleb128 0x3b
 2976 006f 05       		.uleb128 0x5
 2977 0070 01       		.uleb128 0x1
 2978 0071 13       		.uleb128 0x13
 2979 0072 00       		.byte	0
 2980 0073 00       		.byte	0
 2981 0074 0B       		.uleb128 0xb
 2982 0075 0D       		.uleb128 0xd
 2983 0076 00       		.byte	0
 2984 0077 03       		.uleb128 0x3
 2985 0078 0E       		.uleb128 0xe
 2986 0079 3A       		.uleb128 0x3a
 2987 007a 0B       		.uleb128 0xb
 2988 007b 3B       		.uleb128 0x3b
 2989 007c 05       		.uleb128 0x5
 2990 007d 49       		.uleb128 0x49
 2991 007e 13       		.uleb128 0x13
 2992 007f 38       		.uleb128 0x38
 2993 0080 0B       		.uleb128 0xb
 2994 0081 00       		.byte	0
 2995 0082 00       		.byte	0
 2996 0083 0C       		.uleb128 0xc
 2997 0084 01       		.uleb128 0x1
 2998 0085 01       		.byte	0x1
 2999 0086 49       		.uleb128 0x49
ARM GAS  C:\Users\ilias\AppData\Local\Temp\ccbZWpbs.s 			page 76


 3000 0087 13       		.uleb128 0x13
 3001 0088 01       		.uleb128 0x1
 3002 0089 13       		.uleb128 0x13
 3003 008a 00       		.byte	0
 3004 008b 00       		.byte	0
 3005 008c 0D       		.uleb128 0xd
 3006 008d 21       		.uleb128 0x21
 3007 008e 00       		.byte	0
 3008 008f 49       		.uleb128 0x49
 3009 0090 13       		.uleb128 0x13
 3010 0091 2F       		.uleb128 0x2f
 3011 0092 0B       		.uleb128 0xb
 3012 0093 00       		.byte	0
 3013 0094 00       		.byte	0
 3014 0095 0E       		.uleb128 0xe
 3015 0096 16       		.uleb128 0x16
 3016 0097 00       		.byte	0
 3017 0098 03       		.uleb128 0x3
 3018 0099 0E       		.uleb128 0xe
 3019 009a 3A       		.uleb128 0x3a
 3020 009b 0B       		.uleb128 0xb
 3021 009c 3B       		.uleb128 0x3b
 3022 009d 0B       		.uleb128 0xb
 3023 009e 49       		.uleb128 0x49
 3024 009f 13       		.uleb128 0x13
 3025 00a0 00       		.byte	0
 3026 00a1 00       		.byte	0
 3027 00a2 0F       		.uleb128 0xf
 3028 00a3 0F       		.uleb128 0xf
 3029 00a4 00       		.byte	0
 3030 00a5 0B       		.uleb128 0xb
 3031 00a6 0B       		.uleb128 0xb
 3032 00a7 49       		.uleb128 0x49
 3033 00a8 13       		.uleb128 0x13
 3034 00a9 00       		.byte	0
 3035 00aa 00       		.byte	0
 3036 00ab 10       		.uleb128 0x10
 3037 00ac 13       		.uleb128 0x13
 3038 00ad 01       		.byte	0x1
 3039 00ae 0B       		.uleb128 0xb
 3040 00af 0B       		.uleb128 0xb
 3041 00b0 3A       		.uleb128 0x3a
 3042 00b1 0B       		.uleb128 0xb
 3043 00b2 3B       		.uleb128 0x3b
 3044 00b3 0B       		.uleb128 0xb
 3045 00b4 01       		.uleb128 0x1
 3046 00b5 13       		.uleb128 0x13
 3047 00b6 00       		.byte	0
 3048 00b7 00       		.byte	0
 3049 00b8 11       		.uleb128 0x11
 3050 00b9 0D       		.uleb128 0xd
 3051 00ba 00       		.byte	0
 3052 00bb 03       		.uleb128 0x3
 3053 00bc 0E       		.uleb128 0xe
 3054 00bd 3A       		.uleb128 0x3a
 3055 00be 0B       		.uleb128 0xb
 3056 00bf 3B       		.uleb128 0x3b
ARM GAS  C:\Users\ilias\AppData\Local\Temp\ccbZWpbs.s 			page 77


 3057 00c0 0B       		.uleb128 0xb
 3058 00c1 49       		.uleb128 0x49
 3059 00c2 13       		.uleb128 0x13
 3060 00c3 38       		.uleb128 0x38
 3061 00c4 0B       		.uleb128 0xb
 3062 00c5 00       		.byte	0
 3063 00c6 00       		.byte	0
 3064 00c7 12       		.uleb128 0x12
 3065 00c8 17       		.uleb128 0x17
 3066 00c9 01       		.byte	0x1
 3067 00ca 0B       		.uleb128 0xb
 3068 00cb 0B       		.uleb128 0xb
 3069 00cc 3A       		.uleb128 0x3a
 3070 00cd 0B       		.uleb128 0xb
 3071 00ce 3B       		.uleb128 0x3b
 3072 00cf 0B       		.uleb128 0xb
 3073 00d0 01       		.uleb128 0x1
 3074 00d1 13       		.uleb128 0x13
 3075 00d2 00       		.byte	0
 3076 00d3 00       		.byte	0
 3077 00d4 13       		.uleb128 0x13
 3078 00d5 0D       		.uleb128 0xd
 3079 00d6 00       		.byte	0
 3080 00d7 03       		.uleb128 0x3
 3081 00d8 0E       		.uleb128 0xe
 3082 00d9 3A       		.uleb128 0x3a
 3083 00da 0B       		.uleb128 0xb
 3084 00db 3B       		.uleb128 0x3b
 3085 00dc 0B       		.uleb128 0xb
 3086 00dd 49       		.uleb128 0x49
 3087 00de 13       		.uleb128 0x13
 3088 00df 00       		.byte	0
 3089 00e0 00       		.byte	0
 3090 00e1 14       		.uleb128 0x14
 3091 00e2 15       		.uleb128 0x15
 3092 00e3 01       		.byte	0x1
 3093 00e4 27       		.uleb128 0x27
 3094 00e5 19       		.uleb128 0x19
 3095 00e6 01       		.uleb128 0x1
 3096 00e7 13       		.uleb128 0x13
 3097 00e8 00       		.byte	0
 3098 00e9 00       		.byte	0
 3099 00ea 15       		.uleb128 0x15
 3100 00eb 05       		.uleb128 0x5
 3101 00ec 00       		.byte	0
 3102 00ed 49       		.uleb128 0x49
 3103 00ee 13       		.uleb128 0x13
 3104 00ef 00       		.byte	0
 3105 00f0 00       		.byte	0
 3106 00f1 16       		.uleb128 0x16
 3107 00f2 13       		.uleb128 0x13
 3108 00f3 01       		.byte	0x1
 3109 00f4 0B       		.uleb128 0xb
 3110 00f5 05       		.uleb128 0x5
 3111 00f6 3A       		.uleb128 0x3a
 3112 00f7 0B       		.uleb128 0xb
 3113 00f8 3B       		.uleb128 0x3b
ARM GAS  C:\Users\ilias\AppData\Local\Temp\ccbZWpbs.s 			page 78


 3114 00f9 0B       		.uleb128 0xb
 3115 00fa 01       		.uleb128 0x1
 3116 00fb 13       		.uleb128 0x13
 3117 00fc 00       		.byte	0
 3118 00fd 00       		.byte	0
 3119 00fe 17       		.uleb128 0x17
 3120 00ff 0D       		.uleb128 0xd
 3121 0100 00       		.byte	0
 3122 0101 03       		.uleb128 0x3
 3123 0102 0E       		.uleb128 0xe
 3124 0103 3A       		.uleb128 0x3a
 3125 0104 0B       		.uleb128 0xb
 3126 0105 3B       		.uleb128 0x3b
 3127 0106 0B       		.uleb128 0xb
 3128 0107 49       		.uleb128 0x49
 3129 0108 13       		.uleb128 0x13
 3130 0109 38       		.uleb128 0x38
 3131 010a 05       		.uleb128 0x5
 3132 010b 00       		.byte	0
 3133 010c 00       		.byte	0
 3134 010d 18       		.uleb128 0x18
 3135 010e 21       		.uleb128 0x21
 3136 010f 00       		.byte	0
 3137 0110 49       		.uleb128 0x49
 3138 0111 13       		.uleb128 0x13
 3139 0112 2F       		.uleb128 0x2f
 3140 0113 05       		.uleb128 0x5
 3141 0114 00       		.byte	0
 3142 0115 00       		.byte	0
 3143 0116 19       		.uleb128 0x19
 3144 0117 2E       		.uleb128 0x2e
 3145 0118 00       		.byte	0
 3146 0119 3F       		.uleb128 0x3f
 3147 011a 19       		.uleb128 0x19
 3148 011b 03       		.uleb128 0x3
 3149 011c 0E       		.uleb128 0xe
 3150 011d 3A       		.uleb128 0x3a
 3151 011e 0B       		.uleb128 0xb
 3152 011f 3B       		.uleb128 0x3b
 3153 0120 0B       		.uleb128 0xb
 3154 0121 27       		.uleb128 0x27
 3155 0122 19       		.uleb128 0x19
 3156 0123 11       		.uleb128 0x11
 3157 0124 01       		.uleb128 0x1
 3158 0125 12       		.uleb128 0x12
 3159 0126 06       		.uleb128 0x6
 3160 0127 40       		.uleb128 0x40
 3161 0128 18       		.uleb128 0x18
 3162 0129 9642     		.uleb128 0x2116
 3163 012b 19       		.uleb128 0x19
 3164 012c 00       		.byte	0
 3165 012d 00       		.byte	0
 3166 012e 1A       		.uleb128 0x1a
 3167 012f 2E       		.uleb128 0x2e
 3168 0130 01       		.byte	0x1
 3169 0131 3F       		.uleb128 0x3f
 3170 0132 19       		.uleb128 0x19
ARM GAS  C:\Users\ilias\AppData\Local\Temp\ccbZWpbs.s 			page 79


 3171 0133 03       		.uleb128 0x3
 3172 0134 0E       		.uleb128 0xe
 3173 0135 3A       		.uleb128 0x3a
 3174 0136 0B       		.uleb128 0xb
 3175 0137 3B       		.uleb128 0x3b
 3176 0138 05       		.uleb128 0x5
 3177 0139 27       		.uleb128 0x27
 3178 013a 19       		.uleb128 0x19
 3179 013b 49       		.uleb128 0x49
 3180 013c 13       		.uleb128 0x13
 3181 013d 11       		.uleb128 0x11
 3182 013e 01       		.uleb128 0x1
 3183 013f 12       		.uleb128 0x12
 3184 0140 06       		.uleb128 0x6
 3185 0141 40       		.uleb128 0x40
 3186 0142 18       		.uleb128 0x18
 3187 0143 9642     		.uleb128 0x2116
 3188 0145 19       		.uleb128 0x19
 3189 0146 01       		.uleb128 0x1
 3190 0147 13       		.uleb128 0x13
 3191 0148 00       		.byte	0
 3192 0149 00       		.byte	0
 3193 014a 1B       		.uleb128 0x1b
 3194 014b 05       		.uleb128 0x5
 3195 014c 00       		.byte	0
 3196 014d 03       		.uleb128 0x3
 3197 014e 0E       		.uleb128 0xe
 3198 014f 3A       		.uleb128 0x3a
 3199 0150 0B       		.uleb128 0xb
 3200 0151 3B       		.uleb128 0x3b
 3201 0152 05       		.uleb128 0x5
 3202 0153 49       		.uleb128 0x49
 3203 0154 13       		.uleb128 0x13
 3204 0155 02       		.uleb128 0x2
 3205 0156 18       		.uleb128 0x18
 3206 0157 00       		.byte	0
 3207 0158 00       		.byte	0
 3208 0159 1C       		.uleb128 0x1c
 3209 015a 34       		.uleb128 0x34
 3210 015b 00       		.byte	0
 3211 015c 03       		.uleb128 0x3
 3212 015d 0E       		.uleb128 0xe
 3213 015e 3A       		.uleb128 0x3a
 3214 015f 0B       		.uleb128 0xb
 3215 0160 3B       		.uleb128 0x3b
 3216 0161 05       		.uleb128 0x5
 3217 0162 49       		.uleb128 0x49
 3218 0163 13       		.uleb128 0x13
 3219 0164 02       		.uleb128 0x2
 3220 0165 18       		.uleb128 0x18
 3221 0166 00       		.byte	0
 3222 0167 00       		.byte	0
 3223 0168 1D       		.uleb128 0x1d
 3224 0169 2E       		.uleb128 0x2e
 3225 016a 00       		.byte	0
 3226 016b 3F       		.uleb128 0x3f
 3227 016c 19       		.uleb128 0x19
ARM GAS  C:\Users\ilias\AppData\Local\Temp\ccbZWpbs.s 			page 80


 3228 016d 03       		.uleb128 0x3
 3229 016e 0E       		.uleb128 0xe
 3230 016f 3A       		.uleb128 0x3a
 3231 0170 0B       		.uleb128 0xb
 3232 0171 3B       		.uleb128 0x3b
 3233 0172 05       		.uleb128 0x5
 3234 0173 27       		.uleb128 0x27
 3235 0174 19       		.uleb128 0x19
 3236 0175 11       		.uleb128 0x11
 3237 0176 01       		.uleb128 0x1
 3238 0177 12       		.uleb128 0x12
 3239 0178 06       		.uleb128 0x6
 3240 0179 40       		.uleb128 0x40
 3241 017a 18       		.uleb128 0x18
 3242 017b 9642     		.uleb128 0x2116
 3243 017d 19       		.uleb128 0x19
 3244 017e 00       		.byte	0
 3245 017f 00       		.byte	0
 3246 0180 1E       		.uleb128 0x1e
 3247 0181 2E       		.uleb128 0x2e
 3248 0182 01       		.byte	0x1
 3249 0183 3F       		.uleb128 0x3f
 3250 0184 19       		.uleb128 0x19
 3251 0185 03       		.uleb128 0x3
 3252 0186 0E       		.uleb128 0xe
 3253 0187 3A       		.uleb128 0x3a
 3254 0188 0B       		.uleb128 0xb
 3255 0189 3B       		.uleb128 0x3b
 3256 018a 05       		.uleb128 0x5
 3257 018b 27       		.uleb128 0x27
 3258 018c 19       		.uleb128 0x19
 3259 018d 11       		.uleb128 0x11
 3260 018e 01       		.uleb128 0x1
 3261 018f 12       		.uleb128 0x12
 3262 0190 06       		.uleb128 0x6
 3263 0191 40       		.uleb128 0x40
 3264 0192 18       		.uleb128 0x18
 3265 0193 9742     		.uleb128 0x2117
 3266 0195 19       		.uleb128 0x19
 3267 0196 01       		.uleb128 0x1
 3268 0197 13       		.uleb128 0x13
 3269 0198 00       		.byte	0
 3270 0199 00       		.byte	0
 3271 019a 1F       		.uleb128 0x1f
 3272 019b 34       		.uleb128 0x34
 3273 019c 00       		.byte	0
 3274 019d 03       		.uleb128 0x3
 3275 019e 08       		.uleb128 0x8
 3276 019f 3A       		.uleb128 0x3a
 3277 01a0 0B       		.uleb128 0xb
 3278 01a1 3B       		.uleb128 0x3b
 3279 01a2 05       		.uleb128 0x5
 3280 01a3 49       		.uleb128 0x49
 3281 01a4 13       		.uleb128 0x13
 3282 01a5 02       		.uleb128 0x2
 3283 01a6 18       		.uleb128 0x18
 3284 01a7 00       		.byte	0
ARM GAS  C:\Users\ilias\AppData\Local\Temp\ccbZWpbs.s 			page 81


 3285 01a8 00       		.byte	0
 3286 01a9 20       		.uleb128 0x20
 3287 01aa 26       		.uleb128 0x26
 3288 01ab 00       		.byte	0
 3289 01ac 49       		.uleb128 0x49
 3290 01ad 13       		.uleb128 0x13
 3291 01ae 00       		.byte	0
 3292 01af 00       		.byte	0
 3293 01b0 21       		.uleb128 0x21
 3294 01b1 2E       		.uleb128 0x2e
 3295 01b2 01       		.byte	0x1
 3296 01b3 03       		.uleb128 0x3
 3297 01b4 0E       		.uleb128 0xe
 3298 01b5 3A       		.uleb128 0x3a
 3299 01b6 0B       		.uleb128 0xb
 3300 01b7 3B       		.uleb128 0x3b
 3301 01b8 05       		.uleb128 0x5
 3302 01b9 27       		.uleb128 0x27
 3303 01ba 19       		.uleb128 0x19
 3304 01bb 11       		.uleb128 0x11
 3305 01bc 01       		.uleb128 0x1
 3306 01bd 12       		.uleb128 0x12
 3307 01be 06       		.uleb128 0x6
 3308 01bf 40       		.uleb128 0x40
 3309 01c0 18       		.uleb128 0x18
 3310 01c1 9742     		.uleb128 0x2117
 3311 01c3 19       		.uleb128 0x19
 3312 01c4 01       		.uleb128 0x1
 3313 01c5 13       		.uleb128 0x13
 3314 01c6 00       		.byte	0
 3315 01c7 00       		.byte	0
 3316 01c8 22       		.uleb128 0x22
 3317 01c9 2E       		.uleb128 0x2e
 3318 01ca 01       		.byte	0x1
 3319 01cb 3F       		.uleb128 0x3f
 3320 01cc 19       		.uleb128 0x19
 3321 01cd 03       		.uleb128 0x3
 3322 01ce 0E       		.uleb128 0xe
 3323 01cf 3A       		.uleb128 0x3a
 3324 01d0 0B       		.uleb128 0xb
 3325 01d1 3B       		.uleb128 0x3b
 3326 01d2 05       		.uleb128 0x5
 3327 01d3 27       		.uleb128 0x27
 3328 01d4 19       		.uleb128 0x19
 3329 01d5 49       		.uleb128 0x49
 3330 01d6 13       		.uleb128 0x13
 3331 01d7 11       		.uleb128 0x11
 3332 01d8 01       		.uleb128 0x1
 3333 01d9 12       		.uleb128 0x12
 3334 01da 06       		.uleb128 0x6
 3335 01db 40       		.uleb128 0x40
 3336 01dc 18       		.uleb128 0x18
 3337 01dd 9742     		.uleb128 0x2117
 3338 01df 19       		.uleb128 0x19
 3339 01e0 01       		.uleb128 0x1
 3340 01e1 13       		.uleb128 0x13
 3341 01e2 00       		.byte	0
ARM GAS  C:\Users\ilias\AppData\Local\Temp\ccbZWpbs.s 			page 82


 3342 01e3 00       		.byte	0
 3343 01e4 23       		.uleb128 0x23
 3344 01e5 05       		.uleb128 0x5
 3345 01e6 00       		.byte	0
 3346 01e7 03       		.uleb128 0x3
 3347 01e8 08       		.uleb128 0x8
 3348 01e9 3A       		.uleb128 0x3a
 3349 01ea 0B       		.uleb128 0xb
 3350 01eb 3B       		.uleb128 0x3b
 3351 01ec 05       		.uleb128 0x5
 3352 01ed 49       		.uleb128 0x49
 3353 01ee 13       		.uleb128 0x13
 3354 01ef 02       		.uleb128 0x2
 3355 01f0 18       		.uleb128 0x18
 3356 01f1 00       		.byte	0
 3357 01f2 00       		.byte	0
 3358 01f3 24       		.uleb128 0x24
 3359 01f4 34       		.uleb128 0x34
 3360 01f5 00       		.byte	0
 3361 01f6 03       		.uleb128 0x3
 3362 01f7 0E       		.uleb128 0xe
 3363 01f8 3A       		.uleb128 0x3a
 3364 01f9 0B       		.uleb128 0xb
 3365 01fa 3B       		.uleb128 0x3b
 3366 01fb 0B       		.uleb128 0xb
 3367 01fc 49       		.uleb128 0x49
 3368 01fd 13       		.uleb128 0x13
 3369 01fe 3F       		.uleb128 0x3f
 3370 01ff 19       		.uleb128 0x19
 3371 0200 02       		.uleb128 0x2
 3372 0201 18       		.uleb128 0x18
 3373 0202 00       		.byte	0
 3374 0203 00       		.byte	0
 3375 0204 25       		.uleb128 0x25
 3376 0205 34       		.uleb128 0x34
 3377 0206 00       		.byte	0
 3378 0207 03       		.uleb128 0x3
 3379 0208 0E       		.uleb128 0xe
 3380 0209 3A       		.uleb128 0x3a
 3381 020a 0B       		.uleb128 0xb
 3382 020b 3B       		.uleb128 0x3b
 3383 020c 05       		.uleb128 0x5
 3384 020d 49       		.uleb128 0x49
 3385 020e 13       		.uleb128 0x13
 3386 020f 3F       		.uleb128 0x3f
 3387 0210 19       		.uleb128 0x19
 3388 0211 3C       		.uleb128 0x3c
 3389 0212 19       		.uleb128 0x19
 3390 0213 00       		.byte	0
 3391 0214 00       		.byte	0
 3392 0215 26       		.uleb128 0x26
 3393 0216 34       		.uleb128 0x34
 3394 0217 00       		.byte	0
 3395 0218 03       		.uleb128 0x3
 3396 0219 0E       		.uleb128 0xe
 3397 021a 3A       		.uleb128 0x3a
 3398 021b 0B       		.uleb128 0xb
ARM GAS  C:\Users\ilias\AppData\Local\Temp\ccbZWpbs.s 			page 83


 3399 021c 3B       		.uleb128 0x3b
 3400 021d 0B       		.uleb128 0xb
 3401 021e 49       		.uleb128 0x49
 3402 021f 13       		.uleb128 0x13
 3403 0220 3F       		.uleb128 0x3f
 3404 0221 19       		.uleb128 0x19
 3405 0222 3C       		.uleb128 0x3c
 3406 0223 19       		.uleb128 0x19
 3407 0224 00       		.byte	0
 3408 0225 00       		.byte	0
 3409 0226 00       		.byte	0
 3410              		.section	.debug_aranges,"",%progbits
 3411 0000 7C000000 		.4byte	0x7c
 3412 0004 0200     		.2byte	0x2
 3413 0006 00000000 		.4byte	.Ldebug_info0
 3414 000a 04       		.byte	0x4
 3415 000b 00       		.byte	0
 3416 000c 0000     		.2byte	0
 3417 000e 0000     		.2byte	0
 3418 0010 00000000 		.4byte	.LFB2
 3419 0014 40000000 		.4byte	.LFE2-.LFB2
 3420 0018 00000000 		.4byte	.LFB3
 3421 001c 0C000000 		.4byte	.LFE3-.LFB3
 3422 0020 00000000 		.4byte	.LFB4
 3423 0024 DC000000 		.4byte	.LFE4-.LFB4
 3424 0028 00000000 		.4byte	.LFB5
 3425 002c 18000000 		.4byte	.LFE5-.LFB5
 3426 0030 00000000 		.4byte	.LFB6
 3427 0034 E0000000 		.4byte	.LFE6-.LFB6
 3428 0038 00000000 		.4byte	.LFB7
 3429 003c D4000000 		.4byte	.LFE7-.LFB7
 3430 0040 00000000 		.4byte	.LFB8
 3431 0044 20000000 		.4byte	.LFE8-.LFB8
 3432 0048 00000000 		.4byte	.LFB9
 3433 004c 60000000 		.4byte	.LFE9-.LFB9
 3434 0050 00000000 		.4byte	.LFB10
 3435 0054 A4010000 		.4byte	.LFE10-.LFB10
 3436 0058 00000000 		.4byte	.LFB11
 3437 005c C8000000 		.4byte	.LFE11-.LFB11
 3438 0060 00000000 		.4byte	.LFB12
 3439 0064 A4000000 		.4byte	.LFE12-.LFB12
 3440 0068 00000000 		.4byte	.LFB13
 3441 006c 26000000 		.4byte	.LFE13-.LFB13
 3442 0070 00000000 		.4byte	.LFB14
 3443 0074 2E000000 		.4byte	.LFE14-.LFB14
 3444 0078 00000000 		.4byte	0
 3445 007c 00000000 		.4byte	0
 3446              		.section	.debug_ranges,"",%progbits
 3447              	.Ldebug_ranges0:
 3448 0000 00000000 		.4byte	.LFB2
 3449 0004 40000000 		.4byte	.LFE2
 3450 0008 00000000 		.4byte	.LFB3
 3451 000c 0C000000 		.4byte	.LFE3
 3452 0010 00000000 		.4byte	.LFB4
 3453 0014 DC000000 		.4byte	.LFE4
 3454 0018 00000000 		.4byte	.LFB5
 3455 001c 18000000 		.4byte	.LFE5
ARM GAS  C:\Users\ilias\AppData\Local\Temp\ccbZWpbs.s 			page 84


 3456 0020 00000000 		.4byte	.LFB6
 3457 0024 E0000000 		.4byte	.LFE6
 3458 0028 00000000 		.4byte	.LFB7
 3459 002c D4000000 		.4byte	.LFE7
 3460 0030 00000000 		.4byte	.LFB8
 3461 0034 20000000 		.4byte	.LFE8
 3462 0038 00000000 		.4byte	.LFB9
 3463 003c 60000000 		.4byte	.LFE9
 3464 0040 00000000 		.4byte	.LFB10
 3465 0044 A4010000 		.4byte	.LFE10
 3466 0048 00000000 		.4byte	.LFB11
 3467 004c C8000000 		.4byte	.LFE11
 3468 0050 00000000 		.4byte	.LFB12
 3469 0054 A4000000 		.4byte	.LFE12
 3470 0058 00000000 		.4byte	.LFB13
 3471 005c 26000000 		.4byte	.LFE13
 3472 0060 00000000 		.4byte	.LFB14
 3473 0064 2E000000 		.4byte	.LFE14
 3474 0068 00000000 		.4byte	0
 3475 006c 00000000 		.4byte	0
 3476              		.section	.debug_line,"",%progbits
 3477              	.Ldebug_line0:
 3478 0000 A5020000 		.section	.debug_str,"MS",%progbits,1
 3478      0200C800 
 3478      00000201 
 3478      FB0E0D00 
 3478      01010101 
 3479              	.LASF68:
 3480 0000 4359424C 		.ascii	"CYBLE_EVT_L2CAP_CBFC_RX_CREDIT_IND\000"
 3480      455F4556 
 3480      545F4C32 
 3480      4341505F 
 3480      43424643 
 3481              	.LASF22:
 3482 0023 4359424C 		.ascii	"CYBLE_EVT_STACK_BUSY_STATUS\000"
 3482      455F4556 
 3482      545F5354 
 3482      41434B5F 
 3482      42555359 
 3483              	.LASF158:
 3484 003f 4359424C 		.ascii	"CYBLE_STATE_STOPPED\000"
 3484      455F5354 
 3484      4154455F 
 3484      53544F50 
 3484      50454400 
 3485              	.LASF67:
 3486 0053 4359424C 		.ascii	"CYBLE_EVT_L2CAP_CBFC_DATA_READ\000"
 3486      455F4556 
 3486      545F4C32 
 3486      4341505F 
 3486      43424643 
 3487              	.LASF136:
 3488 0072 4359424C 		.ascii	"CYBLE_CONN_HANDLE_T\000"
 3488      455F434F 
 3488      4E4E5F48 
 3488      414E444C 
 3488      455F5400 
ARM GAS  C:\Users\ilias\AppData\Local\Temp\ccbZWpbs.s 			page 85


 3489              	.LASF77:
 3490 0086 4359424C 		.ascii	"CYBLE_ERROR_MEMORY_ALLOCATION_FAILED\000"
 3490      455F4552 
 3490      524F525F 
 3490      4D454D4F 
 3490      52595F41 
 3491              	.LASF126:
 3492 00ab 4359424C 		.ascii	"CYBLE_GAPP_DISC_DATA_T\000"
 3492      455F4741 
 3492      50505F44 
 3492      4953435F 
 3492      44415441 
 3493              	.LASF33:
 3494 00c2 4359424C 		.ascii	"CYBLE_EVT_GAP_CONNECTION_UPDATE_COMPLETE\000"
 3494      455F4556 
 3494      545F4741 
 3494      505F434F 
 3494      4E4E4543 
 3495              	.LASF121:
 3496 00eb 61647643 		.ascii	"advChannelMap\000"
 3496      68616E6E 
 3496      656C4D61 
 3496      7000
 3497              	.LASF66:
 3498 00f9 4359424C 		.ascii	"CYBLE_EVT_L2CAP_CBFC_DISCONN_CNF\000"
 3498      455F4556 
 3498      545F4C32 
 3498      4341505F 
 3498      43424643 
 3499              	.LASF110:
 3500 011a 4359424C 		.ascii	"CYBLE_GAPP_CONNECTABLE_HIGH_DC_DIRECTED_ADV\000"
 3500      455F4741 
 3500      50505F43 
 3500      4F4E4E45 
 3500      43544142 
 3501              	.LASF47:
 3502 0146 4359424C 		.ascii	"CYBLE_EVT_GATTC_READ_MULTI_RSP\000"
 3502      455F4556 
 3502      545F4741 
 3502      5454435F 
 3502      52454144 
 3503              	.LASF52:
 3504 0165 4359424C 		.ascii	"CYBLE_EVT_GATTS_EXEC_WRITE_REQ\000"
 3504      455F4556 
 3504      545F4741 
 3504      5454535F 
 3504      45584543 
 3505              	.LASF192:
 3506 0184 6379426C 		.ascii	"cyBle_stackMemoryRam\000"
 3506      655F7374 
 3506      61636B4D 
 3506      656D6F72 
 3506      7952616D 
 3507              	.LASF111:
 3508 0199 4359424C 		.ascii	"CYBLE_GAPP_SCANNABLE_UNDIRECTED_ADV\000"
 3508      455F4741 
 3508      50505F53 
ARM GAS  C:\Users\ilias\AppData\Local\Temp\ccbZWpbs.s 			page 86


 3508      43414E4E 
 3508      41424C45 
 3509              	.LASF186:
 3510 01bd 4379426C 		.ascii	"CyBle_Get16ByPtr\000"
 3510      655F4765 
 3510      74313642 
 3510      79507472 
 3510      00
 3511              	.LASF104:
 3512 01ce 74797065 		.ascii	"type\000"
 3512      00
 3513              	.LASF19:
 3514 01d3 4359424C 		.ascii	"CYBLE_EVT_TIMEOUT\000"
 3514      455F4556 
 3514      545F5449 
 3514      4D454F55 
 3514      5400
 3515              	.LASF4:
 3516 01e5 6C6F6E67 		.ascii	"long int\000"
 3516      20696E74 
 3516      00
 3517              	.LASF175:
 3518 01ee 4379426C 		.ascii	"CyBle_GappStopAdvertisement\000"
 3518      655F4761 
 3518      70705374 
 3518      6F704164 
 3518      76657274 
 3519              	.LASF198:
 3520 020a 6379426C 		.ascii	"cyBle_discoveryData\000"
 3520      655F6469 
 3520      73636F76 
 3520      65727944 
 3520      61746100 
 3521              	.LASF87:
 3522 021e 4359424C 		.ascii	"CYBLE_ERROR_L2CAP_PSM_WRONG_ENCODING\000"
 3522      455F4552 
 3522      524F525F 
 3522      4C324341 
 3522      505F5053 
 3523              	.LASF78:
 3524 0243 4359424C 		.ascii	"CYBLE_ERROR_INSUFFICIENT_RESOURCES\000"
 3524      455F4552 
 3524      524F525F 
 3524      494E5355 
 3524      46464943 
 3525              	.LASF21:
 3526 0266 4359424C 		.ascii	"CYBLE_EVT_HCI_STATUS\000"
 3526      455F4556 
 3526      545F4843 
 3526      495F5354 
 3526      41545553 
 3527              	.LASF117:
 3528 027b 61647654 		.ascii	"advType\000"
 3528      79706500 
 3529              	.LASF34:
 3530 0283 4359424C 		.ascii	"CYBLE_EVT_GAPC_SCAN_START_STOP\000"
 3530      455F4556 
ARM GAS  C:\Users\ilias\AppData\Local\Temp\ccbZWpbs.s 			page 87


 3530      545F4741 
 3530      50435F53 
 3530      43414E5F 
 3531              	.LASF208:
 3532 02a2 6379426C 		.ascii	"cyBle_busyStatus\000"
 3532      655F6275 
 3532      73795374 
 3532      61747573 
 3532      00
 3533              	.LASF109:
 3534 02b3 4359424C 		.ascii	"CYBLE_GAPP_CONNECTABLE_UNDIRECTED_ADV\000"
 3534      455F4741 
 3534      50505F43 
 3534      4F4E4E45 
 3534      43544142 
 3535              	.LASF105:
 3536 02d9 4359424C 		.ascii	"CYBLE_GAP_BD_ADDR_T\000"
 3536      455F4741 
 3536      505F4244 
 3536      5F414444 
 3536      525F5400 
 3537              	.LASF86:
 3538 02ed 4359424C 		.ascii	"CYBLE_ERROR_SEC_FAILED\000"
 3538      455F4552 
 3538      524F525F 
 3538      5345435F 
 3538      4641494C 
 3539              	.LASF91:
 3540 0304 4359424C 		.ascii	"CYBLE_ERROR_L2CAP_CHANNEL_NOT_FOUND\000"
 3540      455F4552 
 3540      524F525F 
 3540      4C324341 
 3540      505F4348 
 3541              	.LASF32:
 3542 0328 4359424C 		.ascii	"CYBLE_EVT_GAP_ENCRYPT_CHANGE\000"
 3542      455F4556 
 3542      545F4741 
 3542      505F454E 
 3542      43525950 
 3543              	.LASF108:
 3544 0345 4359424C 		.ascii	"CYBLE_STK_APP_DATA_BUFF_T\000"
 3544      455F5354 
 3544      4B5F4150 
 3544      505F4441 
 3544      54415F42 
 3545              	.LASF69:
 3546 035f 4359424C 		.ascii	"CYBLE_EVT_L2CAP_CBFC_TX_CREDIT_IND\000"
 3546      455F4556 
 3546      545F4C32 
 3546      4341505F 
 3546      43424643 
 3547              	.LASF161:
 3548 0382 4359424C 		.ascii	"CYBLE_STATE_ADVERTISING\000"
 3548      455F5354 
 3548      4154455F 
 3548      41445645 
 3548      52544953 
ARM GAS  C:\Users\ilias\AppData\Local\Temp\ccbZWpbs.s 			page 88


 3549              	.LASF6:
 3550 039a 6C6F6E67 		.ascii	"long long int\000"
 3550      206C6F6E 
 3550      6720696E 
 3550      7400
 3551              	.LASF0:
 3552 03a8 7369676E 		.ascii	"signed char\000"
 3552      65642063 
 3552      68617200 
 3553              	.LASF18:
 3554 03b4 4359424C 		.ascii	"CYBLE_EVT_STACK_ON\000"
 3554      455F4556 
 3554      545F5354 
 3554      41434B5F 
 3554      4F4E00
 3555              	.LASF94:
 3556 03c7 4359424C 		.ascii	"CYBLE_ERROR_DEVICE_ALREADY_EXISTS\000"
 3556      455F4552 
 3556      524F525F 
 3556      44455649 
 3556      43455F41 
 3557              	.LASF81:
 3558 03e9 4359424C 		.ascii	"CYBLE_ERROR_NO_DEVICE_ENTITY\000"
 3558      455F4552 
 3558      524F525F 
 3558      4E4F5F44 
 3558      45564943 
 3559              	.LASF120:
 3560 0406 64697265 		.ascii	"directAddr\000"
 3560      63744164 
 3560      647200
 3561              	.LASF183:
 3562 0411 4379426C 		.ascii	"CyBle_GapSetLocalName\000"
 3562      655F4761 
 3562      70536574 
 3562      4C6F6361 
 3562      6C4E616D 
 3563              	.LASF24:
 3564 0427 4359424C 		.ascii	"CYBLE_EVT_GAP_AUTH_REQ\000"
 3564      455F4556 
 3564      545F4741 
 3564      505F4155 
 3564      54485F52 
 3565              	.LASF148:
 3566 043e 7065726D 		.ascii	"permission\000"
 3566      69737369 
 3566      6F6E00
 3567              	.LASF45:
 3568 0449 4359424C 		.ascii	"CYBLE_EVT_GATTC_READ_RSP\000"
 3568      455F4556 
 3568      545F4741 
 3568      5454435F 
 3568      52454144 
 3569              	.LASF101:
 3570 0462 4359424C 		.ascii	"CYBLE_ERROR_INVALID_STATE\000"
 3570      455F4552 
 3570      524F525F 
ARM GAS  C:\Users\ilias\AppData\Local\Temp\ccbZWpbs.s 			page 89


 3570      494E5641 
 3570      4C49445F 
 3571              	.LASF122:
 3572 047c 61647646 		.ascii	"advFilterPolicy\000"
 3572      696C7465 
 3572      72506F6C 
 3572      69637900 
 3573              	.LASF50:
 3574 048c 4359424C 		.ascii	"CYBLE_EVT_GATTS_WRITE_CMD_REQ\000"
 3574      455F4556 
 3574      545F4741 
 3574      5454535F 
 3574      57524954 
 3575              	.LASF172:
 3576 04aa 6973466F 		.ascii	"isForceWrite\000"
 3576      72636557 
 3576      72697465 
 3576      00
 3577              	.LASF116:
 3578 04b7 61647649 		.ascii	"advIntvMax\000"
 3578      6E74764D 
 3578      617800
 3579              	.LASF162:
 3580 04c2 4359424C 		.ascii	"CYBLE_STATE_DISCONNECTED\000"
 3580      455F5354 
 3580      4154455F 
 3580      44495343 
 3580      4F4E4E45 
 3581              	.LASF29:
 3582 04db 4359424C 		.ascii	"CYBLE_EVT_GAPP_ADVERTISEMENT_START_STOP\000"
 3582      455F4556 
 3582      545F4741 
 3582      50505F41 
 3582      44564552 
 3583              	.LASF92:
 3584 0503 4359424C 		.ascii	"CYBLE_ERROR_L2CAP_PSM_NOT_IN_RANGE\000"
 3584      455F4552 
 3584      524F525F 
 3584      4C324341 
 3584      505F5053 
 3585              	.LASF39:
 3586 0526 4359424C 		.ascii	"CYBLE_EVT_GATTS_XCNHG_MTU_REQ\000"
 3586      455F4556 
 3586      545F4741 
 3586      5454535F 
 3586      58434E48 
 3587              	.LASF9:
 3588 0544 75696E74 		.ascii	"uint8\000"
 3588      3800
 3589              	.LASF127:
 3590 054a 7363616E 		.ascii	"scanRspData\000"
 3590      52737044 
 3590      61746100 
 3591              	.LASF103:
 3592 0556 62644164 		.ascii	"bdAddr\000"
 3592      647200
 3593              	.LASF53:
ARM GAS  C:\Users\ilias\AppData\Local\Temp\ccbZWpbs.s 			page 90


 3594 055d 4359424C 		.ascii	"CYBLE_EVT_GATTC_EXEC_WRITE_RSP\000"
 3594      455F4556 
 3594      545F4741 
 3594      5454435F 
 3594      45584543 
 3595              	.LASF142:
 3596 057c 4359424C 		.ascii	"CYBLE_GATTS_ATT_PACK_VAL_LEN_T\000"
 3596      455F4741 
 3596      5454535F 
 3596      4154545F 
 3596      5041434B 
 3597              	.LASF13:
 3598 059b 646F7562 		.ascii	"double\000"
 3598      6C6500
 3599              	.LASF65:
 3600 05a2 4359424C 		.ascii	"CYBLE_EVT_L2CAP_CBFC_DISCONN_IND\000"
 3600      455F4556 
 3600      545F4C32 
 3600      4341505F 
 3600      43424643 
 3601              	.LASF130:
 3602 05c3 64697363 		.ascii	"discMode\000"
 3602      4D6F6465 
 3602      00
 3603              	.LASF75:
 3604 05cc 4359424C 		.ascii	"CYBLE_ERROR_INVALID_PARAMETER\000"
 3604      455F4552 
 3604      524F525F 
 3604      494E5641 
 3604      4C49445F 
 3605              	.LASF153:
 3606 05ea 73746163 		.ascii	"stackFlashptr\000"
 3606      6B466C61 
 3606      73687074 
 3606      7200
 3607              	.LASF145:
 3608 05f8 4359424C 		.ascii	"CYBLE_GATTS_ATT_VALUE_T\000"
 3608      455F4741 
 3608      5454535F 
 3608      4154545F 
 3608      56414C55 
 3609              	.LASF146:
 3610 0610 61747448 		.ascii	"attHandle\000"
 3610      616E646C 
 3610      6500
 3611              	.LASF11:
 3612 061a 75696E74 		.ascii	"uint32\000"
 3612      333200
 3613              	.LASF177:
 3614 0621 64657374 		.ascii	"destBuffer\000"
 3614      42756666 
 3614      657200
 3615              	.LASF73:
 3616 062c 4359424C 		.ascii	"CYBLE_EVT_MAX\000"
 3616      455F4556 
 3616      545F4D41 
 3616      5800
ARM GAS  C:\Users\ilias\AppData\Local\Temp\ccbZWpbs.s 			page 91


 3617              	.LASF74:
 3618 063a 4359424C 		.ascii	"CYBLE_ERROR_OK\000"
 3618      455F4552 
 3618      524F525F 
 3618      4F4B00
 3619              	.LASF36:
 3620 0649 4359424C 		.ascii	"CYBLE_EVT_GATTC_ERROR_RSP\000"
 3620      455F4556 
 3620      545F4741 
 3620      5454435F 
 3620      4552524F 
 3621              	.LASF60:
 3622 0663 4359424C 		.ascii	"CYBLE_EVT_L2CAP_CONN_PARAM_UPDATE_REQ\000"
 3622      455F4556 
 3622      545F4C32 
 3622      4341505F 
 3622      434F4E4E 
 3623              	.LASF70:
 3624 0689 4359424C 		.ascii	"CYBLE_EVT_L2CAP_CBFC_DATA_WRITE_IND\000"
 3624      455F4556 
 3624      545F4C32 
 3624      4341505F 
 3624      43424643 
 3625              	.LASF147:
 3626 06ad 61747454 		.ascii	"attType\000"
 3626      79706500 
 3627              	.LASF125:
 3628 06b5 61647644 		.ascii	"advDataLen\000"
 3628      6174614C 
 3628      656E00
 3629              	.LASF7:
 3630 06c0 6C6F6E67 		.ascii	"long long unsigned int\000"
 3630      206C6F6E 
 3630      6720756E 
 3630      7369676E 
 3630      65642069 
 3631              	.LASF189:
 3632 06d7 76616C75 		.ascii	"value\000"
 3632      6500
 3633              	.LASF58:
 3634 06dd 4359424C 		.ascii	"CYBLE_EVT_GATTC_STOP_CMD_COMPLETE\000"
 3634      455F4556 
 3634      545F4741 
 3634      5454435F 
 3634      53544F50 
 3635              	.LASF79:
 3636 06ff 4359424C 		.ascii	"CYBLE_ERROR_OOB_NOT_AVAILABLE\000"
 3636      455F4552 
 3636      524F525F 
 3636      4F4F425F 
 3636      4E4F545F 
 3637              	.LASF197:
 3638 071d 6379426C 		.ascii	"cyBle_discoveryParam\000"
 3638      655F6469 
 3638      73636F76 
 3638      65727950 
 3638      6172616D 
ARM GAS  C:\Users\ilias\AppData\Local\Temp\ccbZWpbs.s 			page 92


 3639              	.LASF165:
 3640 0732 4379426C 		.ascii	"CyBle_ServiceInit\000"
 3640      655F5365 
 3640      72766963 
 3640      65496E69 
 3640      7400
 3641              	.LASF88:
 3642 0744 4359424C 		.ascii	"CYBLE_ERROR_L2CAP_PSM_ALREADY_REGISTERED\000"
 3642      455F4552 
 3642      524F525F 
 3642      4C324341 
 3642      505F5053 
 3643              	.LASF5:
 3644 076d 6C6F6E67 		.ascii	"long unsigned int\000"
 3644      20756E73 
 3644      69676E65 
 3644      6420696E 
 3644      7400
 3645              	.LASF48:
 3646 077f 4359424C 		.ascii	"CYBLE_EVT_GATTS_WRITE_REQ\000"
 3646      455F4556 
 3646      545F4741 
 3646      5454535F 
 3646      57524954 
 3647              	.LASF40:
 3648 0799 4359424C 		.ascii	"CYBLE_EVT_GATTC_XCHNG_MTU_RSP\000"
 3648      455F4556 
 3648      545F4741 
 3648      5454435F 
 3648      5843484E 
 3649              	.LASF57:
 3650 07b7 4359424C 		.ascii	"CYBLE_EVT_GATTS_DATA_SIGNED_CMD_REQ\000"
 3650      455F4556 
 3650      545F4741 
 3650      5454535F 
 3650      44415441 
 3651              	.LASF178:
 3652 07db 6E616D65 		.ascii	"name\000"
 3652      00
 3653              	.LASF143:
 3654 07e0 61747446 		.ascii	"attFormatValue\000"
 3654      6F726D61 
 3654      7456616C 
 3654      756500
 3655              	.LASF129:
 3656 07ef 4359424C 		.ascii	"CYBLE_GAPP_SCAN_RSP_DATA_T\000"
 3656      455F4741 
 3656      50505F53 
 3656      43414E5F 
 3656      5253505F 
 3657              	.LASF204:
 3658 080a 6379426C 		.ascii	"cyBle_attValuesCCCD\000"
 3658      655F6174 
 3658      7456616C 
 3658      75657343 
 3658      43434400 
 3659              	.LASF107:
ARM GAS  C:\Users\ilias\AppData\Local\Temp\ccbZWpbs.s 			page 93


 3660 081e 62756666 		.ascii	"bufferUnits\000"
 3660      6572556E 
 3660      69747300 
 3661              	.LASF98:
 3662 082a 4359424C 		.ascii	"CYBLE_ERROR_NTF_DISABLED\000"
 3662      455F4552 
 3662      524F525F 
 3662      4E54465F 
 3662      44495341 
 3663              	.LASF17:
 3664 0843 4359424C 		.ascii	"CYBLE_EVT_HOST_INVALID\000"
 3664      455F4556 
 3664      545F484F 
 3664      53545F49 
 3664      4E56414C 
 3665              	.LASF43:
 3666 085a 4359424C 		.ascii	"CYBLE_EVT_GATTC_FIND_INFO_RSP\000"
 3666      455F4556 
 3666      545F4741 
 3666      5454435F 
 3666      46494E44 
 3667              	.LASF191:
 3668 0878 6379426C 		.ascii	"cyBle_initVar\000"
 3668      655F696E 
 3668      69745661 
 3668      7200
 3669              	.LASF25:
 3670 0886 4359424C 		.ascii	"CYBLE_EVT_GAP_PASSKEY_ENTRY_REQUEST\000"
 3670      455F4556 
 3670      545F4741 
 3670      505F5041 
 3670      53534B45 
 3671              	.LASF30:
 3672 08aa 4359424C 		.ascii	"CYBLE_EVT_GAP_DEVICE_CONNECTED\000"
 3672      455F4556 
 3672      545F4741 
 3672      505F4445 
 3672      56494345 
 3673              	.LASF140:
 3674 08c9 6D617841 		.ascii	"maxAttrLength\000"
 3674      7474724C 
 3674      656E6774 
 3674      6800
 3675              	.LASF188:
 3676 08d7 4379426C 		.ascii	"CyBle_Set16ByPtr\000"
 3676      655F5365 
 3676      74313642 
 3676      79507472 
 3676      00
 3677              	.LASF155:
 3678 08e8 63636364 		.ascii	"cccdCount\000"
 3678      436F756E 
 3678      7400
 3679              	.LASF128:
 3680 08f2 7363616E 		.ascii	"scanRspDataLen\000"
 3680      52737044 
 3680      6174614C 
ARM GAS  C:\Users\ilias\AppData\Local\Temp\ccbZWpbs.s 			page 94


 3680      656E00
 3681              	.LASF169:
 3682 0901 4379426C 		.ascii	"CyBle_Start\000"
 3682      655F5374 
 3682      61727400 
 3683              	.LASF185:
 3684 090d 4379426C 		.ascii	"CyBle_GapGetLocalName\000"
 3684      655F4761 
 3684      70476574 
 3684      4C6F6361 
 3684      6C4E616D 
 3685              	.LASF154:
 3686 0923 61747456 		.ascii	"attValuesCCCDFlashMemory\000"
 3686      616C7565 
 3686      73434343 
 3686      44466C61 
 3686      73684D65 
 3687              	.LASF137:
 3688 093c 61637475 		.ascii	"actualLength\000"
 3688      616C4C65 
 3688      6E677468 
 3688      00
 3689              	.LASF206:
 3690 0949 6379426C 		.ascii	"cyBle_state\000"
 3690      655F7374 
 3690      61746500 
 3691              	.LASF26:
 3692 0955 4359424C 		.ascii	"CYBLE_EVT_GAP_PASSKEY_DISPLAY_REQUEST\000"
 3692      455F4556 
 3692      545F4741 
 3692      505F5041 
 3692      53534B45 
 3693              	.LASF37:
 3694 097b 4359424C 		.ascii	"CYBLE_EVT_GATT_CONNECT_IND\000"
 3694      455F4556 
 3694      545F4741 
 3694      54545F43 
 3694      4F4E4E45 
 3695              	.LASF135:
 3696 0996 61747449 		.ascii	"attId\000"
 3696      6400
 3697              	.LASF184:
 3698 099c 63686172 		.ascii	"charLen\000"
 3698      4C656E00 
 3699              	.LASF62:
 3700 09a4 4359424C 		.ascii	"CYBLE_EVT_L2CAP_COMMAND_REJ\000"
 3700      455F4556 
 3700      545F4C32 
 3700      4341505F 
 3700      434F4D4D 
 3701              	.LASF23:
 3702 09c0 4359424C 		.ascii	"CYBLE_EVT_GAPC_SCAN_PROGRESS_RESULT\000"
 3702      455F4556 
 3702      545F4741 
 3702      50435F53 
 3702      43414E5F 
 3703              	.LASF193:
ARM GAS  C:\Users\ilias\AppData\Local\Temp\ccbZWpbs.s 			page 95


 3704 09e4 6379426C 		.ascii	"cyBle_eventHandlerFlag\000"
 3704      655F6576 
 3704      656E7448 
 3704      616E646C 
 3704      6572466C 
 3705              	.LASF97:
 3706 09fb 4359424C 		.ascii	"CYBLE_ERROR_MAX\000"
 3706      455F4552 
 3706      524F525F 
 3706      4D415800 
 3707              	.LASF63:
 3708 0a0b 4359424C 		.ascii	"CYBLE_EVT_L2CAP_CBFC_CONN_IND\000"
 3708      455F4556 
 3708      545F4C32 
 3708      4341505F 
 3708      43424643 
 3709              	.LASF42:
 3710 0a29 4359424C 		.ascii	"CYBLE_EVT_GATTC_READ_BY_TYPE_RSP\000"
 3710      455F4556 
 3710      545F4741 
 3710      5454435F 
 3710      52454144 
 3711              	.LASF200:
 3712 0a4a 6379426C 		.ascii	"cyBle_discoveryModeInfo\000"
 3712      655F6469 
 3712      73636F76 
 3712      6572794D 
 3712      6F646549 
 3713              	.LASF16:
 3714 0a62 73697A65 		.ascii	"sizetype\000"
 3714      74797065 
 3714      00
 3715              	.LASF159:
 3716 0a6b 4359424C 		.ascii	"CYBLE_STATE_INITIALIZING\000"
 3716      455F5354 
 3716      4154455F 
 3716      494E4954 
 3716      49414C49 
 3717              	.LASF118:
 3718 0a84 6F776E41 		.ascii	"ownAddrType\000"
 3718      64647254 
 3718      79706500 
 3719              	.LASF28:
 3720 0a90 4359424C 		.ascii	"CYBLE_EVT_GAP_AUTH_FAILED\000"
 3720      455F4556 
 3720      545F4741 
 3720      505F4155 
 3720      54485F46 
 3721              	.LASF207:
 3722 0aaa 6379426C 		.ascii	"cyBle_connHandle\000"
 3722      655F636F 
 3722      6E6E4861 
 3722      6E646C65 
 3722      00
 3723              	.LASF49:
 3724 0abb 4359424C 		.ascii	"CYBLE_EVT_GATTC_WRITE_RSP\000"
 3724      455F4556 
ARM GAS  C:\Users\ilias\AppData\Local\Temp\ccbZWpbs.s 			page 96


 3724      545F4741 
 3724      5454435F 
 3724      57524954 
 3725              	.LASF156:
 3726 0ad5 626F756E 		.ascii	"boundedDevCount\000"
 3726      64656444 
 3726      6576436F 
 3726      756E7400 
 3727              	.LASF27:
 3728 0ae5 4359424C 		.ascii	"CYBLE_EVT_GAP_AUTH_COMPLETE\000"
 3728      455F4556 
 3728      545F4741 
 3728      505F4155 
 3728      54485F43 
 3729              	.LASF166:
 3730 0b01 61706952 		.ascii	"apiResult\000"
 3730      6573756C 
 3730      7400
 3731              	.LASF102:
 3732 0b0b 4359424C 		.ascii	"CYBLE_API_RESULT_T\000"
 3732      455F4150 
 3732      495F5245 
 3732      53554C54 
 3732      5F5400
 3733              	.LASF168:
 3734 0b1e 4379426C 		.ascii	"CyBle_Stop\000"
 3734      655F5374 
 3734      6F7000
 3735              	.LASF54:
 3736 0b29 4359424C 		.ascii	"CYBLE_EVT_GATTC_HANDLE_VALUE_NTF\000"
 3736      455F4556 
 3736      545F4741 
 3736      5454435F 
 3736      48414E44 
 3737              	.LASF99:
 3738 0b4a 4359424C 		.ascii	"CYBLE_ERROR_IND_DISABLED\000"
 3738      455F4552 
 3738      524F525F 
 3738      494E445F 
 3738      44495341 
 3739              	.LASF176:
 3740 0b63 64657374 		.ascii	"dest\000"
 3740      00
 3741              	.LASF144:
 3742 0b68 61747456 		.ascii	"attValueUuid\000"
 3742      616C7565 
 3742      55756964 
 3742      00
 3743              	.LASF138:
 3744 0b75 61747447 		.ascii	"attGenericVal\000"
 3744      656E6572 
 3744      69635661 
 3744      6C00
 3745              	.LASF64:
 3746 0b83 4359424C 		.ascii	"CYBLE_EVT_L2CAP_CBFC_CONN_CNF\000"
 3746      455F4556 
 3746      545F4C32 
ARM GAS  C:\Users\ilias\AppData\Local\Temp\ccbZWpbs.s 			page 97


 3746      4341505F 
 3746      43424643 
 3747              	.LASF205:
 3748 0ba1 6379426C 		.ascii	"cyBle_flashStorage\000"
 3748      655F666C 
 3748      61736853 
 3748      746F7261 
 3748      676500
 3749              	.LASF41:
 3750 0bb4 4359424C 		.ascii	"CYBLE_EVT_GATTC_READ_BY_GROUP_TYPE_RSP\000"
 3750      455F4556 
 3750      545F4741 
 3750      5454435F 
 3750      52454144 
 3751              	.LASF12:
 3752 0bdb 666C6F61 		.ascii	"float\000"
 3752      7400
 3753              	.LASF201:
 3754 0be1 6379426C 		.ascii	"cyBle_pendingFlashWrite\000"
 3754      655F7065 
 3754      6E64696E 
 3754      67466C61 
 3754      73685772 
 3755              	.LASF209:
 3756 0bf9 6379426C 		.ascii	"cyBle_advertisingIntervalType\000"
 3756      655F6164 
 3756      76657274 
 3756      6973696E 
 3756      67496E74 
 3757              	.LASF173:
 3758 0c17 4379426C 		.ascii	"CyBle_GappStartAdvertisement\000"
 3758      655F4761 
 3758      70705374 
 3758      61727441 
 3758      64766572 
 3759              	.LASF196:
 3760 0c34 6379426C 		.ascii	"cyBle_StackFlashptr\000"
 3760      655F5374 
 3760      61636B46 
 3760      6C617368 
 3760      70747200 
 3761              	.LASF119:
 3762 0c48 64697265 		.ascii	"directAddrType\000"
 3762      63744164 
 3762      64725479 
 3762      706500
 3763              	.LASF84:
 3764 0c57 4359424C 		.ascii	"CYBLE_ERROR_TX_POWER_READ\000"
 3764      455F4552 
 3764      524F525F 
 3764      54585F50 
 3764      4F574552 
 3765              	.LASF171:
 3766 0c71 63616C6C 		.ascii	"callbackFunc\000"
 3766      6261636B 
 3766      46756E63 
 3766      00
ARM GAS  C:\Users\ilias\AppData\Local\Temp\ccbZWpbs.s 			page 98


 3767              	.LASF150:
 3768 0c7e 61747456 		.ascii	"attValue\000"
 3768      616C7565 
 3768      00
 3769              	.LASF1:
 3770 0c87 756E7369 		.ascii	"unsigned char\000"
 3770      676E6564 
 3770      20636861 
 3770      7200
 3771              	.LASF10:
 3772 0c95 75696E74 		.ascii	"uint16\000"
 3772      313600
 3773              	.LASF202:
 3774 0c9c 6379426C 		.ascii	"cyBle_peerBonding\000"
 3774      655F7065 
 3774      6572426F 
 3774      6E64696E 
 3774      6700
 3775              	.LASF100:
 3776 0cae 4359424C 		.ascii	"CYBLE_ERROR_CHAR_IS_NOT_DISCOVERED\000"
 3776      455F4552 
 3776      524F525F 
 3776      43484152 
 3776      5F49535F 
 3777              	.LASF2:
 3778 0cd1 73686F72 		.ascii	"short int\000"
 3778      7420696E 
 3778      7400
 3779              	.LASF55:
 3780 0cdb 4359424C 		.ascii	"CYBLE_EVT_GATTC_HANDLE_VALUE_IND\000"
 3780      455F4556 
 3780      545F4741 
 3780      5454435F 
 3780      48414E44 
 3781              	.LASF187:
 3782 0cfc 4379426C 		.ascii	"CyBle_ChangeAdDeviceAddress\000"
 3782      655F4368 
 3782      616E6765 
 3782      41644465 
 3782      76696365 
 3783              	.LASF72:
 3784 0d18 4359424C 		.ascii	"CYBLE_EVT_LE_PING_AUTH_TIMEOUT\000"
 3784      455F4556 
 3784      545F4C45 
 3784      5F50494E 
 3784      475F4155 
 3785              	.LASF179:
 3786 0d37 666C6167 		.ascii	"flag\000"
 3786      00
 3787              	.LASF80:
 3788 0d3c 4359424C 		.ascii	"CYBLE_ERROR_NO_CONNECTION\000"
 3788      455F4552 
 3788      524F525F 
 3788      4E4F5F43 
 3788      4F4E4E45 
 3789              	.LASF212:
 3790 0d56 453A5C43 		.ascii	"E:\\Cypress\\FirstApp\\TransferByte.cydsn\000"
ARM GAS  C:\Users\ilias\AppData\Local\Temp\ccbZWpbs.s 			page 99


 3790      79707265 
 3790      73735C46 
 3790      69727374 
 3790      4170705C 
 3791              	.LASF51:
 3792 0d7d 4359424C 		.ascii	"CYBLE_EVT_GATTS_PREP_WRITE_REQ\000"
 3792      455F4556 
 3792      545F4741 
 3792      5454535F 
 3792      50524550 
 3793              	.LASF115:
 3794 0d9c 61647649 		.ascii	"advIntvMin\000"
 3794      6E74764D 
 3794      696E00
 3795              	.LASF113:
 3796 0da7 4359424C 		.ascii	"CYBLE_GAPP_CONNECTABLE_LOW_DC_DIRECTED_ADV\000"
 3796      455F4741 
 3796      50505F43 
 3796      4F4E4E45 
 3796      43544142 
 3797              	.LASF124:
 3798 0dd2 61647644 		.ascii	"advData\000"
 3798      61746100 
 3799              	.LASF190:
 3800 0dda 4379426C 		.ascii	"CyBle_ApplCallback\000"
 3800      655F4170 
 3800      706C4361 
 3800      6C6C6261 
 3800      636B00
 3801              	.LASF213:
 3802 0ded 4379426C 		.ascii	"CyBle_ChangeAdLocalName\000"
 3802      655F4368 
 3802      616E6765 
 3802      41644C6F 
 3802      63616C4E 
 3803              	.LASF56:
 3804 0e05 4359424C 		.ascii	"CYBLE_EVT_GATTS_HANDLE_VALUE_CNF\000"
 3804      455F4556 
 3804      545F4741 
 3804      5454535F 
 3804      48414E44 
 3805              	.LASF82:
 3806 0e26 4359424C 		.ascii	"CYBLE_ERROR_REPEATED_ATTEMPTS\000"
 3806      455F4552 
 3806      524F525F 
 3806      52455045 
 3806      41544544 
 3807              	.LASF167:
 3808 0e44 6379426C 		.ascii	"cyBle_stackDataBuff\000"
 3808      655F7374 
 3808      61636B44 
 3808      61746142 
 3808      75666600 
 3809              	.LASF203:
 3810 0e58 6379426C 		.ascii	"cyBle_gattDB\000"
 3810      655F6761 
 3810      74744442 
ARM GAS  C:\Users\ilias\AppData\Local\Temp\ccbZWpbs.s 			page 100


 3810      00
 3811              	.LASF211:
 3812 0e65 2E5C4765 		.ascii	".\\Generated_Source\\PSoC4\\BLE_1.c\000"
 3812      6E657261 
 3812      7465645F 
 3812      536F7572 
 3812      63655C50 
 3813              	.LASF15:
 3814 0e86 63686172 		.ascii	"char\000"
 3814      00
 3815              	.LASF85:
 3816 0e8b 4359424C 		.ascii	"CYBLE_ERROR_BT_ON_NOT_COMPLETED\000"
 3816      455F4552 
 3816      524F525F 
 3816      42545F4F 
 3816      4E5F4E4F 
 3817              	.LASF180:
 3818 0eab 61644C65 		.ascii	"adLength\000"
 3818      6E677468 
 3818      00
 3819              	.LASF31:
 3820 0eb4 4359424C 		.ascii	"CYBLE_EVT_GAP_DEVICE_DISCONNECTED\000"
 3820      455F4556 
 3820      545F4741 
 3820      505F4445 
 3820      56494345 
 3821              	.LASF174:
 3822 0ed6 61647665 		.ascii	"advertisingIntervalType\000"
 3822      72746973 
 3822      696E6749 
 3822      6E746572 
 3822      76616C54 
 3823              	.LASF8:
 3824 0eee 756E7369 		.ascii	"unsigned int\000"
 3824      676E6564 
 3824      20696E74 
 3824      00
 3825              	.LASF149:
 3826 0efb 61747445 		.ascii	"attEndHandle\000"
 3826      6E644861 
 3826      6E646C65 
 3826      00
 3827              	.LASF59:
 3828 0f08 4359424C 		.ascii	"CYBLE_EVT_GATTS_READ_CHAR_VAL_ACCESS_REQ\000"
 3828      455F4556 
 3828      545F4741 
 3828      5454535F 
 3828      52454144 
 3829              	.LASF106:
 3830 0f31 62756666 		.ascii	"bufferSize\000"
 3830      65725369 
 3830      7A6500
 3831              	.LASF123:
 3832 0f3c 4359424C 		.ascii	"CYBLE_GAPP_DISC_PARAM_T\000"
 3832      455F4741 
 3832      50505F44 
 3832      4953435F 
ARM GAS  C:\Users\ilias\AppData\Local\Temp\ccbZWpbs.s 			page 101


 3832      50415241 
 3833              	.LASF14:
 3834 0f54 63686172 		.ascii	"char8\000"
 3834      3800
 3835              	.LASF95:
 3836 0f5a 4359424C 		.ascii	"CYBLE_ERROR_FLASH_WRITE_NOT_PERMITED\000"
 3836      455F4552 
 3836      524F525F 
 3836      464C4153 
 3836      485F5752 
 3837              	.LASF90:
 3838 0f7f 4359424C 		.ascii	"CYBLE_ERROR_L2CAP_CONNECTION_ENTITY_NOT_FOUND\000"
 3838      455F4552 
 3838      524F525F 
 3838      4C324341 
 3838      505F434F 
 3839              	.LASF20:
 3840 0fad 4359424C 		.ascii	"CYBLE_EVT_HARDWARE_ERROR\000"
 3840      455F4556 
 3840      545F4841 
 3840      52445741 
 3840      52455F45 
 3841              	.LASF3:
 3842 0fc6 73686F72 		.ascii	"short unsigned int\000"
 3842      7420756E 
 3842      7369676E 
 3842      65642069 
 3842      6E7400
 3843              	.LASF151:
 3844 0fd9 4359424C 		.ascii	"CYBLE_GATTS_DB_T\000"
 3844      455F4741 
 3844      5454535F 
 3844      44425F54 
 3844      00
 3845              	.LASF76:
 3846 0fea 4359424C 		.ascii	"CYBLE_ERROR_INVALID_OPERATION\000"
 3846      455F4552 
 3846      524F525F 
 3846      494E5641 
 3846      4C49445F 
 3847              	.LASF170:
 3848 1008 4379426C 		.ascii	"CyBle_StoreBondingData\000"
 3848      655F5374 
 3848      6F726542 
 3848      6F6E6469 
 3848      6E674461 
 3849              	.LASF152:
 3850 101f 4359424C 		.ascii	"CYBLE_CALLBACK_T\000"
 3850      455F4341 
 3850      4C4C4241 
 3850      434B5F54 
 3850      00
 3851              	.LASF139:
 3852 1030 4359424C 		.ascii	"CYBLE_GATTS_ATT_GEN_VAL_LEN_T\000"
 3852      455F4741 
 3852      5454535F 
 3852      4154545F 
ARM GAS  C:\Users\ilias\AppData\Local\Temp\ccbZWpbs.s 			page 102


 3852      47454E5F 
 3853              	.LASF181:
 3854 104e 62797465 		.ascii	"byteCounter\000"
 3854      436F756E 
 3854      74657200 
 3855              	.LASF133:
 3856 105a 4359424C 		.ascii	"CYBLE_GAPP_DISC_MODE_INFO_T\000"
 3856      455F4741 
 3856      50505F44 
 3856      4953435F 
 3856      4D4F4445 
 3857              	.LASF131:
 3858 1076 61647650 		.ascii	"advParam\000"
 3858      6172616D 
 3858      00
 3859              	.LASF114:
 3860 107f 4359424C 		.ascii	"CYBLE_GAPP_ADV_T\000"
 3860      455F4741 
 3860      50505F41 
 3860      44565F54 
 3860      00
 3861              	.LASF157:
 3862 1090 43595F42 		.ascii	"CY_BLE_FLASH_STORAGE\000"
 3862      4C455F46 
 3862      4C415348 
 3862      5F53544F 
 3862      52414745 
 3863              	.LASF163:
 3864 10a5 4359424C 		.ascii	"CYBLE_STATE_T\000"
 3864      455F5354 
 3864      4154455F 
 3864      5400
 3865              	.LASF112:
 3866 10b3 4359424C 		.ascii	"CYBLE_GAPP_NON_CONNECTABLE_UNDIRECTED_ADV\000"
 3866      455F4741 
 3866      50505F4E 
 3866      4F4E5F43 
 3866      4F4E4E45 
 3867              	.LASF46:
 3868 10dd 4359424C 		.ascii	"CYBLE_EVT_GATTC_READ_BLOB_RSP\000"
 3868      455F4556 
 3868      545F4741 
 3868      5454435F 
 3868      52454144 
 3869              	.LASF141:
 3870 10fb 61747447 		.ascii	"attGenericValLen\000"
 3870      656E6572 
 3870      69635661 
 3870      6C4C656E 
 3870      00
 3871              	.LASF182:
 3872 110c 6D61784C 		.ascii	"maxLength\000"
 3872      656E6774 
 3872      6800
 3873              	.LASF194:
 3874 1116 6379426C 		.ascii	"cyBle_deviceAddress\000"
 3874      655F6465 
ARM GAS  C:\Users\ilias\AppData\Local\Temp\ccbZWpbs.s 			page 103


 3874      76696365 
 3874      41646472 
 3874      65737300 
 3875              	.LASF199:
 3876 112a 6379426C 		.ascii	"cyBle_scanRspData\000"
 3876      655F7363 
 3876      616E5273 
 3876      70446174 
 3876      6100
 3877              	.LASF96:
 3878 113c 4359424C 		.ascii	"CYBLE_ERROR_MIC_AUTH_FAILED\000"
 3878      455F4552 
 3878      524F525F 
 3878      4D49435F 
 3878      41555448 
 3879              	.LASF89:
 3880 1158 4359424C 		.ascii	"CYBLE_ERROR_L2CAP_PSM_NOT_REGISTERED\000"
 3880      455F4552 
 3880      524F525F 
 3880      4C324341 
 3880      505F5053 
 3881              	.LASF195:
 3882 117d 6379426C 		.ascii	"cyBle_sflashDeviceAddress\000"
 3882      655F7366 
 3882      6C617368 
 3882      44657669 
 3882      63654164 
 3883              	.LASF160:
 3884 1197 4359424C 		.ascii	"CYBLE_STATE_CONNECTED\000"
 3884      455F5354 
 3884      4154455F 
 3884      434F4E4E 
 3884      45435445 
 3885              	.LASF210:
 3886 11ad 474E5520 		.ascii	"GNU C 4.9.3 20150303 (release) [ARM/embedded-4_9-br"
 3886      4320342E 
 3886      392E3320 
 3886      32303135 
 3886      30333033 
 3887 11e0 616E6368 		.ascii	"anch revision 221220] -mcpu=cortex-m0 -mthumb -g -O"
 3887      20726576 
 3887      6973696F 
 3887      6E203232 
 3887      31323230 
 3888 1213 30202D66 		.ascii	"0 -ffunction-sections -ffat-lto-objects\000"
 3888      66756E63 
 3888      74696F6E 
 3888      2D736563 
 3888      74696F6E 
 3889              	.LASF44:
 3890 123b 4359424C 		.ascii	"CYBLE_EVT_GATTC_FIND_BY_TYPE_VALUE_RSP\000"
 3890      455F4556 
 3890      545F4741 
 3890      5454435F 
 3890      46494E44 
 3891              	.LASF83:
 3892 1262 4359424C 		.ascii	"CYBLE_ERROR_GAP_ROLE\000"
ARM GAS  C:\Users\ilias\AppData\Local\Temp\ccbZWpbs.s 			page 104


 3892      455F4552 
 3892      524F525F 
 3892      4741505F 
 3892      524F4C45 
 3893              	.LASF35:
 3894 1277 4359424C 		.ascii	"CYBLE_EVT_GAP_KEYINFO_EXCHNGE_CMPLT\000"
 3894      455F4556 
 3894      545F4741 
 3894      505F4B45 
 3894      59494E46 
 3895              	.LASF134:
 3896 129b 62644861 		.ascii	"bdHandle\000"
 3896      6E646C65 
 3896      00
 3897              	.LASF71:
 3898 12a4 4359424C 		.ascii	"CYBLE_EVT_PENDING_FLASH_WRITE\000"
 3898      455F4556 
 3898      545F5045 
 3898      4E44494E 
 3898      475F464C 
 3899              	.LASF164:
 3900 12c2 4379426C 		.ascii	"CyBle_Init\000"
 3900      655F496E 
 3900      697400
 3901              	.LASF61:
 3902 12cd 4359424C 		.ascii	"CYBLE_EVT_L2CAP_CONN_PARAM_UPDATE_RSP\000"
 3902      455F4556 
 3902      545F4C32 
 3902      4341505F 
 3902      434F4E4E 
 3903              	.LASF132:
 3904 12f3 61647654 		.ascii	"advTo\000"
 3904      6F00
 3905              	.LASF38:
 3906 12f9 4359424C 		.ascii	"CYBLE_EVT_GATT_DISCONNECT_IND\000"
 3906      455F4556 
 3906      545F4741 
 3906      54545F44 
 3906      4953434F 
 3907              	.LASF93:
 3908 1317 4359424C 		.ascii	"CYBLE_ERROR_GATT_DB_INVALID_ATTR_HANDLE\000"
 3908      455F4552 
 3908      524F525F 
 3908      47415454 
 3908      5F44425F 
 3909              		.ident	"GCC: (GNU Tools for ARM Embedded Processors) 4.9.3 20150303 (release) [ARM/embedded-4_9-br
