ARM GAS  C:\Users\ilias\AppData\Local\Temp\ccCGZhd0.s 			page 1


   1              		.cpu cortex-m0
   2              		.fpu softvfp
   3              		.eabi_attribute 20, 1
   4              		.eabi_attribute 21, 1
   5              		.eabi_attribute 23, 3
   6              		.eabi_attribute 24, 1
   7              		.eabi_attribute 25, 1
   8              		.eabi_attribute 26, 1
   9              		.eabi_attribute 30, 6
  10              		.eabi_attribute 34, 0
  11              		.eabi_attribute 18, 4
  12              		.code	16
  13              		.file	"cyfitter_cfg.c"
  14              		.text
  15              	.Ltext0:
  16              		.cfi_sections	.debug_frame
  17              		.section	.text.CYMEMZERO,"ax",%progbits
  18              		.align	2
  19              		.code	16
  20              		.thumb_func
  21              		.type	CYMEMZERO, %function
  22              	CYMEMZERO:
  23              	.LFB2:
  24              		.file 1 ".\\Generated_Source\\PSoC4\\cyfitter_cfg.c"
   1:.\Generated_Source\PSoC4/cyfitter_cfg.c **** /*******************************************************************************
   2:.\Generated_Source\PSoC4/cyfitter_cfg.c **** * File Name: cyfitter_cfg.c
   3:.\Generated_Source\PSoC4/cyfitter_cfg.c **** * 
   4:.\Generated_Source\PSoC4/cyfitter_cfg.c **** * PSoC Creator  3.3 SP1
   5:.\Generated_Source\PSoC4/cyfitter_cfg.c **** *
   6:.\Generated_Source\PSoC4/cyfitter_cfg.c **** * Description:
   7:.\Generated_Source\PSoC4/cyfitter_cfg.c **** * This file contains device initialization code.
   8:.\Generated_Source\PSoC4/cyfitter_cfg.c **** * Except for the user defined sections in CyClockStartupError(), this file should not be modified.
   9:.\Generated_Source\PSoC4/cyfitter_cfg.c **** * This file is automatically generated by PSoC Creator.
  10:.\Generated_Source\PSoC4/cyfitter_cfg.c **** *
  11:.\Generated_Source\PSoC4/cyfitter_cfg.c **** ********************************************************************************
  12:.\Generated_Source\PSoC4/cyfitter_cfg.c **** * Copyright (c) 2007-2015 Cypress Semiconductor.  All rights reserved.
  13:.\Generated_Source\PSoC4/cyfitter_cfg.c **** * You may use this file only in accordance with the license, terms, conditions, 
  14:.\Generated_Source\PSoC4/cyfitter_cfg.c **** * disclaimers, and limitations in the end user license agreement accompanying 
  15:.\Generated_Source\PSoC4/cyfitter_cfg.c **** * the software package with which this file was provided.
  16:.\Generated_Source\PSoC4/cyfitter_cfg.c **** ********************************************************************************/
  17:.\Generated_Source\PSoC4/cyfitter_cfg.c **** 
  18:.\Generated_Source\PSoC4/cyfitter_cfg.c **** #include <string.h>
  19:.\Generated_Source\PSoC4/cyfitter_cfg.c **** #include "cytypes.h"
  20:.\Generated_Source\PSoC4/cyfitter_cfg.c **** #include "cydevice_trm.h"
  21:.\Generated_Source\PSoC4/cyfitter_cfg.c **** #include "cyfitter.h"
  22:.\Generated_Source\PSoC4/cyfitter_cfg.c **** #include "CyLib.h"
  23:.\Generated_Source\PSoC4/cyfitter_cfg.c **** #include "CyLFClk.h"
  24:.\Generated_Source\PSoC4/cyfitter_cfg.c **** #include "cyfitter_cfg.h"
  25:.\Generated_Source\PSoC4/cyfitter_cfg.c **** 
  26:.\Generated_Source\PSoC4/cyfitter_cfg.c **** 
  27:.\Generated_Source\PSoC4/cyfitter_cfg.c **** #if defined(__GNUC__) || defined(__ARMCC_VERSION)
  28:.\Generated_Source\PSoC4/cyfitter_cfg.c ****     #define CYPACKED 
  29:.\Generated_Source\PSoC4/cyfitter_cfg.c ****     #define CYPACKED_ATTR __attribute__ ((packed))
  30:.\Generated_Source\PSoC4/cyfitter_cfg.c ****     #define CYALIGNED __attribute__ ((aligned))
  31:.\Generated_Source\PSoC4/cyfitter_cfg.c ****     #define CY_CFG_UNUSED __attribute__ ((unused))
  32:.\Generated_Source\PSoC4/cyfitter_cfg.c ****     #ifndef CY_CFG_SECTION
  33:.\Generated_Source\PSoC4/cyfitter_cfg.c ****         #define CY_CFG_SECTION __attribute__ ((section(".psocinit")))
ARM GAS  C:\Users\ilias\AppData\Local\Temp\ccCGZhd0.s 			page 2


  34:.\Generated_Source\PSoC4/cyfitter_cfg.c ****     #endif
  35:.\Generated_Source\PSoC4/cyfitter_cfg.c ****     
  36:.\Generated_Source\PSoC4/cyfitter_cfg.c ****     #if defined(__ARMCC_VERSION)
  37:.\Generated_Source\PSoC4/cyfitter_cfg.c ****         #define CY_CFG_MEMORY_BARRIER() __memory_changed()
  38:.\Generated_Source\PSoC4/cyfitter_cfg.c ****     #else
  39:.\Generated_Source\PSoC4/cyfitter_cfg.c ****         #define CY_CFG_MEMORY_BARRIER() __sync_synchronize()
  40:.\Generated_Source\PSoC4/cyfitter_cfg.c ****     #endif
  41:.\Generated_Source\PSoC4/cyfitter_cfg.c ****     
  42:.\Generated_Source\PSoC4/cyfitter_cfg.c **** #elif defined(__ICCARM__)
  43:.\Generated_Source\PSoC4/cyfitter_cfg.c ****     #include <intrinsics.h>
  44:.\Generated_Source\PSoC4/cyfitter_cfg.c **** 
  45:.\Generated_Source\PSoC4/cyfitter_cfg.c ****     #define CYPACKED __packed
  46:.\Generated_Source\PSoC4/cyfitter_cfg.c ****     #define CYPACKED_ATTR 
  47:.\Generated_Source\PSoC4/cyfitter_cfg.c ****     #define CYALIGNED _Pragma("data_alignment=4")
  48:.\Generated_Source\PSoC4/cyfitter_cfg.c ****     #define CY_CFG_UNUSED _Pragma("diag_suppress=Pe177")
  49:.\Generated_Source\PSoC4/cyfitter_cfg.c ****     #define CY_CFG_SECTION _Pragma("location=\".psocinit\"")
  50:.\Generated_Source\PSoC4/cyfitter_cfg.c ****     
  51:.\Generated_Source\PSoC4/cyfitter_cfg.c ****     #define CY_CFG_MEMORY_BARRIER() __DMB()
  52:.\Generated_Source\PSoC4/cyfitter_cfg.c ****     
  53:.\Generated_Source\PSoC4/cyfitter_cfg.c **** #else
  54:.\Generated_Source\PSoC4/cyfitter_cfg.c ****     #error Unsupported toolchain
  55:.\Generated_Source\PSoC4/cyfitter_cfg.c **** #endif
  56:.\Generated_Source\PSoC4/cyfitter_cfg.c **** 
  57:.\Generated_Source\PSoC4/cyfitter_cfg.c **** 
  58:.\Generated_Source\PSoC4/cyfitter_cfg.c **** CY_CFG_UNUSED
  59:.\Generated_Source\PSoC4/cyfitter_cfg.c **** static void CYMEMZERO(void *s, size_t n);
  60:.\Generated_Source\PSoC4/cyfitter_cfg.c **** CY_CFG_UNUSED
  61:.\Generated_Source\PSoC4/cyfitter_cfg.c **** static void CYMEMZERO(void *s, size_t n)
  62:.\Generated_Source\PSoC4/cyfitter_cfg.c **** {
  25              		.loc 1 62 0
  26              		.cfi_startproc
  27 0000 80B5     		push	{r7, lr}
  28              		.cfi_def_cfa_offset 8
  29              		.cfi_offset 7, -8
  30              		.cfi_offset 14, -4
  31 0002 82B0     		sub	sp, sp, #8
  32              		.cfi_def_cfa_offset 16
  33 0004 00AF     		add	r7, sp, #0
  34              		.cfi_def_cfa_register 7
  35 0006 7860     		str	r0, [r7, #4]
  36 0008 3960     		str	r1, [r7]
  63:.\Generated_Source\PSoC4/cyfitter_cfg.c **** 	(void)memset(s, 0, n);
  37              		.loc 1 63 0
  38 000a 7A68     		ldr	r2, [r7, #4]
  39 000c 3B68     		ldr	r3, [r7]
  40 000e 101C     		mov	r0, r2
  41 0010 0021     		mov	r1, #0
  42 0012 1A1C     		mov	r2, r3
  43 0014 FFF7FEFF 		bl	memset
  64:.\Generated_Source\PSoC4/cyfitter_cfg.c **** }
  44              		.loc 1 64 0
  45 0018 BD46     		mov	sp, r7
  46 001a 02B0     		add	sp, sp, #8
  47              		@ sp needed
  48 001c 80BD     		pop	{r7, pc}
  49              		.cfi_endproc
  50              	.LFE2:
ARM GAS  C:\Users\ilias\AppData\Local\Temp\ccCGZhd0.s 			page 3


  51              		.size	CYMEMZERO, .-CYMEMZERO
  52 001e C046     		.section	.text.CYCONFIGCPY,"ax",%progbits
  53              		.align	2
  54              		.code	16
  55              		.thumb_func
  56              		.type	CYCONFIGCPY, %function
  57              	CYCONFIGCPY:
  58              	.LFB3:
  65:.\Generated_Source\PSoC4/cyfitter_cfg.c **** CY_CFG_UNUSED
  66:.\Generated_Source\PSoC4/cyfitter_cfg.c **** static void CYCONFIGCPY(void *dest, const void *src, size_t n);
  67:.\Generated_Source\PSoC4/cyfitter_cfg.c **** CY_CFG_UNUSED
  68:.\Generated_Source\PSoC4/cyfitter_cfg.c **** static void CYCONFIGCPY(void *dest, const void *src, size_t n)
  69:.\Generated_Source\PSoC4/cyfitter_cfg.c **** {
  59              		.loc 1 69 0
  60              		.cfi_startproc
  61 0000 80B5     		push	{r7, lr}
  62              		.cfi_def_cfa_offset 8
  63              		.cfi_offset 7, -8
  64              		.cfi_offset 14, -4
  65 0002 84B0     		sub	sp, sp, #16
  66              		.cfi_def_cfa_offset 24
  67 0004 00AF     		add	r7, sp, #0
  68              		.cfi_def_cfa_register 7
  69 0006 F860     		str	r0, [r7, #12]
  70 0008 B960     		str	r1, [r7, #8]
  71 000a 7A60     		str	r2, [r7, #4]
  70:.\Generated_Source\PSoC4/cyfitter_cfg.c **** 	(void)memcpy(dest, src, n);
  72              		.loc 1 70 0
  73 000c F968     		ldr	r1, [r7, #12]
  74 000e BA68     		ldr	r2, [r7, #8]
  75 0010 7B68     		ldr	r3, [r7, #4]
  76 0012 081C     		mov	r0, r1
  77 0014 111C     		mov	r1, r2
  78 0016 1A1C     		mov	r2, r3
  79 0018 FFF7FEFF 		bl	memcpy
  71:.\Generated_Source\PSoC4/cyfitter_cfg.c **** }
  80              		.loc 1 71 0
  81 001c BD46     		mov	sp, r7
  82 001e 04B0     		add	sp, sp, #16
  83              		@ sp needed
  84 0020 80BD     		pop	{r7, pc}
  85              		.cfi_endproc
  86              	.LFE3:
  87              		.size	CYCONFIGCPY, .-CYCONFIGCPY
  88 0022 C046     		.section	.text.CYCONFIGCPYCODE,"ax",%progbits
  89              		.align	2
  90              		.code	16
  91              		.thumb_func
  92              		.type	CYCONFIGCPYCODE, %function
  93              	CYCONFIGCPYCODE:
  94              	.LFB4:
  72:.\Generated_Source\PSoC4/cyfitter_cfg.c **** CY_CFG_UNUSED
  73:.\Generated_Source\PSoC4/cyfitter_cfg.c **** static void CYCONFIGCPYCODE(void *dest, const void *src, size_t n);
  74:.\Generated_Source\PSoC4/cyfitter_cfg.c **** CY_CFG_UNUSED
  75:.\Generated_Source\PSoC4/cyfitter_cfg.c **** static void CYCONFIGCPYCODE(void *dest, const void *src, size_t n)
  76:.\Generated_Source\PSoC4/cyfitter_cfg.c **** {
  95              		.loc 1 76 0
ARM GAS  C:\Users\ilias\AppData\Local\Temp\ccCGZhd0.s 			page 4


  96              		.cfi_startproc
  97 0000 80B5     		push	{r7, lr}
  98              		.cfi_def_cfa_offset 8
  99              		.cfi_offset 7, -8
 100              		.cfi_offset 14, -4
 101 0002 84B0     		sub	sp, sp, #16
 102              		.cfi_def_cfa_offset 24
 103 0004 00AF     		add	r7, sp, #0
 104              		.cfi_def_cfa_register 7
 105 0006 F860     		str	r0, [r7, #12]
 106 0008 B960     		str	r1, [r7, #8]
 107 000a 7A60     		str	r2, [r7, #4]
  77:.\Generated_Source\PSoC4/cyfitter_cfg.c **** 	(void)memcpy(dest, src, n);
 108              		.loc 1 77 0
 109 000c F968     		ldr	r1, [r7, #12]
 110 000e BA68     		ldr	r2, [r7, #8]
 111 0010 7B68     		ldr	r3, [r7, #4]
 112 0012 081C     		mov	r0, r1
 113 0014 111C     		mov	r1, r2
 114 0016 1A1C     		mov	r2, r3
 115 0018 FFF7FEFF 		bl	memcpy
  78:.\Generated_Source\PSoC4/cyfitter_cfg.c **** }
 116              		.loc 1 78 0
 117 001c BD46     		mov	sp, r7
 118 001e 04B0     		add	sp, sp, #16
 119              		@ sp needed
 120 0020 80BD     		pop	{r7, pc}
 121              		.cfi_endproc
 122              	.LFE4:
 123              		.size	CYCONFIGCPYCODE, .-CYCONFIGCPYCODE
 124 0022 C046     		.section	.text.cfg_write_bytes32,"ax",%progbits
 125              		.align	2
 126              		.code	16
 127              		.thumb_func
 128              		.type	cfg_write_bytes32, %function
 129              	cfg_write_bytes32:
 130              	.LFB5:
  79:.\Generated_Source\PSoC4/cyfitter_cfg.c **** 
  80:.\Generated_Source\PSoC4/cyfitter_cfg.c **** 
  81:.\Generated_Source\PSoC4/cyfitter_cfg.c **** 
  82:.\Generated_Source\PSoC4/cyfitter_cfg.c **** /* Clock startup error codes                                                   */
  83:.\Generated_Source\PSoC4/cyfitter_cfg.c **** #define CYCLOCKSTART_NO_ERROR    0u
  84:.\Generated_Source\PSoC4/cyfitter_cfg.c **** #define CYCLOCKSTART_XTAL_ERROR  1u
  85:.\Generated_Source\PSoC4/cyfitter_cfg.c **** #define CYCLOCKSTART_32KHZ_ERROR 2u
  86:.\Generated_Source\PSoC4/cyfitter_cfg.c **** #define CYCLOCKSTART_PLL_ERROR   3u
  87:.\Generated_Source\PSoC4/cyfitter_cfg.c **** 
  88:.\Generated_Source\PSoC4/cyfitter_cfg.c **** #ifdef CY_NEED_CYCLOCKSTARTUPERROR
  89:.\Generated_Source\PSoC4/cyfitter_cfg.c **** /*******************************************************************************
  90:.\Generated_Source\PSoC4/cyfitter_cfg.c **** * Function Name: CyClockStartupError
  91:.\Generated_Source\PSoC4/cyfitter_cfg.c **** ********************************************************************************
  92:.\Generated_Source\PSoC4/cyfitter_cfg.c **** * Summary:
  93:.\Generated_Source\PSoC4/cyfitter_cfg.c **** *  If an error is encountered during clock configuration (crystal startup error,
  94:.\Generated_Source\PSoC4/cyfitter_cfg.c **** *  PLL lock error, etc.), the system will end up here.  Unless reimplemented by
  95:.\Generated_Source\PSoC4/cyfitter_cfg.c **** *  the customer, this function will stop in an infinite loop.
  96:.\Generated_Source\PSoC4/cyfitter_cfg.c **** *
  97:.\Generated_Source\PSoC4/cyfitter_cfg.c **** * Parameters:
  98:.\Generated_Source\PSoC4/cyfitter_cfg.c **** *   void
ARM GAS  C:\Users\ilias\AppData\Local\Temp\ccCGZhd0.s 			page 5


  99:.\Generated_Source\PSoC4/cyfitter_cfg.c **** *
 100:.\Generated_Source\PSoC4/cyfitter_cfg.c **** * Return:
 101:.\Generated_Source\PSoC4/cyfitter_cfg.c **** *   void
 102:.\Generated_Source\PSoC4/cyfitter_cfg.c **** *
 103:.\Generated_Source\PSoC4/cyfitter_cfg.c **** *******************************************************************************/
 104:.\Generated_Source\PSoC4/cyfitter_cfg.c **** CY_CFG_UNUSED
 105:.\Generated_Source\PSoC4/cyfitter_cfg.c **** static void CyClockStartupError(uint8 errorCode);
 106:.\Generated_Source\PSoC4/cyfitter_cfg.c **** CY_CFG_UNUSED
 107:.\Generated_Source\PSoC4/cyfitter_cfg.c **** static void CyClockStartupError(uint8 errorCode)
 108:.\Generated_Source\PSoC4/cyfitter_cfg.c **** {
 109:.\Generated_Source\PSoC4/cyfitter_cfg.c ****     /* To remove the compiler warning if errorCode not used.                */
 110:.\Generated_Source\PSoC4/cyfitter_cfg.c ****     errorCode = errorCode;
 111:.\Generated_Source\PSoC4/cyfitter_cfg.c **** 
 112:.\Generated_Source\PSoC4/cyfitter_cfg.c ****     /* `#START CyClockStartupError` */
 113:.\Generated_Source\PSoC4/cyfitter_cfg.c **** 
 114:.\Generated_Source\PSoC4/cyfitter_cfg.c ****     /* If we have a clock startup error (bad MHz crystal, PLL lock, etc.),  */
 115:.\Generated_Source\PSoC4/cyfitter_cfg.c ****     /* we will end up here to allow the customer to implement something to  */
 116:.\Generated_Source\PSoC4/cyfitter_cfg.c ****     /* deal with the clock condition.                                       */
 117:.\Generated_Source\PSoC4/cyfitter_cfg.c **** 
 118:.\Generated_Source\PSoC4/cyfitter_cfg.c ****     /* `#END` */
 119:.\Generated_Source\PSoC4/cyfitter_cfg.c **** 
 120:.\Generated_Source\PSoC4/cyfitter_cfg.c ****     /* If nothing else, stop here since the clocks have not started         */
 121:.\Generated_Source\PSoC4/cyfitter_cfg.c ****     /* correctly.                                                           */
 122:.\Generated_Source\PSoC4/cyfitter_cfg.c ****     while(1) {}
 123:.\Generated_Source\PSoC4/cyfitter_cfg.c **** }
 124:.\Generated_Source\PSoC4/cyfitter_cfg.c **** #endif
 125:.\Generated_Source\PSoC4/cyfitter_cfg.c **** 
 126:.\Generated_Source\PSoC4/cyfitter_cfg.c **** #define CY_CFG_BASE_ADDR_COUNT 7u
 127:.\Generated_Source\PSoC4/cyfitter_cfg.c **** CYPACKED typedef struct
 128:.\Generated_Source\PSoC4/cyfitter_cfg.c **** {
 129:.\Generated_Source\PSoC4/cyfitter_cfg.c **** 	uint8 offset;
 130:.\Generated_Source\PSoC4/cyfitter_cfg.c **** 	uint8 value;
 131:.\Generated_Source\PSoC4/cyfitter_cfg.c **** } CYPACKED_ATTR cy_cfg_addrvalue_t;
 132:.\Generated_Source\PSoC4/cyfitter_cfg.c **** 
 133:.\Generated_Source\PSoC4/cyfitter_cfg.c **** 
 134:.\Generated_Source\PSoC4/cyfitter_cfg.c **** 
 135:.\Generated_Source\PSoC4/cyfitter_cfg.c **** /*******************************************************************************
 136:.\Generated_Source\PSoC4/cyfitter_cfg.c **** * Function Name: cfg_write_bytes32
 137:.\Generated_Source\PSoC4/cyfitter_cfg.c **** ********************************************************************************
 138:.\Generated_Source\PSoC4/cyfitter_cfg.c **** * Summary:
 139:.\Generated_Source\PSoC4/cyfitter_cfg.c **** *  This function is used for setting up the chip configuration areas that
 140:.\Generated_Source\PSoC4/cyfitter_cfg.c **** *  contain relatively sparse data.
 141:.\Generated_Source\PSoC4/cyfitter_cfg.c **** *
 142:.\Generated_Source\PSoC4/cyfitter_cfg.c **** * Parameters:
 143:.\Generated_Source\PSoC4/cyfitter_cfg.c **** *   void
 144:.\Generated_Source\PSoC4/cyfitter_cfg.c **** *
 145:.\Generated_Source\PSoC4/cyfitter_cfg.c **** * Return:
 146:.\Generated_Source\PSoC4/cyfitter_cfg.c **** *   void
 147:.\Generated_Source\PSoC4/cyfitter_cfg.c **** *
 148:.\Generated_Source\PSoC4/cyfitter_cfg.c **** *******************************************************************************/
 149:.\Generated_Source\PSoC4/cyfitter_cfg.c **** static void cfg_write_bytes32(const uint32 addr_table[], const cy_cfg_addrvalue_t data_table[]);
 150:.\Generated_Source\PSoC4/cyfitter_cfg.c **** static void cfg_write_bytes32(const uint32 addr_table[], const cy_cfg_addrvalue_t data_table[])
 151:.\Generated_Source\PSoC4/cyfitter_cfg.c **** {
 131              		.loc 1 151 0
 132              		.cfi_startproc
 133 0000 80B5     		push	{r7, lr}
 134              		.cfi_def_cfa_offset 8
ARM GAS  C:\Users\ilias\AppData\Local\Temp\ccCGZhd0.s 			page 6


 135              		.cfi_offset 7, -8
 136              		.cfi_offset 14, -4
 137 0002 86B0     		sub	sp, sp, #24
 138              		.cfi_def_cfa_offset 32
 139 0004 00AF     		add	r7, sp, #0
 140              		.cfi_def_cfa_register 7
 141 0006 7860     		str	r0, [r7, #4]
 142 0008 3960     		str	r1, [r7]
 152:.\Generated_Source\PSoC4/cyfitter_cfg.c **** 	/* For 32-bit little-endian architectures */
 153:.\Generated_Source\PSoC4/cyfitter_cfg.c **** 	uint32 i, j = 0u;
 143              		.loc 1 153 0
 144 000a 0023     		mov	r3, #0
 145 000c 3B61     		str	r3, [r7, #16]
 154:.\Generated_Source\PSoC4/cyfitter_cfg.c **** 	for (i = 0u; i < CY_CFG_BASE_ADDR_COUNT; i++)
 146              		.loc 1 154 0
 147 000e 0023     		mov	r3, #0
 148 0010 7B61     		str	r3, [r7, #20]
 149 0012 2FE0     		b	.L5
 150              	.L8:
 151              	.LBB2:
 155:.\Generated_Source\PSoC4/cyfitter_cfg.c **** 	{
 156:.\Generated_Source\PSoC4/cyfitter_cfg.c **** 		uint32 baseAddr = addr_table[i];
 152              		.loc 1 156 0
 153 0014 7B69     		ldr	r3, [r7, #20]
 154 0016 9B00     		lsl	r3, r3, #2
 155 0018 7A68     		ldr	r2, [r7, #4]
 156 001a D318     		add	r3, r2, r3
 157 001c 1B68     		ldr	r3, [r3]
 158 001e BB60     		str	r3, [r7, #8]
 157:.\Generated_Source\PSoC4/cyfitter_cfg.c **** 		uint8 count = (uint8)baseAddr;
 159              		.loc 1 157 0
 160 0020 0F23     		mov	r3, #15
 161 0022 FB18     		add	r3, r7, r3
 162 0024 BA68     		ldr	r2, [r7, #8]
 163 0026 1A70     		strb	r2, [r3]
 158:.\Generated_Source\PSoC4/cyfitter_cfg.c **** 		baseAddr &= 0xFFFFFF00u;
 164              		.loc 1 158 0
 165 0028 BB68     		ldr	r3, [r7, #8]
 166 002a FF22     		mov	r2, #255
 167 002c 9343     		bic	r3, r2
 168 002e BB60     		str	r3, [r7, #8]
 159:.\Generated_Source\PSoC4/cyfitter_cfg.c **** 		while (count != 0u)
 169              		.loc 1 159 0
 170 0030 18E0     		b	.L6
 171              	.L7:
 160:.\Generated_Source\PSoC4/cyfitter_cfg.c **** 		{
 161:.\Generated_Source\PSoC4/cyfitter_cfg.c **** 			CY_SET_XTND_REG8((void CYFAR *)(baseAddr + data_table[j].offset), data_table[j].value);
 172              		.loc 1 161 0
 173 0032 3B69     		ldr	r3, [r7, #16]
 174 0034 5B00     		lsl	r3, r3, #1
 175 0036 3A68     		ldr	r2, [r7]
 176 0038 D318     		add	r3, r2, r3
 177 003a 1B78     		ldrb	r3, [r3]
 178 003c 1A1C     		mov	r2, r3
 179 003e BB68     		ldr	r3, [r7, #8]
 180 0040 D318     		add	r3, r2, r3
 181 0042 191C     		mov	r1, r3
ARM GAS  C:\Users\ilias\AppData\Local\Temp\ccCGZhd0.s 			page 7


 182 0044 3B69     		ldr	r3, [r7, #16]
 183 0046 5B00     		lsl	r3, r3, #1
 184 0048 3A68     		ldr	r2, [r7]
 185 004a D318     		add	r3, r2, r3
 186 004c 5B78     		ldrb	r3, [r3, #1]
 187 004e 0B70     		strb	r3, [r1]
 162:.\Generated_Source\PSoC4/cyfitter_cfg.c **** 			j++;
 188              		.loc 1 162 0
 189 0050 3B69     		ldr	r3, [r7, #16]
 190 0052 0133     		add	r3, r3, #1
 191 0054 3B61     		str	r3, [r7, #16]
 163:.\Generated_Source\PSoC4/cyfitter_cfg.c **** 			count--;
 192              		.loc 1 163 0
 193 0056 0F23     		mov	r3, #15
 194 0058 FB18     		add	r3, r7, r3
 195 005a 1A78     		ldrb	r2, [r3]
 196 005c 0F23     		mov	r3, #15
 197 005e FB18     		add	r3, r7, r3
 198 0060 013A     		sub	r2, r2, #1
 199 0062 1A70     		strb	r2, [r3]
 200              	.L6:
 159:.\Generated_Source\PSoC4/cyfitter_cfg.c **** 		{
 201              		.loc 1 159 0
 202 0064 0F23     		mov	r3, #15
 203 0066 FB18     		add	r3, r7, r3
 204 0068 1B78     		ldrb	r3, [r3]
 205 006a 002B     		cmp	r3, #0
 206 006c E1D1     		bne	.L7
 207              	.LBE2:
 154:.\Generated_Source\PSoC4/cyfitter_cfg.c **** 	{
 208              		.loc 1 154 0 discriminator 2
 209 006e 7B69     		ldr	r3, [r7, #20]
 210 0070 0133     		add	r3, r3, #1
 211 0072 7B61     		str	r3, [r7, #20]
 212              	.L5:
 154:.\Generated_Source\PSoC4/cyfitter_cfg.c **** 	{
 213              		.loc 1 154 0 is_stmt 0 discriminator 1
 214 0074 7B69     		ldr	r3, [r7, #20]
 215 0076 062B     		cmp	r3, #6
 216 0078 CCD9     		bls	.L8
 164:.\Generated_Source\PSoC4/cyfitter_cfg.c **** 		}
 165:.\Generated_Source\PSoC4/cyfitter_cfg.c **** 	}
 166:.\Generated_Source\PSoC4/cyfitter_cfg.c **** }
 217              		.loc 1 166 0 is_stmt 1
 218 007a BD46     		mov	sp, r7
 219 007c 06B0     		add	sp, sp, #24
 220              		@ sp needed
 221 007e 80BD     		pop	{r7, pc}
 222              		.cfi_endproc
 223              	.LFE5:
 224              		.size	cfg_write_bytes32, .-cfg_write_bytes32
 225              		.section	.psocinit,"ax",%progbits
 226              		.align	2
 227              		.code	16
 228              		.thumb_func
 229              		.type	ClockSetup, %function
 230              	ClockSetup:
ARM GAS  C:\Users\ilias\AppData\Local\Temp\ccCGZhd0.s 			page 8


 231              	.LFB6:
 167:.\Generated_Source\PSoC4/cyfitter_cfg.c **** 
 168:.\Generated_Source\PSoC4/cyfitter_cfg.c **** 
 169:.\Generated_Source\PSoC4/cyfitter_cfg.c **** /*******************************************************************************
 170:.\Generated_Source\PSoC4/cyfitter_cfg.c **** * Function Name: ClockSetup
 171:.\Generated_Source\PSoC4/cyfitter_cfg.c **** ********************************************************************************
 172:.\Generated_Source\PSoC4/cyfitter_cfg.c **** *
 173:.\Generated_Source\PSoC4/cyfitter_cfg.c **** * Summary:
 174:.\Generated_Source\PSoC4/cyfitter_cfg.c **** *   Performs the initialization of all of the clocks in the device based on the
 175:.\Generated_Source\PSoC4/cyfitter_cfg.c **** *   settings in the Clock tab of the DWR.  This includes enabling the requested
 176:.\Generated_Source\PSoC4/cyfitter_cfg.c **** *   clocks and setting the necessary dividers to produce the desired frequency. 
 177:.\Generated_Source\PSoC4/cyfitter_cfg.c **** *
 178:.\Generated_Source\PSoC4/cyfitter_cfg.c **** * Parameters:
 179:.\Generated_Source\PSoC4/cyfitter_cfg.c **** *   void
 180:.\Generated_Source\PSoC4/cyfitter_cfg.c **** *
 181:.\Generated_Source\PSoC4/cyfitter_cfg.c **** * Return:
 182:.\Generated_Source\PSoC4/cyfitter_cfg.c **** *   void
 183:.\Generated_Source\PSoC4/cyfitter_cfg.c **** *
 184:.\Generated_Source\PSoC4/cyfitter_cfg.c **** *******************************************************************************/
 185:.\Generated_Source\PSoC4/cyfitter_cfg.c **** static void ClockSetup(void);
 186:.\Generated_Source\PSoC4/cyfitter_cfg.c **** CY_CFG_SECTION
 187:.\Generated_Source\PSoC4/cyfitter_cfg.c **** static void ClockSetup(void)
 188:.\Generated_Source\PSoC4/cyfitter_cfg.c **** {
 232              		.loc 1 188 0
 233              		.cfi_startproc
 234 0000 80B5     		push	{r7, lr}
 235              		.cfi_def_cfa_offset 8
 236              		.cfi_offset 7, -8
 237              		.cfi_offset 14, -4
 238 0002 00AF     		add	r7, sp, #0
 239              		.cfi_def_cfa_register 7
 189:.\Generated_Source\PSoC4/cyfitter_cfg.c **** 
 190:.\Generated_Source\PSoC4/cyfitter_cfg.c **** 	/* Set Flash Cycles based on max possible frequency in case a glitch occurs during ClockSetup(). *
 191:.\Generated_Source\PSoC4/cyfitter_cfg.c **** 	CY_SET_REG32((void CYXDATA *)(CYREG_CPUSS_FLASH_CTL), (0x0012u));
 240              		.loc 1 191 0
 241 0004 354B     		ldr	r3, .L10
 242 0006 1222     		mov	r2, #18
 243 0008 1A60     		str	r2, [r3]
 192:.\Generated_Source\PSoC4/cyfitter_cfg.c **** 
 193:.\Generated_Source\PSoC4/cyfitter_cfg.c **** 	/* Start the WCO */
 194:.\Generated_Source\PSoC4/cyfitter_cfg.c **** 	CySysClkWcoStart();
 244              		.loc 1 194 0
 245 000a FFF7FEFF 		bl	CySysClkWcoStart
 195:.\Generated_Source\PSoC4/cyfitter_cfg.c **** 	CyDelayCycles(12000000u); /* WCO may take up to 500ms to start */
 246              		.loc 1 195 0
 247 000e 344B     		ldr	r3, .L10+4
 248 0010 181C     		mov	r0, r3
 249 0012 FFF7FEFF 		bl	CyDelayCycles
 196:.\Generated_Source\PSoC4/cyfitter_cfg.c **** 	(void)CySysClkWcoSetPowerMode(CY_SYS_CLK_WCO_LPM);    /* Switch to the low power mode */
 250              		.loc 1 196 0
 251 0016 0120     		mov	r0, #1
 252 0018 FFF7FEFF 		bl	CySysClkWcoSetPowerMode
 197:.\Generated_Source\PSoC4/cyfitter_cfg.c **** 
 198:.\Generated_Source\PSoC4/cyfitter_cfg.c **** 	/* Setup and trim IMO based on desired frequency. */
 199:.\Generated_Source\PSoC4/cyfitter_cfg.c **** 	CySysClkWriteImoFreq(48u);
 253              		.loc 1 199 0
 254 001c 3020     		mov	r0, #48
ARM GAS  C:\Users\ilias\AppData\Local\Temp\ccCGZhd0.s 			page 9


 255 001e FFF7FEFF 		bl	CySysClkWriteImoFreq
 200:.\Generated_Source\PSoC4/cyfitter_cfg.c **** 	/* CYDEV_CLK_ILO_CONFIG Starting address: CYDEV_CLK_ILO_CONFIG */
 201:.\Generated_Source\PSoC4/cyfitter_cfg.c **** 	CY_SET_XTND_REG32((void CYFAR *)(CYREG_CLK_ILO_CONFIG), 0x80000006u);
 256              		.loc 1 201 0
 257 0022 304B     		ldr	r3, .L10+8
 258 0024 304A     		ldr	r2, .L10+12
 259 0026 1A60     		str	r2, [r3]
 202:.\Generated_Source\PSoC4/cyfitter_cfg.c **** 
 203:.\Generated_Source\PSoC4/cyfitter_cfg.c **** 	/* CYDEV_WDT_CONFIG Starting address: CYDEV_WDT_CONFIG */
 204:.\Generated_Source\PSoC4/cyfitter_cfg.c **** 	CY_SET_XTND_REG32((void CYFAR *)(CYREG_WDT_CONFIG), 0x40000000u);
 260              		.loc 1 204 0
 261 0028 304B     		ldr	r3, .L10+16
 262 002a 8022     		mov	r2, #128
 263 002c D205     		lsl	r2, r2, #23
 264 002e 1A60     		str	r2, [r3]
 205:.\Generated_Source\PSoC4/cyfitter_cfg.c **** 
 206:.\Generated_Source\PSoC4/cyfitter_cfg.c **** 
 207:.\Generated_Source\PSoC4/cyfitter_cfg.c **** 	/* Enable fast start mode for XO */
 208:.\Generated_Source\PSoC4/cyfitter_cfg.c **** 	CY_SET_REG32((void*)CYREG_BLE_BLERD_BB_XO, CY_GET_REG32((void*)CYREG_BLE_BLERD_BB_XO) | (uint32)0x
 265              		.loc 1 208 0
 266 0030 2F4B     		ldr	r3, .L10+20
 267 0032 2F4A     		ldr	r2, .L10+20
 268 0034 1268     		ldr	r2, [r2]
 269 0036 0221     		mov	r1, #2
 270 0038 0A43     		orr	r2, r1
 271 003a 1A60     		str	r2, [r3]
 209:.\Generated_Source\PSoC4/cyfitter_cfg.c **** 	CY_SET_XTND_REG32((void CYFAR *)(CYREG_BLE_BLERD_BB_XO_CAPTRIM), 0x00003E2Du);
 272              		.loc 1 209 0
 273 003c 2D4B     		ldr	r3, .L10+24
 274 003e 2E4A     		ldr	r2, .L10+28
 275 0040 1A60     		str	r2, [r3]
 210:.\Generated_Source\PSoC4/cyfitter_cfg.c **** 	/* Disable Crystal Stable Interrupt before enabling ECO */
 211:.\Generated_Source\PSoC4/cyfitter_cfg.c **** 	CY_SET_REG32((void*)CYREG_BLE_BLESS_LL_DSM_CTRL, CY_GET_REG32((void*)CYREG_BLE_BLESS_LL_DSM_CTRL) 
 276              		.loc 1 211 0
 277 0042 2E4B     		ldr	r3, .L10+32
 278 0044 2D4A     		ldr	r2, .L10+32
 279 0046 1268     		ldr	r2, [r2]
 280 0048 0821     		mov	r1, #8
 281 004a 8A43     		bic	r2, r1
 282 004c 1A60     		str	r2, [r3]
 212:.\Generated_Source\PSoC4/cyfitter_cfg.c **** 	/* Start the ECO and do not check status since it is not needed for HFCLK */
 213:.\Generated_Source\PSoC4/cyfitter_cfg.c **** 	(void)CySysClkEcoStart(2000u);
 283              		.loc 1 213 0
 284 004e FA23     		mov	r3, #250
 285 0050 DB00     		lsl	r3, r3, #3
 286 0052 181C     		mov	r0, r3
 287 0054 FFF7FEFF 		bl	CySysClkEcoStart
 214:.\Generated_Source\PSoC4/cyfitter_cfg.c **** 	CyDelayUs(1500u); /* Wait to stabalize */
 288              		.loc 1 214 0
 289 0058 294B     		ldr	r3, .L10+36
 290 005a 181C     		mov	r0, r3
 291 005c FFF7FEFF 		bl	CyDelayUs
 215:.\Generated_Source\PSoC4/cyfitter_cfg.c **** 
 216:.\Generated_Source\PSoC4/cyfitter_cfg.c **** 	/* Setup phase aligned clocks */
 217:.\Generated_Source\PSoC4/cyfitter_cfg.c **** 	CY_SET_REG32((void *)CYREG_PERI_DIV_16_CTL1, 0x00005D00u);
 292              		.loc 1 217 0
 293 0060 284B     		ldr	r3, .L10+40
ARM GAS  C:\Users\ilias\AppData\Local\Temp\ccCGZhd0.s 			page 10


 294 0062 BA22     		mov	r2, #186
 295 0064 D201     		lsl	r2, r2, #7
 296 0066 1A60     		str	r2, [r3]
 218:.\Generated_Source\PSoC4/cyfitter_cfg.c **** 	CY_SET_REG32((void *)CYREG_PERI_DIV_CMD, 0x8000FF41u);
 297              		.loc 1 218 0
 298 0068 274B     		ldr	r3, .L10+44
 299 006a 284A     		ldr	r2, .L10+48
 300 006c 1A60     		str	r2, [r3]
 219:.\Generated_Source\PSoC4/cyfitter_cfg.c **** 	CY_SET_REG32((void *)CYREG_PERI_DIV_16_CTL3, 0x0005DB00u);
 301              		.loc 1 219 0
 302 006e 284B     		ldr	r3, .L10+52
 303 0070 284A     		ldr	r2, .L10+56
 304 0072 1A60     		str	r2, [r3]
 220:.\Generated_Source\PSoC4/cyfitter_cfg.c **** 	CY_SET_REG32((void *)CYREG_PERI_DIV_CMD, 0x8000FF43u);
 305              		.loc 1 220 0
 306 0074 244B     		ldr	r3, .L10+44
 307 0076 284A     		ldr	r2, .L10+60
 308 0078 1A60     		str	r2, [r3]
 221:.\Generated_Source\PSoC4/cyfitter_cfg.c **** 	CY_SET_REG32((void *)CYREG_PERI_DIV_16_CTL2, 0x0001A000u);
 309              		.loc 1 221 0
 310 007a 284B     		ldr	r3, .L10+64
 311 007c D022     		mov	r2, #208
 312 007e 5202     		lsl	r2, r2, #9
 313 0080 1A60     		str	r2, [r3]
 222:.\Generated_Source\PSoC4/cyfitter_cfg.c **** 	CY_SET_REG32((void *)CYREG_PERI_DIV_CMD, 0x8000FF42u);
 314              		.loc 1 222 0
 315 0082 214B     		ldr	r3, .L10+44
 316 0084 264A     		ldr	r2, .L10+68
 317 0086 1A60     		str	r2, [r3]
 223:.\Generated_Source\PSoC4/cyfitter_cfg.c **** 	CY_SET_REG32((void *)CYREG_PERI_DIV_16_CTL0, 0x00000200u);
 318              		.loc 1 223 0
 319 0088 264B     		ldr	r3, .L10+72
 320 008a 8022     		mov	r2, #128
 321 008c 9200     		lsl	r2, r2, #2
 322 008e 1A60     		str	r2, [r3]
 224:.\Generated_Source\PSoC4/cyfitter_cfg.c **** 	CY_SET_REG32((void *)CYREG_PERI_DIV_CMD, 0x8000FF40u);
 323              		.loc 1 224 0
 324 0090 1D4B     		ldr	r3, .L10+44
 325 0092 254A     		ldr	r2, .L10+76
 326 0094 1A60     		str	r2, [r3]
 225:.\Generated_Source\PSoC4/cyfitter_cfg.c **** 
 226:.\Generated_Source\PSoC4/cyfitter_cfg.c **** 	/* CYDEV_CLK_IMO_CONFIG Starting address: CYDEV_CLK_IMO_CONFIG */
 227:.\Generated_Source\PSoC4/cyfitter_cfg.c **** 	CY_SET_XTND_REG32((void CYFAR *)(CYREG_CLK_IMO_CONFIG), 0x80000000u);
 327              		.loc 1 227 0
 328 0096 254B     		ldr	r3, .L10+80
 329 0098 8022     		mov	r2, #128
 330 009a 1206     		lsl	r2, r2, #24
 331 009c 1A60     		str	r2, [r3]
 228:.\Generated_Source\PSoC4/cyfitter_cfg.c **** 
 229:.\Generated_Source\PSoC4/cyfitter_cfg.c **** 	/* CYDEV_CLK_SELECT Starting address: CYDEV_CLK_SELECT */
 230:.\Generated_Source\PSoC4/cyfitter_cfg.c **** 	CY_SET_XTND_REG32((void CYFAR *)(CYREG_CLK_SELECT), 0x00040000u);
 332              		.loc 1 230 0
 333 009e 244B     		ldr	r3, .L10+84
 334 00a0 8022     		mov	r2, #128
 335 00a2 D202     		lsl	r2, r2, #11
 336 00a4 1A60     		str	r2, [r3]
 231:.\Generated_Source\PSoC4/cyfitter_cfg.c **** 
ARM GAS  C:\Users\ilias\AppData\Local\Temp\ccCGZhd0.s 			page 11


 232:.\Generated_Source\PSoC4/cyfitter_cfg.c **** 	/* CYDEV_PERI_PCLK_CTL11 Starting address: CYDEV_PERI_PCLK_CTL11 */
 233:.\Generated_Source\PSoC4/cyfitter_cfg.c **** 	CY_SET_XTND_REG32((void CYFAR *)(CYREG_PERI_PCLK_CTL11), 0x00000041u);
 337              		.loc 1 233 0
 338 00a6 234B     		ldr	r3, .L10+88
 339 00a8 4122     		mov	r2, #65
 340 00aa 1A60     		str	r2, [r3]
 234:.\Generated_Source\PSoC4/cyfitter_cfg.c **** 
 235:.\Generated_Source\PSoC4/cyfitter_cfg.c **** 	/* CYDEV_PERI_PCLK_CTL7 Starting address: CYDEV_PERI_PCLK_CTL7 */
 236:.\Generated_Source\PSoC4/cyfitter_cfg.c **** 	CY_SET_XTND_REG32((void CYFAR *)(CYREG_PERI_PCLK_CTL7), 0x00000043u);
 341              		.loc 1 236 0
 342 00ac 224B     		ldr	r3, .L10+92
 343 00ae 4322     		mov	r2, #67
 344 00b0 1A60     		str	r2, [r3]
 237:.\Generated_Source\PSoC4/cyfitter_cfg.c **** 
 238:.\Generated_Source\PSoC4/cyfitter_cfg.c **** 	/* CYDEV_PERI_PCLK_CTL2 Starting address: CYDEV_PERI_PCLK_CTL2 */
 239:.\Generated_Source\PSoC4/cyfitter_cfg.c **** 	CY_SET_XTND_REG32((void CYFAR *)(CYREG_PERI_PCLK_CTL2), 0x00000042u);
 345              		.loc 1 239 0
 346 00b2 224B     		ldr	r3, .L10+96
 347 00b4 4222     		mov	r2, #66
 348 00b6 1A60     		str	r2, [r3]
 240:.\Generated_Source\PSoC4/cyfitter_cfg.c **** 
 241:.\Generated_Source\PSoC4/cyfitter_cfg.c **** 	/* CYDEV_PERI_PCLK_CTL1 Starting address: CYDEV_PERI_PCLK_CTL1 */
 242:.\Generated_Source\PSoC4/cyfitter_cfg.c **** 	CY_SET_XTND_REG32((void CYFAR *)(CYREG_PERI_PCLK_CTL1), 0x00000040u);
 349              		.loc 1 242 0
 350 00b8 214B     		ldr	r3, .L10+100
 351 00ba 4022     		mov	r2, #64
 352 00bc 1A60     		str	r2, [r3]
 243:.\Generated_Source\PSoC4/cyfitter_cfg.c **** 
 244:.\Generated_Source\PSoC4/cyfitter_cfg.c **** 	(void)CyIntSetVector(8u, &CySysWdtIsr);
 353              		.loc 1 244 0
 354 00be 214B     		ldr	r3, .L10+104
 355 00c0 0820     		mov	r0, #8
 356 00c2 191C     		mov	r1, r3
 357 00c4 FFF7FEFF 		bl	CyIntSetVector
 245:.\Generated_Source\PSoC4/cyfitter_cfg.c **** 	CyIntEnable(8u);
 358              		.loc 1 245 0
 359 00c8 0820     		mov	r0, #8
 360 00ca FFF7FEFF 		bl	CyIntEnable
 246:.\Generated_Source\PSoC4/cyfitter_cfg.c **** 	CY_SET_XTND_REG32((void CYFAR *)(CYREG_WDT_CONFIG), 0x40000000u);
 361              		.loc 1 246 0
 362 00ce 074B     		ldr	r3, .L10+16
 363 00d0 8022     		mov	r2, #128
 364 00d2 D205     		lsl	r2, r2, #23
 365 00d4 1A60     		str	r2, [r3]
 247:.\Generated_Source\PSoC4/cyfitter_cfg.c **** }
 366              		.loc 1 247 0
 367 00d6 BD46     		mov	sp, r7
 368              		@ sp needed
 369 00d8 80BD     		pop	{r7, pc}
 370              	.L11:
 371 00da C046     		.align	2
 372              	.L10:
 373 00dc 30001040 		.word	1074790448
 374 00e0 001BB700 		.word	12000000
 375 00e4 04010B40 		.word	1074462980
 376 00e8 06000080 		.word	-2147483642
 377 00ec 0C020B40 		.word	1074463244
ARM GAS  C:\Users\ilias\AppData\Local\Temp\ccCGZhd0.s 			page 12


 378 00f0 78002E40 		.word	1076756600
 379 00f4 7C002E40 		.word	1076756604
 380 00f8 2D3E0000 		.word	15917
 381 00fc 6CF02E40 		.word	1076818028
 382 0100 DC050000 		.word	1500
 383 0104 04030140 		.word	1073808132
 384 0108 00000140 		.word	1073807360
 385 010c 41FF0080 		.word	-2147418303
 386 0110 0C030140 		.word	1073808140
 387 0114 00DB0500 		.word	383744
 388 0118 43FF0080 		.word	-2147418301
 389 011c 08030140 		.word	1073808136
 390 0120 42FF0080 		.word	-2147418302
 391 0124 00030140 		.word	1073808128
 392 0128 40FF0080 		.word	-2147418304
 393 012c 08010B40 		.word	1074462984
 394 0130 00010B40 		.word	1074462976
 395 0134 2C010140 		.word	1073807660
 396 0138 1C010140 		.word	1073807644
 397 013c 08010140 		.word	1073807624
 398 0140 04010140 		.word	1073807620
 399 0144 00000000 		.word	CySysWdtIsr
 400              		.cfi_endproc
 401              	.LFE6:
 402              		.size	ClockSetup, .-ClockSetup
 403              		.section	.text.AnalogSetDefault,"ax",%progbits
 404              		.align	2
 405              		.code	16
 406              		.thumb_func
 407              		.type	AnalogSetDefault, %function
 408              	AnalogSetDefault:
 409              	.LFB7:
 248:.\Generated_Source\PSoC4/cyfitter_cfg.c **** 
 249:.\Generated_Source\PSoC4/cyfitter_cfg.c **** 
 250:.\Generated_Source\PSoC4/cyfitter_cfg.c **** /* Analog API Functions */
 251:.\Generated_Source\PSoC4/cyfitter_cfg.c **** 
 252:.\Generated_Source\PSoC4/cyfitter_cfg.c **** 
 253:.\Generated_Source\PSoC4/cyfitter_cfg.c **** /*******************************************************************************
 254:.\Generated_Source\PSoC4/cyfitter_cfg.c **** * Function Name: AnalogSetDefault
 255:.\Generated_Source\PSoC4/cyfitter_cfg.c **** ********************************************************************************
 256:.\Generated_Source\PSoC4/cyfitter_cfg.c **** *
 257:.\Generated_Source\PSoC4/cyfitter_cfg.c **** * Summary:
 258:.\Generated_Source\PSoC4/cyfitter_cfg.c **** *  Sets up the analog portions of the chip to default values based on chip
 259:.\Generated_Source\PSoC4/cyfitter_cfg.c **** *  configuration options from the project.
 260:.\Generated_Source\PSoC4/cyfitter_cfg.c **** *
 261:.\Generated_Source\PSoC4/cyfitter_cfg.c **** * Parameters:
 262:.\Generated_Source\PSoC4/cyfitter_cfg.c **** *  void
 263:.\Generated_Source\PSoC4/cyfitter_cfg.c **** *
 264:.\Generated_Source\PSoC4/cyfitter_cfg.c **** * Return:
 265:.\Generated_Source\PSoC4/cyfitter_cfg.c **** *  void
 266:.\Generated_Source\PSoC4/cyfitter_cfg.c **** *
 267:.\Generated_Source\PSoC4/cyfitter_cfg.c **** *******************************************************************************/
 268:.\Generated_Source\PSoC4/cyfitter_cfg.c **** static void AnalogSetDefault(void);
 269:.\Generated_Source\PSoC4/cyfitter_cfg.c **** static void AnalogSetDefault(void)
 270:.\Generated_Source\PSoC4/cyfitter_cfg.c **** {
 410              		.loc 1 270 0
 411              		.cfi_startproc
ARM GAS  C:\Users\ilias\AppData\Local\Temp\ccCGZhd0.s 			page 13


 412 0000 80B5     		push	{r7, lr}
 413              		.cfi_def_cfa_offset 8
 414              		.cfi_offset 7, -8
 415              		.cfi_offset 14, -4
 416 0002 00AF     		add	r7, sp, #0
 417              		.cfi_def_cfa_register 7
 271:.\Generated_Source\PSoC4/cyfitter_cfg.c **** 	CY_SET_XTND_REG32((void CYFAR *)CYREG_CTBM0_DFT_CTRL, 0x00000003u);
 418              		.loc 1 271 0
 419 0004 054B     		ldr	r3, .L13
 420 0006 0322     		mov	r2, #3
 421 0008 1A60     		str	r2, [r3]
 272:.\Generated_Source\PSoC4/cyfitter_cfg.c **** 	CY_SET_XTND_REG32((void CYFAR *)CYREG_CTBM1_DFT_CTRL, 0x00000003u);
 422              		.loc 1 272 0
 423 000a 054B     		ldr	r3, .L13+4
 424 000c 0322     		mov	r2, #3
 425 000e 1A60     		str	r2, [r3]
 273:.\Generated_Source\PSoC4/cyfitter_cfg.c **** 	CY_SET_XTND_REG32((void CYFAR *)CYREG_PASS_DSAB_DSAB_CTRL, 0x00000000u);
 426              		.loc 1 273 0
 427 0010 044B     		ldr	r3, .L13+8
 428 0012 0022     		mov	r2, #0
 429 0014 1A60     		str	r2, [r3]
 274:.\Generated_Source\PSoC4/cyfitter_cfg.c **** }
 430              		.loc 1 274 0
 431 0016 BD46     		mov	sp, r7
 432              		@ sp needed
 433 0018 80BD     		pop	{r7, pc}
 434              	.L14:
 435 001a C046     		.align	2
 436              	.L13:
 437 001c 30003040 		.word	1076887600
 438 0020 30003140 		.word	1076953136
 439 0024 000E3F40 		.word	1077874176
 440              		.cfi_endproc
 441              	.LFE7:
 442              		.size	AnalogSetDefault, .-AnalogSetDefault
 443              		.section	.psocinit
 444              		.align	2
 445              		.global	cyfitter_cfg
 446              		.code	16
 447              		.thumb_func
 448              		.type	cyfitter_cfg, %function
 449              	cyfitter_cfg:
 450              	.LFB8:
 275:.\Generated_Source\PSoC4/cyfitter_cfg.c **** 
 276:.\Generated_Source\PSoC4/cyfitter_cfg.c **** #define CY_AMUX_UNUSED CYREG_CM0_ROM_DWT
 277:.\Generated_Source\PSoC4/cyfitter_cfg.c **** 
 278:.\Generated_Source\PSoC4/cyfitter_cfg.c **** 
 279:.\Generated_Source\PSoC4/cyfitter_cfg.c **** /*******************************************************************************
 280:.\Generated_Source\PSoC4/cyfitter_cfg.c **** * Function Name: cyfitter_cfg
 281:.\Generated_Source\PSoC4/cyfitter_cfg.c **** ********************************************************************************
 282:.\Generated_Source\PSoC4/cyfitter_cfg.c **** * Summary:
 283:.\Generated_Source\PSoC4/cyfitter_cfg.c **** *  This function is called by the start-up code for the selected device. It
 284:.\Generated_Source\PSoC4/cyfitter_cfg.c **** *  performs all of the necessary device configuration based on the design
 285:.\Generated_Source\PSoC4/cyfitter_cfg.c **** *  settings.  This includes settings from the Design Wide Resources (DWR) such
 286:.\Generated_Source\PSoC4/cyfitter_cfg.c **** *  as Clocks and Pins as well as any component configuration that is necessary.
 287:.\Generated_Source\PSoC4/cyfitter_cfg.c **** *
 288:.\Generated_Source\PSoC4/cyfitter_cfg.c **** * Parameters:  
ARM GAS  C:\Users\ilias\AppData\Local\Temp\ccCGZhd0.s 			page 14


 289:.\Generated_Source\PSoC4/cyfitter_cfg.c **** *   void
 290:.\Generated_Source\PSoC4/cyfitter_cfg.c **** *
 291:.\Generated_Source\PSoC4/cyfitter_cfg.c **** * Return:
 292:.\Generated_Source\PSoC4/cyfitter_cfg.c **** *   void
 293:.\Generated_Source\PSoC4/cyfitter_cfg.c **** *
 294:.\Generated_Source\PSoC4/cyfitter_cfg.c **** *******************************************************************************/
 295:.\Generated_Source\PSoC4/cyfitter_cfg.c **** CY_CFG_SECTION
 296:.\Generated_Source\PSoC4/cyfitter_cfg.c **** void cyfitter_cfg(void)
 297:.\Generated_Source\PSoC4/cyfitter_cfg.c **** {
 451              		.loc 1 297 0
 452              		.cfi_startproc
 453 0148 80B5     		push	{r7, lr}
 454              		.cfi_def_cfa_offset 8
 455              		.cfi_offset 7, -8
 456              		.cfi_offset 14, -4
 457 014a 82B0     		sub	sp, sp, #8
 458              		.cfi_def_cfa_offset 16
 459 014c 00AF     		add	r7, sp, #0
 460              		.cfi_def_cfa_register 7
 298:.\Generated_Source\PSoC4/cyfitter_cfg.c **** 	/* Disable interrupts by default. Let user enable if/when they want. */
 299:.\Generated_Source\PSoC4/cyfitter_cfg.c **** 	CyGlobalIntDisable;
 461              		.loc 1 299 0
 462              	@ 299 ".\Generated_Source\PSoC4\cyfitter_cfg.c" 1
 463 014e 72B6     		CPSID   i
 464              	@ 0 "" 2
 300:.\Generated_Source\PSoC4/cyfitter_cfg.c **** 
 301:.\Generated_Source\PSoC4/cyfitter_cfg.c **** 	CY_SET_XTND_REG32((void CYFAR *)(CYREG_BLE_BLESS_LL_DSM_CTRL), 0x00000000u);
 465              		.loc 1 301 0
 466              		.code	16
 467 0150 474B     		ldr	r3, .L18
 468 0152 0022     		mov	r2, #0
 469 0154 1A60     		str	r2, [r3]
 470              	.LBB3:
 302:.\Generated_Source\PSoC4/cyfitter_cfg.c **** 
 303:.\Generated_Source\PSoC4/cyfitter_cfg.c **** 	{
 304:.\Generated_Source\PSoC4/cyfitter_cfg.c **** 		static const uint32 CYCODE cy_cfg_addr_table[] = {
 305:.\Generated_Source\PSoC4/cyfitter_cfg.c **** 			0x400F0001u, /* Base address: 0x400F0000 Count: 1 */
 306:.\Generated_Source\PSoC4/cyfitter_cfg.c **** 			0x400F3063u, /* Base address: 0x400F3000 Count: 99 */
 307:.\Generated_Source\PSoC4/cyfitter_cfg.c **** 			0x400F3136u, /* Base address: 0x400F3100 Count: 54 */
 308:.\Generated_Source\PSoC4/cyfitter_cfg.c **** 			0x400F3307u, /* Base address: 0x400F3300 Count: 7 */
 309:.\Generated_Source\PSoC4/cyfitter_cfg.c **** 			0x400F4006u, /* Base address: 0x400F4000 Count: 6 */
 310:.\Generated_Source\PSoC4/cyfitter_cfg.c **** 			0x400F4103u, /* Base address: 0x400F4100 Count: 3 */
 311:.\Generated_Source\PSoC4/cyfitter_cfg.c **** 			0x400F6002u, /* Base address: 0x400F6000 Count: 2 */
 312:.\Generated_Source\PSoC4/cyfitter_cfg.c **** 		};
 313:.\Generated_Source\PSoC4/cyfitter_cfg.c **** 
 314:.\Generated_Source\PSoC4/cyfitter_cfg.c **** 		static const cy_cfg_addrvalue_t CYCODE cy_cfg_data_table[] = {
 315:.\Generated_Source\PSoC4/cyfitter_cfg.c **** 			{0x80u, 0x7Fu},
 316:.\Generated_Source\PSoC4/cyfitter_cfg.c **** 			{0x00u, 0x08u},
 317:.\Generated_Source\PSoC4/cyfitter_cfg.c **** 			{0x02u, 0xC0u},
 318:.\Generated_Source\PSoC4/cyfitter_cfg.c **** 			{0x03u, 0x63u},
 319:.\Generated_Source\PSoC4/cyfitter_cfg.c **** 			{0x06u, 0x3Fu},
 320:.\Generated_Source\PSoC4/cyfitter_cfg.c **** 			{0x07u, 0x63u},
 321:.\Generated_Source\PSoC4/cyfitter_cfg.c **** 			{0x09u, 0x63u},
 322:.\Generated_Source\PSoC4/cyfitter_cfg.c **** 			{0x0Au, 0x40u},
 323:.\Generated_Source\PSoC4/cyfitter_cfg.c **** 			{0x0Cu, 0x80u},
 324:.\Generated_Source\PSoC4/cyfitter_cfg.c **** 			{0x0Eu, 0x40u},
 325:.\Generated_Source\PSoC4/cyfitter_cfg.c **** 			{0x10u, 0xFFu},
ARM GAS  C:\Users\ilias\AppData\Local\Temp\ccCGZhd0.s 			page 15


 326:.\Generated_Source\PSoC4/cyfitter_cfg.c **** 			{0x11u, 0x60u},
 327:.\Generated_Source\PSoC4/cyfitter_cfg.c **** 			{0x13u, 0x90u},
 328:.\Generated_Source\PSoC4/cyfitter_cfg.c **** 			{0x14u, 0x01u},
 329:.\Generated_Source\PSoC4/cyfitter_cfg.c **** 			{0x15u, 0xE8u},
 330:.\Generated_Source\PSoC4/cyfitter_cfg.c **** 			{0x16u, 0xC0u},
 331:.\Generated_Source\PSoC4/cyfitter_cfg.c **** 			{0x17u, 0x04u},
 332:.\Generated_Source\PSoC4/cyfitter_cfg.c **** 			{0x18u, 0x02u},
 333:.\Generated_Source\PSoC4/cyfitter_cfg.c **** 			{0x1Au, 0xC0u},
 334:.\Generated_Source\PSoC4/cyfitter_cfg.c **** 			{0x1Cu, 0x04u},
 335:.\Generated_Source\PSoC4/cyfitter_cfg.c **** 			{0x1Du, 0x67u},
 336:.\Generated_Source\PSoC4/cyfitter_cfg.c **** 			{0x1Eu, 0xC0u},
 337:.\Generated_Source\PSoC4/cyfitter_cfg.c **** 			{0x1Fu, 0x88u},
 338:.\Generated_Source\PSoC4/cyfitter_cfg.c **** 			{0x23u, 0xFFu},
 339:.\Generated_Source\PSoC4/cyfitter_cfg.c **** 			{0x24u, 0x10u},
 340:.\Generated_Source\PSoC4/cyfitter_cfg.c **** 			{0x25u, 0x21u},
 341:.\Generated_Source\PSoC4/cyfitter_cfg.c **** 			{0x26u, 0xC0u},
 342:.\Generated_Source\PSoC4/cyfitter_cfg.c **** 			{0x27u, 0x42u},
 343:.\Generated_Source\PSoC4/cyfitter_cfg.c **** 			{0x28u, 0xC0u},
 344:.\Generated_Source\PSoC4/cyfitter_cfg.c **** 			{0x2Au, 0x20u},
 345:.\Generated_Source\PSoC4/cyfitter_cfg.c **** 			{0x2Du, 0x42u},
 346:.\Generated_Source\PSoC4/cyfitter_cfg.c **** 			{0x2Eu, 0xBFu},
 347:.\Generated_Source\PSoC4/cyfitter_cfg.c **** 			{0x2Fu, 0x21u},
 348:.\Generated_Source\PSoC4/cyfitter_cfg.c **** 			{0x30u, 0xFFu},
 349:.\Generated_Source\PSoC4/cyfitter_cfg.c **** 			{0x31u, 0x1Fu},
 350:.\Generated_Source\PSoC4/cyfitter_cfg.c **** 			{0x33u, 0xE0u},
 351:.\Generated_Source\PSoC4/cyfitter_cfg.c **** 			{0x37u, 0x80u},
 352:.\Generated_Source\PSoC4/cyfitter_cfg.c **** 			{0x39u, 0x02u},
 353:.\Generated_Source\PSoC4/cyfitter_cfg.c **** 			{0x56u, 0x02u},
 354:.\Generated_Source\PSoC4/cyfitter_cfg.c **** 			{0x57u, 0x24u},
 355:.\Generated_Source\PSoC4/cyfitter_cfg.c **** 			{0x58u, 0x04u},
 356:.\Generated_Source\PSoC4/cyfitter_cfg.c **** 			{0x59u, 0x04u},
 357:.\Generated_Source\PSoC4/cyfitter_cfg.c **** 			{0x5Bu, 0x04u},
 358:.\Generated_Source\PSoC4/cyfitter_cfg.c **** 			{0x5Fu, 0x01u},
 359:.\Generated_Source\PSoC4/cyfitter_cfg.c **** 			{0x82u, 0x20u},
 360:.\Generated_Source\PSoC4/cyfitter_cfg.c **** 			{0x84u, 0x08u},
 361:.\Generated_Source\PSoC4/cyfitter_cfg.c **** 			{0x86u, 0x10u},
 362:.\Generated_Source\PSoC4/cyfitter_cfg.c **** 			{0x8Au, 0x40u},
 363:.\Generated_Source\PSoC4/cyfitter_cfg.c **** 			{0x8Eu, 0x08u},
 364:.\Generated_Source\PSoC4/cyfitter_cfg.c **** 			{0x90u, 0x10u},
 365:.\Generated_Source\PSoC4/cyfitter_cfg.c **** 			{0x92u, 0x08u},
 366:.\Generated_Source\PSoC4/cyfitter_cfg.c **** 			{0x96u, 0x05u},
 367:.\Generated_Source\PSoC4/cyfitter_cfg.c **** 			{0x99u, 0x01u},
 368:.\Generated_Source\PSoC4/cyfitter_cfg.c **** 			{0x9Au, 0x05u},
 369:.\Generated_Source\PSoC4/cyfitter_cfg.c **** 			{0x9Eu, 0x02u},
 370:.\Generated_Source\PSoC4/cyfitter_cfg.c **** 			{0xA0u, 0x20u},
 371:.\Generated_Source\PSoC4/cyfitter_cfg.c **** 			{0xA2u, 0x40u},
 372:.\Generated_Source\PSoC4/cyfitter_cfg.c **** 			{0xA5u, 0x02u},
 373:.\Generated_Source\PSoC4/cyfitter_cfg.c **** 			{0xA6u, 0x03u},
 374:.\Generated_Source\PSoC4/cyfitter_cfg.c **** 			{0xA9u, 0x01u},
 375:.\Generated_Source\PSoC4/cyfitter_cfg.c **** 			{0xB0u, 0x04u},
 376:.\Generated_Source\PSoC4/cyfitter_cfg.c **** 			{0xB2u, 0x18u},
 377:.\Generated_Source\PSoC4/cyfitter_cfg.c **** 			{0xB3u, 0x02u},
 378:.\Generated_Source\PSoC4/cyfitter_cfg.c **** 			{0xB4u, 0x60u},
 379:.\Generated_Source\PSoC4/cyfitter_cfg.c **** 			{0xB6u, 0x03u},
 380:.\Generated_Source\PSoC4/cyfitter_cfg.c **** 			{0xB7u, 0x01u},
 381:.\Generated_Source\PSoC4/cyfitter_cfg.c **** 			{0xBEu, 0x01u},
 382:.\Generated_Source\PSoC4/cyfitter_cfg.c **** 			{0xC0u, 0x65u},
ARM GAS  C:\Users\ilias\AppData\Local\Temp\ccCGZhd0.s 			page 16


 383:.\Generated_Source\PSoC4/cyfitter_cfg.c **** 			{0xC1u, 0x04u},
 384:.\Generated_Source\PSoC4/cyfitter_cfg.c **** 			{0xC2u, 0x03u},
 385:.\Generated_Source\PSoC4/cyfitter_cfg.c **** 			{0xC4u, 0x02u},
 386:.\Generated_Source\PSoC4/cyfitter_cfg.c **** 			{0xC5u, 0x0Cu},
 387:.\Generated_Source\PSoC4/cyfitter_cfg.c **** 			{0xC6u, 0x0Eu},
 388:.\Generated_Source\PSoC4/cyfitter_cfg.c **** 			{0xC8u, 0x05u},
 389:.\Generated_Source\PSoC4/cyfitter_cfg.c **** 			{0xC9u, 0xFFu},
 390:.\Generated_Source\PSoC4/cyfitter_cfg.c **** 			{0xCAu, 0xFFu},
 391:.\Generated_Source\PSoC4/cyfitter_cfg.c **** 			{0xCBu, 0xFFu},
 392:.\Generated_Source\PSoC4/cyfitter_cfg.c **** 			{0xCCu, 0x02u},
 393:.\Generated_Source\PSoC4/cyfitter_cfg.c **** 			{0xCDu, 0x20u},
 394:.\Generated_Source\PSoC4/cyfitter_cfg.c **** 			{0xCFu, 0x05u},
 395:.\Generated_Source\PSoC4/cyfitter_cfg.c **** 			{0xD0u, 0x04u},
 396:.\Generated_Source\PSoC4/cyfitter_cfg.c **** 			{0xD2u, 0x06u},
 397:.\Generated_Source\PSoC4/cyfitter_cfg.c **** 			{0xD4u, 0x01u},
 398:.\Generated_Source\PSoC4/cyfitter_cfg.c **** 			{0xD8u, 0x04u},
 399:.\Generated_Source\PSoC4/cyfitter_cfg.c **** 			{0xD9u, 0x04u},
 400:.\Generated_Source\PSoC4/cyfitter_cfg.c **** 			{0xDAu, 0x04u},
 401:.\Generated_Source\PSoC4/cyfitter_cfg.c **** 			{0xDBu, 0x04u},
 402:.\Generated_Source\PSoC4/cyfitter_cfg.c **** 			{0xDFu, 0x01u},
 403:.\Generated_Source\PSoC4/cyfitter_cfg.c **** 			{0xE2u, 0x40u},
 404:.\Generated_Source\PSoC4/cyfitter_cfg.c **** 			{0xE3u, 0x01u},
 405:.\Generated_Source\PSoC4/cyfitter_cfg.c **** 			{0xE4u, 0x40u},
 406:.\Generated_Source\PSoC4/cyfitter_cfg.c **** 			{0xE5u, 0x01u},
 407:.\Generated_Source\PSoC4/cyfitter_cfg.c **** 			{0xE6u, 0x50u},
 408:.\Generated_Source\PSoC4/cyfitter_cfg.c **** 			{0xE7u, 0x01u},
 409:.\Generated_Source\PSoC4/cyfitter_cfg.c **** 			{0xE8u, 0x40u},
 410:.\Generated_Source\PSoC4/cyfitter_cfg.c **** 			{0xE9u, 0x01u},
 411:.\Generated_Source\PSoC4/cyfitter_cfg.c **** 			{0xEAu, 0x70u},
 412:.\Generated_Source\PSoC4/cyfitter_cfg.c **** 			{0xEBu, 0x10u},
 413:.\Generated_Source\PSoC4/cyfitter_cfg.c **** 			{0xECu, 0x40u},
 414:.\Generated_Source\PSoC4/cyfitter_cfg.c **** 			{0xEDu, 0x10u},
 415:.\Generated_Source\PSoC4/cyfitter_cfg.c **** 			{0x01u, 0x01u},
 416:.\Generated_Source\PSoC4/cyfitter_cfg.c **** 			{0x03u, 0x25u},
 417:.\Generated_Source\PSoC4/cyfitter_cfg.c **** 			{0x04u, 0x01u},
 418:.\Generated_Source\PSoC4/cyfitter_cfg.c **** 			{0x05u, 0x10u},
 419:.\Generated_Source\PSoC4/cyfitter_cfg.c **** 			{0x07u, 0x22u},
 420:.\Generated_Source\PSoC4/cyfitter_cfg.c **** 			{0x0Au, 0x11u},
 421:.\Generated_Source\PSoC4/cyfitter_cfg.c **** 			{0x0Bu, 0x84u},
 422:.\Generated_Source\PSoC4/cyfitter_cfg.c **** 			{0x0Eu, 0x22u},
 423:.\Generated_Source\PSoC4/cyfitter_cfg.c **** 			{0x0Fu, 0x48u},
 424:.\Generated_Source\PSoC4/cyfitter_cfg.c **** 			{0x11u, 0x14u},
 425:.\Generated_Source\PSoC4/cyfitter_cfg.c **** 			{0x12u, 0x01u},
 426:.\Generated_Source\PSoC4/cyfitter_cfg.c **** 			{0x17u, 0x05u},
 427:.\Generated_Source\PSoC4/cyfitter_cfg.c **** 			{0x19u, 0x01u},
 428:.\Generated_Source\PSoC4/cyfitter_cfg.c **** 			{0x1Du, 0x38u},
 429:.\Generated_Source\PSoC4/cyfitter_cfg.c **** 			{0x1Eu, 0xA2u},
 430:.\Generated_Source\PSoC4/cyfitter_cfg.c **** 			{0x1Fu, 0x40u},
 431:.\Generated_Source\PSoC4/cyfitter_cfg.c **** 			{0x22u, 0x49u},
 432:.\Generated_Source\PSoC4/cyfitter_cfg.c **** 			{0x23u, 0x62u},
 433:.\Generated_Source\PSoC4/cyfitter_cfg.c **** 			{0x26u, 0x80u},
 434:.\Generated_Source\PSoC4/cyfitter_cfg.c **** 			{0x27u, 0x10u},
 435:.\Generated_Source\PSoC4/cyfitter_cfg.c **** 			{0x29u, 0x41u},
 436:.\Generated_Source\PSoC4/cyfitter_cfg.c **** 			{0x2Au, 0x09u},
 437:.\Generated_Source\PSoC4/cyfitter_cfg.c **** 			{0x2Eu, 0x10u},
 438:.\Generated_Source\PSoC4/cyfitter_cfg.c **** 			{0x2Fu, 0x20u},
 439:.\Generated_Source\PSoC4/cyfitter_cfg.c **** 			{0x32u, 0x49u},
ARM GAS  C:\Users\ilias\AppData\Local\Temp\ccCGZhd0.s 			page 17


 440:.\Generated_Source\PSoC4/cyfitter_cfg.c **** 			{0x37u, 0x10u},
 441:.\Generated_Source\PSoC4/cyfitter_cfg.c **** 			{0x39u, 0x15u},
 442:.\Generated_Source\PSoC4/cyfitter_cfg.c **** 			{0x45u, 0x28u},
 443:.\Generated_Source\PSoC4/cyfitter_cfg.c **** 			{0x47u, 0x02u},
 444:.\Generated_Source\PSoC4/cyfitter_cfg.c **** 			{0x4Eu, 0x08u},
 445:.\Generated_Source\PSoC4/cyfitter_cfg.c **** 			{0x4Fu, 0x48u},
 446:.\Generated_Source\PSoC4/cyfitter_cfg.c **** 			{0x57u, 0x80u},
 447:.\Generated_Source\PSoC4/cyfitter_cfg.c **** 			{0x58u, 0x08u},
 448:.\Generated_Source\PSoC4/cyfitter_cfg.c **** 			{0x5Au, 0x04u},
 449:.\Generated_Source\PSoC4/cyfitter_cfg.c **** 			{0x5Cu, 0x20u},
 450:.\Generated_Source\PSoC4/cyfitter_cfg.c **** 			{0x5Eu, 0x80u},
 451:.\Generated_Source\PSoC4/cyfitter_cfg.c **** 			{0x60u, 0x08u},
 452:.\Generated_Source\PSoC4/cyfitter_cfg.c **** 			{0x69u, 0x15u},
 453:.\Generated_Source\PSoC4/cyfitter_cfg.c **** 			{0x6Bu, 0x01u},
 454:.\Generated_Source\PSoC4/cyfitter_cfg.c **** 			{0x6Eu, 0x04u},
 455:.\Generated_Source\PSoC4/cyfitter_cfg.c **** 			{0x6Fu, 0x24u},
 456:.\Generated_Source\PSoC4/cyfitter_cfg.c **** 			{0x71u, 0x40u},
 457:.\Generated_Source\PSoC4/cyfitter_cfg.c **** 			{0x72u, 0x19u},
 458:.\Generated_Source\PSoC4/cyfitter_cfg.c **** 			{0x73u, 0x04u},
 459:.\Generated_Source\PSoC4/cyfitter_cfg.c **** 			{0xC0u, 0xFFu},
 460:.\Generated_Source\PSoC4/cyfitter_cfg.c **** 			{0xC2u, 0xFFu},
 461:.\Generated_Source\PSoC4/cyfitter_cfg.c **** 			{0xC4u, 0x37u},
 462:.\Generated_Source\PSoC4/cyfitter_cfg.c **** 			{0xCAu, 0x6Bu},
 463:.\Generated_Source\PSoC4/cyfitter_cfg.c **** 			{0xCCu, 0x2Bu},
 464:.\Generated_Source\PSoC4/cyfitter_cfg.c **** 			{0xCEu, 0x07u},
 465:.\Generated_Source\PSoC4/cyfitter_cfg.c **** 			{0xD0u, 0xE0u},
 466:.\Generated_Source\PSoC4/cyfitter_cfg.c **** 			{0xD2u, 0x30u},
 467:.\Generated_Source\PSoC4/cyfitter_cfg.c **** 			{0xD6u, 0x30u},
 468:.\Generated_Source\PSoC4/cyfitter_cfg.c **** 			{0xD8u, 0x04u},
 469:.\Generated_Source\PSoC4/cyfitter_cfg.c **** 			{0xA8u, 0x20u},
 470:.\Generated_Source\PSoC4/cyfitter_cfg.c **** 			{0xABu, 0x80u},
 471:.\Generated_Source\PSoC4/cyfitter_cfg.c **** 			{0xAFu, 0x01u},
 472:.\Generated_Source\PSoC4/cyfitter_cfg.c **** 			{0xB4u, 0x01u},
 473:.\Generated_Source\PSoC4/cyfitter_cfg.c **** 			{0xB6u, 0x80u},
 474:.\Generated_Source\PSoC4/cyfitter_cfg.c **** 			{0xEAu, 0x40u},
 475:.\Generated_Source\PSoC4/cyfitter_cfg.c **** 			{0xECu, 0x10u},
 476:.\Generated_Source\PSoC4/cyfitter_cfg.c **** 			{0x02u, 0x04u},
 477:.\Generated_Source\PSoC4/cyfitter_cfg.c **** 			{0x52u, 0x10u},
 478:.\Generated_Source\PSoC4/cyfitter_cfg.c **** 			{0x56u, 0x02u},
 479:.\Generated_Source\PSoC4/cyfitter_cfg.c **** 			{0xC0u, 0x40u},
 480:.\Generated_Source\PSoC4/cyfitter_cfg.c **** 			{0xD4u, 0x20u},
 481:.\Generated_Source\PSoC4/cyfitter_cfg.c **** 			{0xD6u, 0x20u},
 482:.\Generated_Source\PSoC4/cyfitter_cfg.c **** 			{0xAEu, 0x10u},
 483:.\Generated_Source\PSoC4/cyfitter_cfg.c **** 			{0xB6u, 0x06u},
 484:.\Generated_Source\PSoC4/cyfitter_cfg.c **** 			{0xEAu, 0x40u},
 485:.\Generated_Source\PSoC4/cyfitter_cfg.c **** 			{0x01u, 0x01u},
 486:.\Generated_Source\PSoC4/cyfitter_cfg.c **** 			{0x10u, 0x01u},
 487:.\Generated_Source\PSoC4/cyfitter_cfg.c **** 		};
 488:.\Generated_Source\PSoC4/cyfitter_cfg.c **** 
 489:.\Generated_Source\PSoC4/cyfitter_cfg.c **** 
 490:.\Generated_Source\PSoC4/cyfitter_cfg.c **** 
 491:.\Generated_Source\PSoC4/cyfitter_cfg.c **** 		CYPACKED typedef struct {
 492:.\Generated_Source\PSoC4/cyfitter_cfg.c **** 			void CYFAR *address;
 493:.\Generated_Source\PSoC4/cyfitter_cfg.c **** 			uint16 size;
 494:.\Generated_Source\PSoC4/cyfitter_cfg.c **** 		} CYPACKED_ATTR cfg_memset_t;
 495:.\Generated_Source\PSoC4/cyfitter_cfg.c **** 
 496:.\Generated_Source\PSoC4/cyfitter_cfg.c **** 		static const cfg_memset_t CYCODE cfg_memset_list [] = {
ARM GAS  C:\Users\ilias\AppData\Local\Temp\ccCGZhd0.s 			page 18


 497:.\Generated_Source\PSoC4/cyfitter_cfg.c **** 			/* address, size */
 498:.\Generated_Source\PSoC4/cyfitter_cfg.c **** 			{(void CYFAR *)(CYDEV_UDB_P0_U0_BASE), 1024u},
 499:.\Generated_Source\PSoC4/cyfitter_cfg.c **** 			{(void CYFAR *)(CYDEV_UDB_DSI0_BASE), 1024u},
 500:.\Generated_Source\PSoC4/cyfitter_cfg.c **** 		};
 501:.\Generated_Source\PSoC4/cyfitter_cfg.c **** 
 502:.\Generated_Source\PSoC4/cyfitter_cfg.c **** 		uint8 CYDATA i;
 503:.\Generated_Source\PSoC4/cyfitter_cfg.c **** 
 504:.\Generated_Source\PSoC4/cyfitter_cfg.c **** 		/* Zero out critical memory blocks before beginning configuration */
 505:.\Generated_Source\PSoC4/cyfitter_cfg.c **** 		for (i = 0u; i < (sizeof(cfg_memset_list)/sizeof(cfg_memset_list[0])); i++)
 471              		.loc 1 505 0
 472 0156 FB1D     		add	r3, r7, #7
 473 0158 0022     		mov	r2, #0
 474 015a 1A70     		strb	r2, [r3]
 475 015c 23E0     		b	.L16
 476              	.L17:
 477              	.LBB4:
 506:.\Generated_Source\PSoC4/cyfitter_cfg.c **** 		{
 507:.\Generated_Source\PSoC4/cyfitter_cfg.c **** 			const cfg_memset_t CYCODE * CYDATA ms = &cfg_memset_list[i];
 478              		.loc 1 507 0 discriminator 3
 479 015e FB1D     		add	r3, r7, #7
 480 0160 1A78     		ldrb	r2, [r3]
 481 0162 131C     		mov	r3, r2
 482 0164 5B00     		lsl	r3, r3, #1
 483 0166 9B18     		add	r3, r3, r2
 484 0168 5B00     		lsl	r3, r3, #1
 485 016a 424A     		ldr	r2, .L18+4
 486 016c 9B18     		add	r3, r3, r2
 487 016e 3B60     		str	r3, [r7]
 508:.\Generated_Source\PSoC4/cyfitter_cfg.c **** 			CYMEMZERO(ms->address, (size_t)(uint32)(ms->size));
 488              		.loc 1 508 0 discriminator 3
 489 0170 3B68     		ldr	r3, [r7]
 490 0172 1A78     		ldrb	r2, [r3]
 491 0174 5978     		ldrb	r1, [r3, #1]
 492 0176 0902     		lsl	r1, r1, #8
 493 0178 0A43     		orr	r2, r1
 494 017a 9978     		ldrb	r1, [r3, #2]
 495 017c 0904     		lsl	r1, r1, #16
 496 017e 0A43     		orr	r2, r1
 497 0180 DB78     		ldrb	r3, [r3, #3]
 498 0182 1B06     		lsl	r3, r3, #24
 499 0184 1343     		orr	r3, r2
 500 0186 191C     		mov	r1, r3
 501 0188 3B68     		ldr	r3, [r7]
 502 018a 1A79     		ldrb	r2, [r3, #4]
 503 018c 5B79     		ldrb	r3, [r3, #5]
 504 018e 1B02     		lsl	r3, r3, #8
 505 0190 1343     		orr	r3, r2
 506 0192 9BB2     		uxth	r3, r3
 507 0194 081C     		mov	r0, r1
 508 0196 191C     		mov	r1, r3
 509 0198 FFF7FEFF 		bl	CYMEMZERO
 510              	.LBE4:
 505:.\Generated_Source\PSoC4/cyfitter_cfg.c **** 		{
 511              		.loc 1 505 0 discriminator 3
 512 019c FB1D     		add	r3, r7, #7
 513 019e 1A78     		ldrb	r2, [r3]
 514 01a0 FB1D     		add	r3, r7, #7
ARM GAS  C:\Users\ilias\AppData\Local\Temp\ccCGZhd0.s 			page 19


 515 01a2 0132     		add	r2, r2, #1
 516 01a4 1A70     		strb	r2, [r3]
 517              	.L16:
 505:.\Generated_Source\PSoC4/cyfitter_cfg.c **** 		{
 518              		.loc 1 505 0 is_stmt 0 discriminator 1
 519 01a6 FB1D     		add	r3, r7, #7
 520 01a8 1B78     		ldrb	r3, [r3]
 521 01aa 012B     		cmp	r3, #1
 522 01ac D7D9     		bls	.L17
 509:.\Generated_Source\PSoC4/cyfitter_cfg.c **** 		}
 510:.\Generated_Source\PSoC4/cyfitter_cfg.c **** 
 511:.\Generated_Source\PSoC4/cyfitter_cfg.c **** 		cfg_write_bytes32(cy_cfg_addr_table, cy_cfg_data_table);
 523              		.loc 1 511 0 is_stmt 1
 524 01ae 324A     		ldr	r2, .L18+8
 525 01b0 324B     		ldr	r3, .L18+12
 526 01b2 101C     		mov	r0, r2
 527 01b4 191C     		mov	r1, r3
 528 01b6 FFF7FEFF 		bl	cfg_write_bytes32
 512:.\Generated_Source\PSoC4/cyfitter_cfg.c **** 
 513:.\Generated_Source\PSoC4/cyfitter_cfg.c **** 		/* HSIOM Starting address: CYDEV_HSIOM_BASE */
 514:.\Generated_Source\PSoC4/cyfitter_cfg.c **** 		CY_SET_XTND_REG32((void CYFAR *)(CYDEV_HSIOM_BASE), 0xEEFF3039u);
 529              		.loc 1 514 0
 530 01ba 314B     		ldr	r3, .L18+16
 531 01bc 314A     		ldr	r2, .L18+20
 532 01be 1A60     		str	r2, [r3]
 515:.\Generated_Source\PSoC4/cyfitter_cfg.c **** 		CY_SET_XTND_REG32((void CYFAR *)(CYREG_HSIOM_PORT_SEL1), 0xFF000000u);
 533              		.loc 1 515 0
 534 01c0 314B     		ldr	r3, .L18+24
 535 01c2 FF22     		mov	r2, #255
 536 01c4 1206     		lsl	r2, r2, #24
 537 01c6 1A60     		str	r2, [r3]
 516:.\Generated_Source\PSoC4/cyfitter_cfg.c **** 
 517:.\Generated_Source\PSoC4/cyfitter_cfg.c **** 		/* UDB_PA_0 Starting address: CYDEV_UDB_PA0_BASE */
 518:.\Generated_Source\PSoC4/cyfitter_cfg.c **** 		CY_SET_XTND_REG32((void CYFAR *)(CYDEV_UDB_PA0_BASE), 0x00990000u);
 538              		.loc 1 518 0
 539 01c8 304B     		ldr	r3, .L18+28
 540 01ca 9922     		mov	r2, #153
 541 01cc 1204     		lsl	r2, r2, #16
 542 01ce 1A60     		str	r2, [r3]
 519:.\Generated_Source\PSoC4/cyfitter_cfg.c **** 		CY_SET_XTND_REG32((void CYFAR *)(CYREG_UDB_PA0_CFG8), 0x001D0000u);
 543              		.loc 1 519 0
 544 01d0 2F4B     		ldr	r3, .L18+32
 545 01d2 E822     		mov	r2, #232
 546 01d4 5203     		lsl	r2, r2, #13
 547 01d6 1A60     		str	r2, [r3]
 520:.\Generated_Source\PSoC4/cyfitter_cfg.c **** 
 521:.\Generated_Source\PSoC4/cyfitter_cfg.c **** 		/* UDB_PA_1 Starting address: CYDEV_UDB_PA1_BASE */
 522:.\Generated_Source\PSoC4/cyfitter_cfg.c **** 		CY_SET_XTND_REG32((void CYFAR *)(CYDEV_UDB_PA1_BASE), 0x00990000u);
 548              		.loc 1 522 0
 549 01d8 2E4B     		ldr	r3, .L18+36
 550 01da 9922     		mov	r2, #153
 551 01dc 1204     		lsl	r2, r2, #16
 552 01de 1A60     		str	r2, [r3]
 523:.\Generated_Source\PSoC4/cyfitter_cfg.c **** 
 524:.\Generated_Source\PSoC4/cyfitter_cfg.c **** 		/* UDB_PA_2 Starting address: CYDEV_UDB_PA2_BASE */
 525:.\Generated_Source\PSoC4/cyfitter_cfg.c **** 		CY_SET_XTND_REG32((void CYFAR *)(CYDEV_UDB_PA2_BASE), 0x00990000u);
 553              		.loc 1 525 0
ARM GAS  C:\Users\ilias\AppData\Local\Temp\ccCGZhd0.s 			page 20


 554 01e0 2D4B     		ldr	r3, .L18+40
 555 01e2 9922     		mov	r2, #153
 556 01e4 1204     		lsl	r2, r2, #16
 557 01e6 1A60     		str	r2, [r3]
 526:.\Generated_Source\PSoC4/cyfitter_cfg.c **** 
 527:.\Generated_Source\PSoC4/cyfitter_cfg.c **** 		/* UDB_PA_3 Starting address: CYDEV_UDB_PA3_BASE */
 528:.\Generated_Source\PSoC4/cyfitter_cfg.c **** 		CY_SET_XTND_REG32((void CYFAR *)(CYDEV_UDB_PA3_BASE), 0x00990000u);
 558              		.loc 1 528 0
 559 01e8 2C4B     		ldr	r3, .L18+44
 560 01ea 9922     		mov	r2, #153
 561 01ec 1204     		lsl	r2, r2, #16
 562 01ee 1A60     		str	r2, [r3]
 529:.\Generated_Source\PSoC4/cyfitter_cfg.c **** 
 530:.\Generated_Source\PSoC4/cyfitter_cfg.c **** 		/* Enable digital routing */
 531:.\Generated_Source\PSoC4/cyfitter_cfg.c **** 		CY_SET_XTND_REG8((void *)CYREG_UDB_UDBIF_BANK_CTL, CY_GET_XTND_REG8((void *)CYREG_UDB_UDBIF_BANK_
 563              		.loc 1 531 0
 564 01f0 2B4A     		ldr	r2, .L18+48
 565 01f2 2B4B     		ldr	r3, .L18+48
 566 01f4 1B78     		ldrb	r3, [r3]
 567 01f6 DBB2     		uxtb	r3, r3
 568 01f8 0221     		mov	r1, #2
 569 01fa 0B43     		orr	r3, r1
 570 01fc DBB2     		uxtb	r3, r3
 571 01fe 1370     		strb	r3, [r2]
 532:.\Generated_Source\PSoC4/cyfitter_cfg.c **** 
 533:.\Generated_Source\PSoC4/cyfitter_cfg.c **** 		/* Enable UDB array */
 534:.\Generated_Source\PSoC4/cyfitter_cfg.c **** 		CY_SET_XTND_REG8((void *)CYREG_UDB_UDBIF_WAIT_CFG, (uint8)((CY_GET_XTND_REG8((void *)CYREG_UDB_UD
 572              		.loc 1 534 0
 573 0200 284A     		ldr	r2, .L18+52
 574 0202 284B     		ldr	r3, .L18+52
 575 0204 1B78     		ldrb	r3, [r3]
 576 0206 DBB2     		uxtb	r3, r3
 577 0208 3C21     		mov	r1, #60
 578 020a 8B43     		bic	r3, r1
 579 020c DBB2     		uxtb	r3, r3
 580 020e 1421     		mov	r1, #20
 581 0210 0B43     		orr	r3, r1
 582 0212 DBB2     		uxtb	r3, r3
 583 0214 1370     		strb	r3, [r2]
 535:.\Generated_Source\PSoC4/cyfitter_cfg.c **** 		CY_SET_XTND_REG8((void *)CYREG_UDB_UDBIF_BANK_CTL, (uint8)(CY_GET_XTND_REG8((void *)CYREG_UDB_UDB
 584              		.loc 1 535 0
 585 0216 224A     		ldr	r2, .L18+48
 586 0218 214B     		ldr	r3, .L18+48
 587 021a 1B78     		ldrb	r3, [r3]
 588 021c DBB2     		uxtb	r3, r3
 589 021e 1621     		mov	r1, #22
 590 0220 0B43     		orr	r3, r1
 591 0222 DBB2     		uxtb	r3, r3
 592 0224 1370     		strb	r3, [r2]
 593              	.LBE3:
 536:.\Generated_Source\PSoC4/cyfitter_cfg.c **** 	}
 537:.\Generated_Source\PSoC4/cyfitter_cfg.c **** 
 538:.\Generated_Source\PSoC4/cyfitter_cfg.c **** 	/* Perform second pass device configuration. These items must be configured in specific order afte
 539:.\Generated_Source\PSoC4/cyfitter_cfg.c **** 	/* IOPINS0_0 Starting address: CYDEV_GPIO_PRT0_BASE */
 540:.\Generated_Source\PSoC4/cyfitter_cfg.c **** 	CY_SET_XTND_REG32((void CYFAR *)(CYDEV_GPIO_PRT0_BASE), 0x0000001Au);
 594              		.loc 1 540 0
 595 0226 204B     		ldr	r3, .L18+56
ARM GAS  C:\Users\ilias\AppData\Local\Temp\ccCGZhd0.s 			page 21


 596 0228 1A22     		mov	r2, #26
 597 022a 1A60     		str	r2, [r3]
 541:.\Generated_Source\PSoC4/cyfitter_cfg.c **** 	CY_SET_XTND_REG32((void CYFAR *)(CYREG_GPIO_PRT0_PC), 0x00D8EC71u);
 598              		.loc 1 541 0
 599 022c 1F4B     		ldr	r3, .L18+60
 600 022e 204A     		ldr	r2, .L18+64
 601 0230 1A60     		str	r2, [r3]
 542:.\Generated_Source\PSoC4/cyfitter_cfg.c **** 	CY_SET_XTND_REG32((void CYFAR *)(CYREG_GPIO_PRT0_PC2), 0x00000010u);
 602              		.loc 1 542 0
 603 0232 204B     		ldr	r3, .L18+68
 604 0234 1022     		mov	r2, #16
 605 0236 1A60     		str	r2, [r3]
 543:.\Generated_Source\PSoC4/cyfitter_cfg.c **** 
 544:.\Generated_Source\PSoC4/cyfitter_cfg.c **** 	/* IOPINS0_1 Starting address: CYDEV_GPIO_PRT1_BASE */
 545:.\Generated_Source\PSoC4/cyfitter_cfg.c **** 	CY_SET_XTND_REG32((void CYFAR *)(CYDEV_GPIO_PRT1_BASE), 0x000000FFu);
 606              		.loc 1 545 0
 607 0238 1F4B     		ldr	r3, .L18+72
 608 023a FF22     		mov	r2, #255
 609 023c 1A60     		str	r2, [r3]
 546:.\Generated_Source\PSoC4/cyfitter_cfg.c **** 	CY_SET_XTND_REG32((void CYFAR *)(CYREG_GPIO_PRT1_PC), 0x00DA4492u);
 610              		.loc 1 546 0
 611 023e 1F4B     		ldr	r3, .L18+76
 612 0240 1F4A     		ldr	r2, .L18+80
 613 0242 1A60     		str	r2, [r3]
 547:.\Generated_Source\PSoC4/cyfitter_cfg.c **** 	CY_SET_XTND_REG32((void CYFAR *)(CYREG_GPIO_PRT1_PC2), 0x000000C0u);
 614              		.loc 1 547 0
 615 0244 1F4B     		ldr	r3, .L18+84
 616 0246 C022     		mov	r2, #192
 617 0248 1A60     		str	r2, [r3]
 548:.\Generated_Source\PSoC4/cyfitter_cfg.c **** 
 549:.\Generated_Source\PSoC4/cyfitter_cfg.c **** 	/* IOPINS0_2 Starting address: CYDEV_GPIO_PRT2_BASE */
 550:.\Generated_Source\PSoC4/cyfitter_cfg.c **** 	CY_SET_XTND_REG32((void CYFAR *)(CYDEV_GPIO_PRT2_BASE), 0x00000001u);
 618              		.loc 1 550 0
 619 024a 1F4B     		ldr	r3, .L18+88
 620 024c 0122     		mov	r2, #1
 621 024e 1A60     		str	r2, [r3]
 551:.\Generated_Source\PSoC4/cyfitter_cfg.c **** 	CY_SET_XTND_REG32((void CYFAR *)(CYREG_GPIO_PRT2_PC), 0x00000002u);
 622              		.loc 1 551 0
 623 0250 1E4B     		ldr	r3, .L18+92
 624 0252 0222     		mov	r2, #2
 625 0254 1A60     		str	r2, [r3]
 552:.\Generated_Source\PSoC4/cyfitter_cfg.c **** 
 553:.\Generated_Source\PSoC4/cyfitter_cfg.c **** 	/* IOPINS0_3 Starting address: CYDEV_GPIO_PRT3_BASE */
 554:.\Generated_Source\PSoC4/cyfitter_cfg.c **** 	CY_SET_XTND_REG32((void CYFAR *)(CYDEV_GPIO_PRT3_BASE), 0x00000080u);
 626              		.loc 1 554 0
 627 0256 1E4B     		ldr	r3, .L18+96
 628 0258 8022     		mov	r2, #128
 629 025a 1A60     		str	r2, [r3]
 555:.\Generated_Source\PSoC4/cyfitter_cfg.c **** 	CY_SET_XTND_REG32((void CYFAR *)(CYREG_GPIO_PRT3_PC2), 0x00000080u);
 630              		.loc 1 555 0
 631 025c 1D4B     		ldr	r3, .L18+100
 632 025e 8022     		mov	r2, #128
 633 0260 1A60     		str	r2, [r3]
 556:.\Generated_Source\PSoC4/cyfitter_cfg.c **** 
 557:.\Generated_Source\PSoC4/cyfitter_cfg.c **** 
 558:.\Generated_Source\PSoC4/cyfitter_cfg.c **** 	/* Setup clocks based on selections from Clock DWR */
 559:.\Generated_Source\PSoC4/cyfitter_cfg.c **** 	ClockSetup();
ARM GAS  C:\Users\ilias\AppData\Local\Temp\ccCGZhd0.s 			page 22


 634              		.loc 1 559 0
 635 0262 FFF7CDFE 		bl	ClockSetup
 560:.\Generated_Source\PSoC4/cyfitter_cfg.c **** 
 561:.\Generated_Source\PSoC4/cyfitter_cfg.c **** 	/* Perform basic analog initialization to defaults */
 562:.\Generated_Source\PSoC4/cyfitter_cfg.c **** 	AnalogSetDefault();
 636              		.loc 1 562 0
 637 0266 FFF7FEFF 		bl	AnalogSetDefault
 563:.\Generated_Source\PSoC4/cyfitter_cfg.c **** 
 564:.\Generated_Source\PSoC4/cyfitter_cfg.c **** }
 638              		.loc 1 564 0
 639 026a BD46     		mov	sp, r7
 640 026c 02B0     		add	sp, sp, #8
 641              		@ sp needed
 642 026e 80BD     		pop	{r7, pc}
 643              	.L19:
 644              		.align	2
 645              	.L18:
 646 0270 6CF02E40 		.word	1076818028
 647 0274 00000000 		.word	cfg_memset_list.4765
 648 0278 0C000000 		.word	cy_cfg_addr_table.4759
 649 027c 28000000 		.word	cy_cfg_data_table.4760
 650 0280 00000240 		.word	1073872896
 651 0284 3930FFEE 		.word	-285265863
 652 0288 00010240 		.word	1073873152
 653 028c 00500F40 		.word	1074745344
 654 0290 08500F40 		.word	1074745352
 655 0294 10500F40 		.word	1074745360
 656 0298 20500F40 		.word	1074745376
 657 029c 30500F40 		.word	1074745392
 658 02a0 00700F40 		.word	1074753536
 659 02a4 01700F40 		.word	1074753537
 660 02a8 00000440 		.word	1074003968
 661 02ac 08000440 		.word	1074003976
 662 02b0 71ECD800 		.word	14216305
 663 02b4 18000440 		.word	1074003992
 664 02b8 00010440 		.word	1074004224
 665 02bc 08010440 		.word	1074004232
 666 02c0 9244DA00 		.word	14304402
 667 02c4 18010440 		.word	1074004248
 668 02c8 00020440 		.word	1074004480
 669 02cc 08020440 		.word	1074004488
 670 02d0 00030440 		.word	1074004736
 671 02d4 18030440 		.word	1074004760
 672              		.cfi_endproc
 673              	.LFE8:
 674              		.size	cyfitter_cfg, .-cyfitter_cfg
 675              		.section	.rodata
 676              		.align	2
 677              		.type	cfg_memset_list.4765, %object
 678              		.size	cfg_memset_list.4765, 12
 679              	cfg_memset_list.4765:
 680 0000 00300F40 		.word	1074737152
 681 0004 0004     		.short	1024
 682 0006 00400F40 		.4byte	1074741248
 683 000a 0004     		.short	1024
 684              		.align	2
 685              		.type	cy_cfg_addr_table.4759, %object
ARM GAS  C:\Users\ilias\AppData\Local\Temp\ccCGZhd0.s 			page 23


 686              		.size	cy_cfg_addr_table.4759, 28
 687              	cy_cfg_addr_table.4759:
 688 000c 01000F40 		.word	1074724865
 689 0010 63300F40 		.word	1074737251
 690 0014 36310F40 		.word	1074737462
 691 0018 07330F40 		.word	1074737927
 692 001c 06400F40 		.word	1074741254
 693 0020 03410F40 		.word	1074741507
 694 0024 02600F40 		.word	1074749442
 695              		.align	2
 696              		.type	cy_cfg_data_table.4760, %object
 697              		.size	cy_cfg_data_table.4760, 344
 698              	cy_cfg_data_table.4760:
 699 0028 80       		.byte	-128
 700 0029 7F       		.byte	127
 701 002a 00       		.byte	0
 702 002b 08       		.byte	8
 703 002c 02       		.byte	2
 704 002d C0       		.byte	-64
 705 002e 03       		.byte	3
 706 002f 63       		.byte	99
 707 0030 06       		.byte	6
 708 0031 3F       		.byte	63
 709 0032 07       		.byte	7
 710 0033 63       		.byte	99
 711 0034 09       		.byte	9
 712 0035 63       		.byte	99
 713 0036 0A       		.byte	10
 714 0037 40       		.byte	64
 715 0038 0C       		.byte	12
 716 0039 80       		.byte	-128
 717 003a 0E       		.byte	14
 718 003b 40       		.byte	64
 719 003c 10       		.byte	16
 720 003d FF       		.byte	-1
 721 003e 11       		.byte	17
 722 003f 60       		.byte	96
 723 0040 13       		.byte	19
 724 0041 90       		.byte	-112
 725 0042 14       		.byte	20
 726 0043 01       		.byte	1
 727 0044 15       		.byte	21
 728 0045 E8       		.byte	-24
 729 0046 16       		.byte	22
 730 0047 C0       		.byte	-64
 731 0048 17       		.byte	23
 732 0049 04       		.byte	4
 733 004a 18       		.byte	24
 734 004b 02       		.byte	2
 735 004c 1A       		.byte	26
 736 004d C0       		.byte	-64
 737 004e 1C       		.byte	28
 738 004f 04       		.byte	4
 739 0050 1D       		.byte	29
 740 0051 67       		.byte	103
 741 0052 1E       		.byte	30
 742 0053 C0       		.byte	-64
ARM GAS  C:\Users\ilias\AppData\Local\Temp\ccCGZhd0.s 			page 24


 743 0054 1F       		.byte	31
 744 0055 88       		.byte	-120
 745 0056 23       		.byte	35
 746 0057 FF       		.byte	-1
 747 0058 24       		.byte	36
 748 0059 10       		.byte	16
 749 005a 25       		.byte	37
 750 005b 21       		.byte	33
 751 005c 26       		.byte	38
 752 005d C0       		.byte	-64
 753 005e 27       		.byte	39
 754 005f 42       		.byte	66
 755 0060 28       		.byte	40
 756 0061 C0       		.byte	-64
 757 0062 2A       		.byte	42
 758 0063 20       		.byte	32
 759 0064 2D       		.byte	45
 760 0065 42       		.byte	66
 761 0066 2E       		.byte	46
 762 0067 BF       		.byte	-65
 763 0068 2F       		.byte	47
 764 0069 21       		.byte	33
 765 006a 30       		.byte	48
 766 006b FF       		.byte	-1
 767 006c 31       		.byte	49
 768 006d 1F       		.byte	31
 769 006e 33       		.byte	51
 770 006f E0       		.byte	-32
 771 0070 37       		.byte	55
 772 0071 80       		.byte	-128
 773 0072 39       		.byte	57
 774 0073 02       		.byte	2
 775 0074 56       		.byte	86
 776 0075 02       		.byte	2
 777 0076 57       		.byte	87
 778 0077 24       		.byte	36
 779 0078 58       		.byte	88
 780 0079 04       		.byte	4
 781 007a 59       		.byte	89
 782 007b 04       		.byte	4
 783 007c 5B       		.byte	91
 784 007d 04       		.byte	4
 785 007e 5F       		.byte	95
 786 007f 01       		.byte	1
 787 0080 82       		.byte	-126
 788 0081 20       		.byte	32
 789 0082 84       		.byte	-124
 790 0083 08       		.byte	8
 791 0084 86       		.byte	-122
 792 0085 10       		.byte	16
 793 0086 8A       		.byte	-118
 794 0087 40       		.byte	64
 795 0088 8E       		.byte	-114
 796 0089 08       		.byte	8
 797 008a 90       		.byte	-112
 798 008b 10       		.byte	16
 799 008c 92       		.byte	-110
ARM GAS  C:\Users\ilias\AppData\Local\Temp\ccCGZhd0.s 			page 25


 800 008d 08       		.byte	8
 801 008e 96       		.byte	-106
 802 008f 05       		.byte	5
 803 0090 99       		.byte	-103
 804 0091 01       		.byte	1
 805 0092 9A       		.byte	-102
 806 0093 05       		.byte	5
 807 0094 9E       		.byte	-98
 808 0095 02       		.byte	2
 809 0096 A0       		.byte	-96
 810 0097 20       		.byte	32
 811 0098 A2       		.byte	-94
 812 0099 40       		.byte	64
 813 009a A5       		.byte	-91
 814 009b 02       		.byte	2
 815 009c A6       		.byte	-90
 816 009d 03       		.byte	3
 817 009e A9       		.byte	-87
 818 009f 01       		.byte	1
 819 00a0 B0       		.byte	-80
 820 00a1 04       		.byte	4
 821 00a2 B2       		.byte	-78
 822 00a3 18       		.byte	24
 823 00a4 B3       		.byte	-77
 824 00a5 02       		.byte	2
 825 00a6 B4       		.byte	-76
 826 00a7 60       		.byte	96
 827 00a8 B6       		.byte	-74
 828 00a9 03       		.byte	3
 829 00aa B7       		.byte	-73
 830 00ab 01       		.byte	1
 831 00ac BE       		.byte	-66
 832 00ad 01       		.byte	1
 833 00ae C0       		.byte	-64
 834 00af 65       		.byte	101
 835 00b0 C1       		.byte	-63
 836 00b1 04       		.byte	4
 837 00b2 C2       		.byte	-62
 838 00b3 03       		.byte	3
 839 00b4 C4       		.byte	-60
 840 00b5 02       		.byte	2
 841 00b6 C5       		.byte	-59
 842 00b7 0C       		.byte	12
 843 00b8 C6       		.byte	-58
 844 00b9 0E       		.byte	14
 845 00ba C8       		.byte	-56
 846 00bb 05       		.byte	5
 847 00bc C9       		.byte	-55
 848 00bd FF       		.byte	-1
 849 00be CA       		.byte	-54
 850 00bf FF       		.byte	-1
 851 00c0 CB       		.byte	-53
 852 00c1 FF       		.byte	-1
 853 00c2 CC       		.byte	-52
 854 00c3 02       		.byte	2
 855 00c4 CD       		.byte	-51
 856 00c5 20       		.byte	32
ARM GAS  C:\Users\ilias\AppData\Local\Temp\ccCGZhd0.s 			page 26


 857 00c6 CF       		.byte	-49
 858 00c7 05       		.byte	5
 859 00c8 D0       		.byte	-48
 860 00c9 04       		.byte	4
 861 00ca D2       		.byte	-46
 862 00cb 06       		.byte	6
 863 00cc D4       		.byte	-44
 864 00cd 01       		.byte	1
 865 00ce D8       		.byte	-40
 866 00cf 04       		.byte	4
 867 00d0 D9       		.byte	-39
 868 00d1 04       		.byte	4
 869 00d2 DA       		.byte	-38
 870 00d3 04       		.byte	4
 871 00d4 DB       		.byte	-37
 872 00d5 04       		.byte	4
 873 00d6 DF       		.byte	-33
 874 00d7 01       		.byte	1
 875 00d8 E2       		.byte	-30
 876 00d9 40       		.byte	64
 877 00da E3       		.byte	-29
 878 00db 01       		.byte	1
 879 00dc E4       		.byte	-28
 880 00dd 40       		.byte	64
 881 00de E5       		.byte	-27
 882 00df 01       		.byte	1
 883 00e0 E6       		.byte	-26
 884 00e1 50       		.byte	80
 885 00e2 E7       		.byte	-25
 886 00e3 01       		.byte	1
 887 00e4 E8       		.byte	-24
 888 00e5 40       		.byte	64
 889 00e6 E9       		.byte	-23
 890 00e7 01       		.byte	1
 891 00e8 EA       		.byte	-22
 892 00e9 70       		.byte	112
 893 00ea EB       		.byte	-21
 894 00eb 10       		.byte	16
 895 00ec EC       		.byte	-20
 896 00ed 40       		.byte	64
 897 00ee ED       		.byte	-19
 898 00ef 10       		.byte	16
 899 00f0 01       		.byte	1
 900 00f1 01       		.byte	1
 901 00f2 03       		.byte	3
 902 00f3 25       		.byte	37
 903 00f4 04       		.byte	4
 904 00f5 01       		.byte	1
 905 00f6 05       		.byte	5
 906 00f7 10       		.byte	16
 907 00f8 07       		.byte	7
 908 00f9 22       		.byte	34
 909 00fa 0A       		.byte	10
 910 00fb 11       		.byte	17
 911 00fc 0B       		.byte	11
 912 00fd 84       		.byte	-124
 913 00fe 0E       		.byte	14
ARM GAS  C:\Users\ilias\AppData\Local\Temp\ccCGZhd0.s 			page 27


 914 00ff 22       		.byte	34
 915 0100 0F       		.byte	15
 916 0101 48       		.byte	72
 917 0102 11       		.byte	17
 918 0103 14       		.byte	20
 919 0104 12       		.byte	18
 920 0105 01       		.byte	1
 921 0106 17       		.byte	23
 922 0107 05       		.byte	5
 923 0108 19       		.byte	25
 924 0109 01       		.byte	1
 925 010a 1D       		.byte	29
 926 010b 38       		.byte	56
 927 010c 1E       		.byte	30
 928 010d A2       		.byte	-94
 929 010e 1F       		.byte	31
 930 010f 40       		.byte	64
 931 0110 22       		.byte	34
 932 0111 49       		.byte	73
 933 0112 23       		.byte	35
 934 0113 62       		.byte	98
 935 0114 26       		.byte	38
 936 0115 80       		.byte	-128
 937 0116 27       		.byte	39
 938 0117 10       		.byte	16
 939 0118 29       		.byte	41
 940 0119 41       		.byte	65
 941 011a 2A       		.byte	42
 942 011b 09       		.byte	9
 943 011c 2E       		.byte	46
 944 011d 10       		.byte	16
 945 011e 2F       		.byte	47
 946 011f 20       		.byte	32
 947 0120 32       		.byte	50
 948 0121 49       		.byte	73
 949 0122 37       		.byte	55
 950 0123 10       		.byte	16
 951 0124 39       		.byte	57
 952 0125 15       		.byte	21
 953 0126 45       		.byte	69
 954 0127 28       		.byte	40
 955 0128 47       		.byte	71
 956 0129 02       		.byte	2
 957 012a 4E       		.byte	78
 958 012b 08       		.byte	8
 959 012c 4F       		.byte	79
 960 012d 48       		.byte	72
 961 012e 57       		.byte	87
 962 012f 80       		.byte	-128
 963 0130 58       		.byte	88
 964 0131 08       		.byte	8
 965 0132 5A       		.byte	90
 966 0133 04       		.byte	4
 967 0134 5C       		.byte	92
 968 0135 20       		.byte	32
 969 0136 5E       		.byte	94
 970 0137 80       		.byte	-128
ARM GAS  C:\Users\ilias\AppData\Local\Temp\ccCGZhd0.s 			page 28


 971 0138 60       		.byte	96
 972 0139 08       		.byte	8
 973 013a 69       		.byte	105
 974 013b 15       		.byte	21
 975 013c 6B       		.byte	107
 976 013d 01       		.byte	1
 977 013e 6E       		.byte	110
 978 013f 04       		.byte	4
 979 0140 6F       		.byte	111
 980 0141 24       		.byte	36
 981 0142 71       		.byte	113
 982 0143 40       		.byte	64
 983 0144 72       		.byte	114
 984 0145 19       		.byte	25
 985 0146 73       		.byte	115
 986 0147 04       		.byte	4
 987 0148 C0       		.byte	-64
 988 0149 FF       		.byte	-1
 989 014a C2       		.byte	-62
 990 014b FF       		.byte	-1
 991 014c C4       		.byte	-60
 992 014d 37       		.byte	55
 993 014e CA       		.byte	-54
 994 014f 6B       		.byte	107
 995 0150 CC       		.byte	-52
 996 0151 2B       		.byte	43
 997 0152 CE       		.byte	-50
 998 0153 07       		.byte	7
 999 0154 D0       		.byte	-48
 1000 0155 E0       		.byte	-32
 1001 0156 D2       		.byte	-46
 1002 0157 30       		.byte	48
 1003 0158 D6       		.byte	-42
 1004 0159 30       		.byte	48
 1005 015a D8       		.byte	-40
 1006 015b 04       		.byte	4
 1007 015c A8       		.byte	-88
 1008 015d 20       		.byte	32
 1009 015e AB       		.byte	-85
 1010 015f 80       		.byte	-128
 1011 0160 AF       		.byte	-81
 1012 0161 01       		.byte	1
 1013 0162 B4       		.byte	-76
 1014 0163 01       		.byte	1
 1015 0164 B6       		.byte	-74
 1016 0165 80       		.byte	-128
 1017 0166 EA       		.byte	-22
 1018 0167 40       		.byte	64
 1019 0168 EC       		.byte	-20
 1020 0169 10       		.byte	16
 1021 016a 02       		.byte	2
 1022 016b 04       		.byte	4
 1023 016c 52       		.byte	82
 1024 016d 10       		.byte	16
 1025 016e 56       		.byte	86
 1026 016f 02       		.byte	2
 1027 0170 C0       		.byte	-64
ARM GAS  C:\Users\ilias\AppData\Local\Temp\ccCGZhd0.s 			page 29


 1028 0171 40       		.byte	64
 1029 0172 D4       		.byte	-44
 1030 0173 20       		.byte	32
 1031 0174 D6       		.byte	-42
 1032 0175 20       		.byte	32
 1033 0176 AE       		.byte	-82
 1034 0177 10       		.byte	16
 1035 0178 B6       		.byte	-74
 1036 0179 06       		.byte	6
 1037 017a EA       		.byte	-22
 1038 017b 40       		.byte	64
 1039 017c 01       		.byte	1
 1040 017d 01       		.byte	1
 1041 017e 10       		.byte	16
 1042 017f 01       		.byte	1
 1043              		.text
 1044              	.Letext0:
 1045              		.file 2 "c:\\program files (x86)\\cypress\\psoc creator\\3.3\\psoc creator\\import\\gnu\\arm\\4.9.
 1046              		.file 3 ".\\Generated_Source\\PSoC4\\cytypes.h"