ARM GAS  C:\Users\ilias\AppData\Local\Temp\ccQqDEwR.s 			page 1


   1              		.cpu cortex-m0
   2              		.fpu softvfp
   3              		.eabi_attribute 20, 1
   4              		.eabi_attribute 21, 1
   5              		.eabi_attribute 23, 3
   6              		.eabi_attribute 24, 1
   7              		.eabi_attribute 25, 1
   8              		.eabi_attribute 26, 1
   9              		.eabi_attribute 30, 6
  10              		.eabi_attribute 34, 0
  11              		.eabi_attribute 18, 4
  12              		.code	16
  13              		.file	"generic.c"
  14              		.text
  15              	.Ltext0:
  16              		.cfi_sections	.debug_frame
  17              		.comm	connectionHandle,2,4
  18              		.global	sendNotifications
  19              		.data
  20              		.type	sendNotifications, %object
  21              		.size	sendNotifications, 1
  22              	sendNotifications:
  23 0000 01       		.byte	1
  24              		.global	deviceConnected
  25              		.bss
  26              		.type	deviceConnected, %object
  27              		.size	deviceConnected, 1
  28              	deviceConnected:
  29 0000 00       		.space	1
  30              		.global	busyStatus
  31              		.type	busyStatus, %object
  32              		.size	busyStatus, 1
  33              	busyStatus:
  34 0001 00       		.space	1
  35              		.comm	DataCCCDvalue,2,4
  36              		.comm	DataNotificationCCCDhandle,12,4
  37              		.section	.rodata
  38              		.align	2
  39              	.LC2:
  40 0000 0A0D436F 		.ascii	"\012\015Connection established\000"
  40      6E6E6563 
  40      74696F6E 
  40      20657374 
  40      61626C69 
  41 0019 000000   		.section	.text.GenericAppEventHandler,"ax",%progbits
  42              		.align	2
  43              		.global	GenericAppEventHandler
  44              		.code	16
  45              		.thumb_func
  46              		.type	GenericAppEventHandler, %function
  47              	GenericAppEventHandler:
  48              	.LFB37:
  49              		.file 1 ".\\generic.c"
   1:.\generic.c   **** /* ========================================
   2:.\generic.c   ****  *
   3:.\generic.c   ****  * Copyright YOUR COMPANY, THE YEAR
   4:.\generic.c   ****  * All Rights Reserved
ARM GAS  C:\Users\ilias\AppData\Local\Temp\ccQqDEwR.s 			page 2


   5:.\generic.c   ****  * UNPUBLISHED, LICENSED SOFTWARE.
   6:.\generic.c   ****  *
   7:.\generic.c   ****  * CONFIDENTIAL AND PROPRIETARY INFORMATION
   8:.\generic.c   ****  * WHICH IS THE PROPERTY OF your company.
   9:.\generic.c   ****  *
  10:.\generic.c   ****  * ========================================
  11:.\generic.c   **** */
  12:.\generic.c   **** #include <main.h>
  13:.\generic.c   **** 
  14:.\generic.c   **** CYBLE_CONN_HANDLE_T  connectionHandle;
  15:.\generic.c   **** 
  16:.\generic.c   **** /*This flag is set when the Central device writes to CCCD of the 
  17:.\generic.c   **** * CapSense slider Characteristic to enable notifications */
  18:.\generic.c   **** uint8 sendNotifications = TRUE;						
  19:.\generic.c   **** 
  20:.\generic.c   **** /* This flag is used by application to know whether a Central 
  21:.\generic.c   **** * device has been connected. This is updated in BLE event callback 
  22:.\generic.c   **** * function*/
  23:.\generic.c   **** uint8 deviceConnected = FALSE;
  24:.\generic.c   **** 
  25:.\generic.c   **** /* Status flag for the Stack Busy state. This flag is used to notify the application 
  26:.\generic.c   **** * whether there is stack buffer free to puch more data or not */
  27:.\generic.c   **** uint8 busyStatus = 0;
  28:.\generic.c   **** 
  29:.\generic.c   **** /* Local variable to store the current CCCD value */
  30:.\generic.c   **** uint8 DataCCCDvalue[2];
  31:.\generic.c   **** 
  32:.\generic.c   **** /* Handle value to update the CCCD */
  33:.\generic.c   **** CYBLE_GATT_HANDLE_VALUE_PAIR_T DataNotificationCCCDhandle;
  34:.\generic.c   **** 
  35:.\generic.c   **** void GenericAppEventHandler(uint32 event, void *eventParam)
  36:.\generic.c   **** {
  50              		.loc 1 36 0
  51              		.cfi_startproc
  52 0000 80B5     		push	{r7, lr}
  53              		.cfi_def_cfa_offset 8
  54              		.cfi_offset 7, -8
  55              		.cfi_offset 14, -4
  56 0002 84B0     		sub	sp, sp, #16
  57              		.cfi_def_cfa_offset 24
  58 0004 00AF     		add	r7, sp, #0
  59              		.cfi_def_cfa_register 7
  60 0006 7860     		str	r0, [r7, #4]
  61 0008 3960     		str	r1, [r7]
  37:.\generic.c   ****     CYBLE_GATTS_WRITE_REQ_PARAM_T *wrReqParam;
  38:.\generic.c   ****     CYBLE_GATTS_WRITE_REQ_PARAM_T *uartRxDataWrReq;
  39:.\generic.c   ****     switch(event)
  62              		.loc 1 39 0
  63 000a 7B68     		ldr	r3, [r7, #4]
  64 000c 412B     		cmp	r3, #65
  65 000e 17D0     		beq	.L3
  66 0010 07D8     		bhi	.L4
  67 0012 052B     		cmp	r3, #5
  68 0014 00D1     		bne	.LCB20
  69 0016 97E0     		b	.L5	@long jump
  70              	.LCB20:
  71 0018 282B     		cmp	r3, #40
ARM GAS  C:\Users\ilias\AppData\Local\Temp\ccQqDEwR.s 			page 3


  72 001a 0DD0     		beq	.L6
  73 001c 012B     		cmp	r3, #1
  74 001e 07D0     		beq	.L7
  40:.\generic.c   **** 	{
  41:.\generic.c   ****     /**********************************************************
  42:.\generic.c   ****     *                       General Events
  43:.\generic.c   ****     ***********************************************************/
  44:.\generic.c   **** 	case CYBLE_EVT_STACK_ON: 
  45:.\generic.c   **** 		/* Start BLE Advertisement after BLE Stack is ON */
  46:.\generic.c   **** 		CyBle_GappStartAdvertisement(CYBLE_ADVERTISING_FAST);
  47:.\generic.c   **** 		
  48:.\generic.c   **** 		break;
  49:.\generic.c   ****         
  50:.\generic.c   ****     /**********************************************************
  51:.\generic.c   ****     *                       GAP Events
  52:.\generic.c   ****     ***********************************************************/
  53:.\generic.c   ****     case CYBLE_EVT_GAP_DEVICE_DISCONNECTED:
  54:.\generic.c   ****         /* Put the device to discoverable mode so that remote can search it. */
  55:.\generic.c   ****         CyBle_GappStartAdvertisement(CYBLE_ADVERTISING_FAST);
  56:.\generic.c   **** 		
  57:.\generic.c   ****         break;
  58:.\generic.c   ****     /**********************************************************
  59:.\generic.c   ****     *                       GATT Events
  60:.\generic.c   ****     ***********************************************************/
  61:.\generic.c   ****     case CYBLE_EVT_GATT_CONNECT_IND:
  62:.\generic.c   ****         connectionHandle = *(CYBLE_CONN_HANDLE_T  *)eventParam;
  63:.\generic.c   **** 			
  64:.\generic.c   **** 			/* This flag is used in application to check connection status */
  65:.\generic.c   **** 			deviceConnected = TRUE;	
  66:.\generic.c   ****                 UART_1_UartPutString("\n\rConnection established");    
  67:.\generic.c   ****         break;
  68:.\generic.c   **** 
  69:.\generic.c   ****     case CYBLE_EVT_GATT_DISCONNECT_IND:
  70:.\generic.c   **** 			/* This event is received when device is disconnected */
  71:.\generic.c   **** 
  72:.\generic.c   **** 			/* Update deviceConnected flag*/
  73:.\generic.c   **** 			deviceConnected = FALSE;
  74:.\generic.c   **** 			
  75:.\generic.c   **** 			/* Reset CapSense notification flag to prevent further notifications
  76:.\generic.c   **** 			 * being sent to Central device after next connection. */
  77:.\generic.c   **** 			sendNotifications = FALSE;
  78:.\generic.c   **** 			
  79:.\generic.c   **** 			/* Reset the CCCD value to disable notifications */
  80:.\generic.c   ****     		/* Write the present CapSense notification status to the local variable */
  81:.\generic.c   ****     	    DataCCCDvalue[0] = sendNotifications;
  82:.\generic.c   ****     		DataCCCDvalue[1] = 0x00;
  83:.\generic.c   ****     		
  84:.\generic.c   ****     		/* Update CCCD handle with notification status data*/
  85:.\generic.c   ****     		DataNotificationCCCDhandle.attrHandle = CYBLE_CUSTOM_SERVICE_CUSTOM_CHARACTERISTIC_CLIENT_CHA
  86:.\generic.c   ****     		DataNotificationCCCDhandle.value.val = DataCCCDvalue;
  87:.\generic.c   ****     		DataNotificationCCCDhandle.value.len = CCCD_DATA_LEN;
  88:.\generic.c   ****     		
  89:.\generic.c   ****     		/* Report data to BLE component for sending data when read by Central device */
  90:.\generic.c   ****     		CyBle_GattsWriteAttributeValue(&DataNotificationCCCDhandle, ZERO, &connectionHandle, CYBLE_GA
  91:.\generic.c   ****             
  92:.\generic.c   ****             UART_1_Stop();
  93:.\generic.c   ****             UART_1_SpiUartClearTxBuffer();
ARM GAS  C:\Users\ilias\AppData\Local\Temp\ccQqDEwR.s 			page 4


  94:.\generic.c   ****             UART_1_SpiUartClearRxBuffer();
  95:.\generic.c   ****             UART_1_Start();
  96:.\generic.c   **** 		    break;
  97:.\generic.c   ****         
  98:.\generic.c   ****         case CYBLE_EVT_GATTS_WRITE_CMD_REQ:
  99:.\generic.c   ****             
 100:.\generic.c   ****             uartRxDataWrReq = (CYBLE_GATTS_WRITE_REQ_PARAM_T *) eventParam;
 101:.\generic.c   ****             //if(uartRxDataWrReq->handleValPair.attrHandle == CYBLE_SERVER_UART_SERVER_UART_RX_DATA
 102:.\generic.c   ****             //{
 103:.\generic.c   ****                 UART_1_SpiUartPutArray(uartRxDataWrReq->handleValPair.value.val, \
 104:.\generic.c   ****                                     (uint32) uartRxDataWrReq->handleValPair.value.len);
 105:.\generic.c   ****             //}
 106:.\generic.c   ****             break;
 107:.\generic.c   ****             
 108:.\generic.c   ****         case CYBLE_EVT_GATTS_WRITE_REQ:
 109:.\generic.c   ****                 UART_1_UartPutString("\n\rConnection established");  
 110:.\generic.c   **** 			/* This event is received when Central device sends a Write command on an Attribute */
 111:.\generic.c   ****             wrReqParam = (CYBLE_GATTS_WRITE_REQ_PARAM_T *) eventParam;
 112:.\generic.c   **** 
 113:.\generic.c   **** 			/* When this event is triggered, the peripheral has received a write command on the custom chara
 114:.\generic.c   **** 			/* Check if command is for correct attribute and update the flag for sending Notifications */
 115:.\generic.c   ****             //if(CYBLE_CUSTOM_SERVICE_CUSTOM_CHARACTERISTIC_CLIENT_CHARACTERISTIC_CONFIGURATION_DES
 116:.\generic.c   ****             //{
 117:.\generic.c   **** 				/* Extract the Write value sent by the Client for CapSense Slider CCCD */
 118:.\generic.c   ****                 if(wrReqParam->handleValPair.value.val[CYBLE_CUSTOM_SERVICE_CUSTOM_CHARACTERISTIC_C
 119:.\generic.c   ****                 {
 120:.\generic.c   ****                     sendNotifications = TRUE;
 121:.\generic.c   ****                 }
 122:.\generic.c   ****                 else if(wrReqParam->handleValPair.value.val[CYBLE_CUSTOM_SERVICE_CUSTOM_CHARACTERIS
 123:.\generic.c   ****                 {
 124:.\generic.c   ****                     sendNotifications = FALSE;
 125:.\generic.c   ****                 }
 126:.\generic.c   **** 				
 127:.\generic.c   ****         		/* Write the present CapSense notification status to the local variable */
 128:.\generic.c   ****         		DataCCCDvalue[0] = sendNotifications;
 129:.\generic.c   ****         		DataCCCDvalue[1] = 0x00;
 130:.\generic.c   ****         		
 131:.\generic.c   ****         		/* Update CCCD handle with notification status data*/
 132:.\generic.c   ****         		DataNotificationCCCDhandle.attrHandle = CYBLE_CUSTOM_SERVICE_CUSTOM_CHARACTERISTIC_CLIENT
 133:.\generic.c   ****         		DataNotificationCCCDhandle.value.val = DataCCCDvalue;
 134:.\generic.c   ****         		DataNotificationCCCDhandle.value.len = CCCD_DATA_LEN;
 135:.\generic.c   ****         		
 136:.\generic.c   ****         		/* Report data to BLE component for sending data when read by Central device */
 137:.\generic.c   ****         		CyBle_GattsWriteAttributeValue(&DataNotificationCCCDhandle, ZERO, &connectionHandle, CYBL
 138:.\generic.c   ****             //}
 139:.\generic.c   **** 						
 140:.\generic.c   **** 			/* Send the response to the write request received. */
 141:.\generic.c   **** 			CyBle_GattsWriteRsp(connectionHandle);
 142:.\generic.c   **** 			break;
 143:.\generic.c   ****         
 144:.\generic.c   ****         case CYBLE_EVT_STACK_BUSY_STATUS:
 145:.\generic.c   **** 			/* This event is generated when the internal stack buffer is full and no more
 146:.\generic.c   **** 			* data can be accepted or the stack has buffer available and can accept data.
 147:.\generic.c   **** 			* This event is used by application to prevent pushing lot of data to stack. */
 148:.\generic.c   **** 			
 149:.\generic.c   **** 			/* Extract the present stack status */
 150:.\generic.c   ****             busyStatus = * (uint8*)eventParam;
ARM GAS  C:\Users\ilias\AppData\Local\Temp\ccQqDEwR.s 			page 5


 151:.\generic.c   ****             break;
 152:.\generic.c   ****             
 153:.\generic.c   ****     default:
 154:.\generic.c   ****         break;
  75              		.loc 1 154 0
  76 0020 97E0     		b	.L1
  77              	.L4:
  39:.\generic.c   **** 	{
  78              		.loc 1 39 0
  79 0022 4C2B     		cmp	r3, #76
  80 0024 50D0     		beq	.L8
  81 0026 4E2B     		cmp	r3, #78
  82 0028 43D0     		beq	.L9
  83 002a 422B     		cmp	r3, #66
  84 002c 1AD0     		beq	.L10
  85              		.loc 1 154 0
  86 002e 90E0     		b	.L1
  87              	.L7:
  46:.\generic.c   **** 		
  88              		.loc 1 46 0
  89 0030 0020     		mov	r0, #0
  90 0032 FFF7FEFF 		bl	CyBle_GappStartAdvertisement
  48:.\generic.c   ****         
  91              		.loc 1 48 0
  92 0036 8CE0     		b	.L1
  93              	.L6:
  55:.\generic.c   **** 		
  94              		.loc 1 55 0
  95 0038 0020     		mov	r0, #0
  96 003a FFF7FEFF 		bl	CyBle_GappStartAdvertisement
  57:.\generic.c   ****     /**********************************************************
  97              		.loc 1 57 0
  98 003e 88E0     		b	.L1
  99              	.L3:
  62:.\generic.c   **** 			
 100              		.loc 1 62 0
 101 0040 454A     		ldr	r2, .L14
 102 0042 3B68     		ldr	r3, [r7]
 103 0044 111C     		mov	r1, r2
 104 0046 1A1C     		mov	r2, r3
 105 0048 0223     		mov	r3, #2
 106 004a 081C     		mov	r0, r1
 107 004c 111C     		mov	r1, r2
 108 004e 1A1C     		mov	r2, r3
 109 0050 FFF7FEFF 		bl	memcpy
  65:.\generic.c   ****                 UART_1_UartPutString("\n\rConnection established");    
 110              		.loc 1 65 0
 111 0054 414B     		ldr	r3, .L14+4
 112 0056 0122     		mov	r2, #1
 113 0058 1A70     		strb	r2, [r3]
  66:.\generic.c   ****         break;
 114              		.loc 1 66 0
 115 005a 414B     		ldr	r3, .L14+8
 116 005c 181C     		mov	r0, r3
 117 005e FFF7FEFF 		bl	UART_1_UartPutString
  67:.\generic.c   **** 
 118              		.loc 1 67 0
ARM GAS  C:\Users\ilias\AppData\Local\Temp\ccQqDEwR.s 			page 6


 119 0062 76E0     		b	.L1
 120              	.L10:
  73:.\generic.c   **** 			
 121              		.loc 1 73 0
 122 0064 3D4B     		ldr	r3, .L14+4
 123 0066 0022     		mov	r2, #0
 124 0068 1A70     		strb	r2, [r3]
  77:.\generic.c   **** 			
 125              		.loc 1 77 0
 126 006a 3E4B     		ldr	r3, .L14+12
 127 006c 0022     		mov	r2, #0
 128 006e 1A70     		strb	r2, [r3]
  81:.\generic.c   ****     		DataCCCDvalue[1] = 0x00;
 129              		.loc 1 81 0
 130 0070 3C4B     		ldr	r3, .L14+12
 131 0072 1A78     		ldrb	r2, [r3]
 132 0074 3C4B     		ldr	r3, .L14+16
 133 0076 1A70     		strb	r2, [r3]
  82:.\generic.c   ****     		
 134              		.loc 1 82 0
 135 0078 3B4B     		ldr	r3, .L14+16
 136 007a 0022     		mov	r2, #0
 137 007c 5A70     		strb	r2, [r3, #1]
  85:.\generic.c   ****     		DataNotificationCCCDhandle.value.val = DataCCCDvalue;
 138              		.loc 1 85 0
 139 007e 3B4B     		ldr	r3, .L14+20
 140 0080 1022     		mov	r2, #16
 141 0082 1A81     		strh	r2, [r3, #8]
  86:.\generic.c   ****     		DataNotificationCCCDhandle.value.len = CCCD_DATA_LEN;
 142              		.loc 1 86 0
 143 0084 394B     		ldr	r3, .L14+20
 144 0086 384A     		ldr	r2, .L14+16
 145 0088 1A60     		str	r2, [r3]
  87:.\generic.c   ****     		
 146              		.loc 1 87 0
 147 008a 384B     		ldr	r3, .L14+20
 148 008c 0222     		mov	r2, #2
 149 008e 9A80     		strh	r2, [r3, #4]
  90:.\generic.c   ****             
 150              		.loc 1 90 0
 151 0090 364A     		ldr	r2, .L14+20
 152 0092 314B     		ldr	r3, .L14
 153 0094 101C     		mov	r0, r2
 154 0096 0021     		mov	r1, #0
 155 0098 1A1C     		mov	r2, r3
 156 009a 4023     		mov	r3, #64
 157 009c FFF7FEFF 		bl	CyBle_GattsWriteAttributeValue
  92:.\generic.c   ****             UART_1_SpiUartClearTxBuffer();
 158              		.loc 1 92 0
 159 00a0 FFF7FEFF 		bl	UART_1_Stop
  93:.\generic.c   ****             UART_1_SpiUartClearRxBuffer();
 160              		.loc 1 93 0
 161 00a4 FFF7FEFF 		bl	UART_1_SpiUartClearTxBuffer
  94:.\generic.c   ****             UART_1_Start();
 162              		.loc 1 94 0
 163 00a8 FFF7FEFF 		bl	UART_1_SpiUartClearRxBuffer
  95:.\generic.c   **** 		    break;
ARM GAS  C:\Users\ilias\AppData\Local\Temp\ccQqDEwR.s 			page 7


 164              		.loc 1 95 0
 165 00ac FFF7FEFF 		bl	UART_1_Start
  96:.\generic.c   ****         
 166              		.loc 1 96 0
 167 00b0 4FE0     		b	.L1
 168              	.L9:
 100:.\generic.c   ****             //if(uartRxDataWrReq->handleValPair.attrHandle == CYBLE_SERVER_UART_SERVER_UART_RX_DATA
 169              		.loc 1 100 0
 170 00b2 3B68     		ldr	r3, [r7]
 171 00b4 FB60     		str	r3, [r7, #12]
 103:.\generic.c   ****                                     (uint32) uartRxDataWrReq->handleValPair.value.len);
 172              		.loc 1 103 0
 173 00b6 FB68     		ldr	r3, [r7, #12]
 174 00b8 5A68     		ldr	r2, [r3, #4]
 104:.\generic.c   ****             //}
 175              		.loc 1 104 0
 176 00ba FB68     		ldr	r3, [r7, #12]
 177 00bc 1B89     		ldrh	r3, [r3, #8]
 103:.\generic.c   ****                                     (uint32) uartRxDataWrReq->handleValPair.value.len);
 178              		.loc 1 103 0
 179 00be 101C     		mov	r0, r2
 180 00c0 191C     		mov	r1, r3
 181 00c2 FFF7FEFF 		bl	UART_1_SpiUartPutArray
 106:.\generic.c   ****             
 182              		.loc 1 106 0
 183 00c6 44E0     		b	.L1
 184              	.L8:
 109:.\generic.c   **** 			/* This event is received when Central device sends a Write command on an Attribute */
 185              		.loc 1 109 0
 186 00c8 254B     		ldr	r3, .L14+8
 187 00ca 181C     		mov	r0, r3
 188 00cc FFF7FEFF 		bl	UART_1_UartPutString
 111:.\generic.c   **** 
 189              		.loc 1 111 0
 190 00d0 3B68     		ldr	r3, [r7]
 191 00d2 BB60     		str	r3, [r7, #8]
 118:.\generic.c   ****                 {
 192              		.loc 1 118 0
 193 00d4 BB68     		ldr	r3, [r7, #8]
 194 00d6 5B68     		ldr	r3, [r3, #4]
 195 00d8 0133     		add	r3, r3, #1
 196 00da 1B78     		ldrb	r3, [r3]
 197 00dc 012B     		cmp	r3, #1
 198 00de 03D1     		bne	.L12
 120:.\generic.c   ****                 }
 199              		.loc 1 120 0
 200 00e0 204B     		ldr	r3, .L14+12
 201 00e2 0122     		mov	r2, #1
 202 00e4 1A70     		strb	r2, [r3]
 203 00e6 08E0     		b	.L13
 204              	.L12:
 122:.\generic.c   ****                 {
 205              		.loc 1 122 0
 206 00e8 BB68     		ldr	r3, [r7, #8]
 207 00ea 5B68     		ldr	r3, [r3, #4]
 208 00ec 0133     		add	r3, r3, #1
 209 00ee 1B78     		ldrb	r3, [r3]
ARM GAS  C:\Users\ilias\AppData\Local\Temp\ccQqDEwR.s 			page 8


 210 00f0 002B     		cmp	r3, #0
 211 00f2 02D1     		bne	.L13
 124:.\generic.c   ****                 }
 212              		.loc 1 124 0
 213 00f4 1B4B     		ldr	r3, .L14+12
 214 00f6 0022     		mov	r2, #0
 215 00f8 1A70     		strb	r2, [r3]
 216              	.L13:
 128:.\generic.c   ****         		DataCCCDvalue[1] = 0x00;
 217              		.loc 1 128 0
 218 00fa 1A4B     		ldr	r3, .L14+12
 219 00fc 1A78     		ldrb	r2, [r3]
 220 00fe 1A4B     		ldr	r3, .L14+16
 221 0100 1A70     		strb	r2, [r3]
 129:.\generic.c   ****         		
 222              		.loc 1 129 0
 223 0102 194B     		ldr	r3, .L14+16
 224 0104 0022     		mov	r2, #0
 225 0106 5A70     		strb	r2, [r3, #1]
 132:.\generic.c   ****         		DataNotificationCCCDhandle.value.val = DataCCCDvalue;
 226              		.loc 1 132 0
 227 0108 184B     		ldr	r3, .L14+20
 228 010a 1022     		mov	r2, #16
 229 010c 1A81     		strh	r2, [r3, #8]
 133:.\generic.c   ****         		DataNotificationCCCDhandle.value.len = CCCD_DATA_LEN;
 230              		.loc 1 133 0
 231 010e 174B     		ldr	r3, .L14+20
 232 0110 154A     		ldr	r2, .L14+16
 233 0112 1A60     		str	r2, [r3]
 134:.\generic.c   ****         		
 234              		.loc 1 134 0
 235 0114 154B     		ldr	r3, .L14+20
 236 0116 0222     		mov	r2, #2
 237 0118 9A80     		strh	r2, [r3, #4]
 137:.\generic.c   ****             //}
 238              		.loc 1 137 0
 239 011a 144A     		ldr	r2, .L14+20
 240 011c 0E4B     		ldr	r3, .L14
 241 011e 101C     		mov	r0, r2
 242 0120 0021     		mov	r1, #0
 243 0122 1A1C     		mov	r2, r3
 244 0124 4023     		mov	r3, #64
 245 0126 FFF7FEFF 		bl	CyBle_GattsWriteAttributeValue
 141:.\generic.c   **** 			break;
 246              		.loc 1 141 0
 247 012a 0B4B     		ldr	r3, .L14
 248 012c 1A78     		ldrb	r2, [r3]
 249 012e 5B78     		ldrb	r3, [r3, #1]
 250 0130 1B02     		lsl	r3, r3, #8
 251 0132 1A43     		orr	r2, r3
 252 0134 0023     		mov	r3, #0
 253 0136 1204     		lsl	r2, r2, #16
 254 0138 120C     		lsr	r2, r2, #16
 255 013a 1B0C     		lsr	r3, r3, #16
 256 013c 1B04     		lsl	r3, r3, #16
 257 013e 1343     		orr	r3, r2
 258 0140 181C     		mov	r0, r3
ARM GAS  C:\Users\ilias\AppData\Local\Temp\ccQqDEwR.s 			page 9


 259 0142 FFF7FEFF 		bl	CyBle_GattsWriteRsp
 142:.\generic.c   ****         
 260              		.loc 1 142 0
 261 0146 04E0     		b	.L1
 262              	.L5:
 150:.\generic.c   ****             break;
 263              		.loc 1 150 0
 264 0148 3B68     		ldr	r3, [r7]
 265 014a 1A78     		ldrb	r2, [r3]
 266 014c 084B     		ldr	r3, .L14+24
 267 014e 1A70     		strb	r2, [r3]
 151:.\generic.c   ****             
 268              		.loc 1 151 0
 269 0150 C046     		mov	r8, r8
 270              	.L1:
 155:.\generic.c   **** 	}
 156:.\generic.c   **** }
 271              		.loc 1 156 0
 272 0152 BD46     		mov	sp, r7
 273 0154 04B0     		add	sp, sp, #16
 274              		@ sp needed
 275 0156 80BD     		pop	{r7, pc}
 276              	.L15:
 277              		.align	2
 278              	.L14:
 279 0158 00000000 		.word	connectionHandle
 280 015c 00000000 		.word	deviceConnected
 281 0160 00000000 		.word	.LC2
 282 0164 00000000 		.word	sendNotifications
 283 0168 00000000 		.word	DataCCCDvalue
 284 016c 00000000 		.word	DataNotificationCCCDhandle
 285 0170 00000000 		.word	busyStatus
 286              		.cfi_endproc
 287              	.LFE37:
 288              		.size	GenericAppEventHandler, .-GenericAppEventHandler
 289              		.section	.text.SendDataOverNotification,"ax",%progbits
 290              		.align	2
 291              		.global	SendDataOverNotification
 292              		.code	16
 293              		.thumb_func
 294              		.type	SendDataOverNotification, %function
 295              	SendDataOverNotification:
 296              	.LFB38:
 157:.\generic.c   **** 
 158:.\generic.c   **** void SendDataOverNotification(uint8 Data)
 159:.\generic.c   **** {
 297              		.loc 1 159 0
 298              		.cfi_startproc
 299 0000 80B5     		push	{r7, lr}
 300              		.cfi_def_cfa_offset 8
 301              		.cfi_offset 7, -8
 302              		.cfi_offset 14, -4
 303 0002 86B0     		sub	sp, sp, #24
 304              		.cfi_def_cfa_offset 32
 305 0004 00AF     		add	r7, sp, #0
 306              		.cfi_def_cfa_register 7
 307 0006 021C     		mov	r2, r0
ARM GAS  C:\Users\ilias\AppData\Local\Temp\ccQqDEwR.s 			page 10


 308 0008 FB1D     		add	r3, r7, #7
 309 000a 1A70     		strb	r2, [r3]
 160:.\generic.c   **** 	/* 'notificationHandle' stores notification data parameters */
 161:.\generic.c   **** 	CYBLE_GATTS_HANDLE_VALUE_NTF_T		DataNotificationHandle;	
 162:.\generic.c   **** 	
 163:.\generic.c   **** 	/* If stack is not busy, then send the notification */
 164:.\generic.c   **** 	if(busyStatus == CYBLE_STACK_STATE_FREE)
 310              		.loc 1 164 0
 311 000c 114B     		ldr	r3, .L18
 312 000e 1B78     		ldrb	r3, [r3]
 313 0010 002B     		cmp	r3, #0
 314 0012 1BD1     		bne	.L16
 165:.\generic.c   **** 	{
 166:.\generic.c   **** 		/* Update notification handle will data*/
 167:.\generic.c   **** 		DataNotificationHandle.attrHandle = CYBLE_CUSTOM_SERVICE_CUSTOM_CHARACTERISTIC_CHAR_HANDLE;				
 315              		.loc 1 167 0
 316 0014 0C23     		mov	r3, #12
 317 0016 FB18     		add	r3, r7, r3
 318 0018 0E22     		mov	r2, #14
 319 001a 1A81     		strh	r2, [r3, #8]
 168:.\generic.c   **** 		DataNotificationHandle.value.val = &Data;
 320              		.loc 1 168 0
 321 001c 0C23     		mov	r3, #12
 322 001e FB18     		add	r3, r7, r3
 323 0020 FA1D     		add	r2, r7, #7
 324 0022 1A60     		str	r2, [r3]
 169:.\generic.c   **** 		DataNotificationHandle.value.len = DATA_NTF_DATA_LEN;
 325              		.loc 1 169 0
 326 0024 0C23     		mov	r3, #12
 327 0026 FB18     		add	r3, r7, r3
 328 0028 0122     		mov	r2, #1
 329 002a 9A80     		strh	r2, [r3, #4]
 170:.\generic.c   **** 
 171:.\generic.c   **** 		/* Send the updated handle as part of attribute for notifications */
 172:.\generic.c   **** 		CyBle_GattsNotification(connectionHandle,&DataNotificationHandle);
 330              		.loc 1 172 0
 331 002c 0A4B     		ldr	r3, .L18+4
 332 002e 0C22     		mov	r2, #12
 333 0030 B918     		add	r1, r7, r2
 334 0032 1A78     		ldrb	r2, [r3]
 335 0034 5B78     		ldrb	r3, [r3, #1]
 336 0036 1B02     		lsl	r3, r3, #8
 337 0038 1A43     		orr	r2, r3
 338 003a 0023     		mov	r3, #0
 339 003c 1204     		lsl	r2, r2, #16
 340 003e 120C     		lsr	r2, r2, #16
 341 0040 1B0C     		lsr	r3, r3, #16
 342 0042 1B04     		lsl	r3, r3, #16
 343 0044 1343     		orr	r3, r2
 344 0046 181C     		mov	r0, r3
 345 0048 FFF7FEFF 		bl	CyBle_GattsNotification
 346              	.L16:
 173:.\generic.c   **** 	}
 174:.\generic.c   **** }
 347              		.loc 1 174 0
 348 004c BD46     		mov	sp, r7
 349 004e 06B0     		add	sp, sp, #24
ARM GAS  C:\Users\ilias\AppData\Local\Temp\ccQqDEwR.s 			page 11


 350              		@ sp needed
 351 0050 80BD     		pop	{r7, pc}
 352              	.L19:
 353 0052 C046     		.align	2
 354              	.L18:
 355 0054 00000000 		.word	busyStatus
 356 0058 00000000 		.word	connectionHandle
 357              		.cfi_endproc
 358              	.LFE38:
 359              		.size	SendDataOverNotification, .-SendDataOverNotification
 360              		.text
 361              	.Letext0:
 362              		.file 2 "Generated_Source\\PSoC4/cytypes.h"
 363              		.file 3 "Generated_Source\\PSoC4/BLE_1_StackGatt.h"
 364              		.file 4 "Generated_Source\\PSoC4/BLE_1_StackGattServer.h"
 365              		.file 5 "Generated_Source\\PSoC4/BLE_1_Stack.h"