ARM GAS  C:\Users\ilias\AppData\Local\Temp\ccpfg9oC.s 			page 1


   1              		.cpu cortex-m0
   2              		.fpu softvfp
   3              		.eabi_attribute 20, 1
   4              		.eabi_attribute 21, 1
   5              		.eabi_attribute 23, 3
   6              		.eabi_attribute 24, 1
   7              		.eabi_attribute 25, 1
   8              		.eabi_attribute 26, 1
   9              		.eabi_attribute 30, 6
  10              		.eabi_attribute 34, 0
  11              		.eabi_attribute 18, 4
  12              		.code	16
  13              		.file	"I2S_1.c"
  14              		.text
  15              	.Ltext0:
  16              		.cfi_sections	.debug_frame
  17              		.global	I2S_1_initVar
  18              		.bss
  19              		.type	I2S_1_initVar, %object
  20              		.size	I2S_1_initVar, 1
  21              	I2S_1_initVar:
  22 0000 00       		.space	1
  23              		.section	.text.I2S_1_Enable,"ax",%progbits
  24              		.align	2
  25              		.global	I2S_1_Enable
  26              		.code	16
  27              		.thumb_func
  28              		.type	I2S_1_Enable, %function
  29              	I2S_1_Enable:
  30              	.LFB2:
  31              		.file 1 ".\\Generated_Source\\PSoC4\\I2S_1.c"
   1:.\Generated_Source\PSoC4/I2S_1.c **** /*******************************************************************************
   2:.\Generated_Source\PSoC4/I2S_1.c **** * File Name: I2S_1.c
   3:.\Generated_Source\PSoC4/I2S_1.c **** * Version 2.70
   4:.\Generated_Source\PSoC4/I2S_1.c **** *
   5:.\Generated_Source\PSoC4/I2S_1.c **** * Description:
   6:.\Generated_Source\PSoC4/I2S_1.c **** *  This file contains the setup, control and status commands for the I2S
   7:.\Generated_Source\PSoC4/I2S_1.c **** *  component.
   8:.\Generated_Source\PSoC4/I2S_1.c **** *
   9:.\Generated_Source\PSoC4/I2S_1.c **** * Note:
  10:.\Generated_Source\PSoC4/I2S_1.c **** *
  11:.\Generated_Source\PSoC4/I2S_1.c **** ********************************************************************************
  12:.\Generated_Source\PSoC4/I2S_1.c **** * Copyright 2008-2015, Cypress Semiconductor Corporation.  All rights reserved.
  13:.\Generated_Source\PSoC4/I2S_1.c **** * You may use this file only in accordance with the license, terms, conditions,
  14:.\Generated_Source\PSoC4/I2S_1.c **** * disclaimers, and limitations in the end user license agreement accompanying
  15:.\Generated_Source\PSoC4/I2S_1.c **** * the software package with which this file was provided.
  16:.\Generated_Source\PSoC4/I2S_1.c **** *******************************************************************************/
  17:.\Generated_Source\PSoC4/I2S_1.c **** 
  18:.\Generated_Source\PSoC4/I2S_1.c **** #include "CyLib.h"
  19:.\Generated_Source\PSoC4/I2S_1.c **** #include "I2S_1.h"
  20:.\Generated_Source\PSoC4/I2S_1.c **** 
  21:.\Generated_Source\PSoC4/I2S_1.c **** uint8 I2S_1_initVar = 0u;
  22:.\Generated_Source\PSoC4/I2S_1.c **** 
  23:.\Generated_Source\PSoC4/I2S_1.c **** 
  24:.\Generated_Source\PSoC4/I2S_1.c **** /*******************************************************************************
  25:.\Generated_Source\PSoC4/I2S_1.c **** * Function Name: I2S_1_Enable
  26:.\Generated_Source\PSoC4/I2S_1.c **** ********************************************************************************
ARM GAS  C:\Users\ilias\AppData\Local\Temp\ccpfg9oC.s 			page 2


  27:.\Generated_Source\PSoC4/I2S_1.c **** *
  28:.\Generated_Source\PSoC4/I2S_1.c **** * Summary:
  29:.\Generated_Source\PSoC4/I2S_1.c **** *  Enables I2S interface. Starts the generation of the sck and ws outputs.
  30:.\Generated_Source\PSoC4/I2S_1.c **** *  The Tx and Rx directions remain disabled. It is not necessary to call
  31:.\Generated_Source\PSoC4/I2S_1.c **** *  I2S_Enable() because the I2S_Start() routine calls this function, which is
  32:.\Generated_Source\PSoC4/I2S_1.c **** *  the preferred method to begin component operation.
  33:.\Generated_Source\PSoC4/I2S_1.c **** *
  34:.\Generated_Source\PSoC4/I2S_1.c **** * Parameters:
  35:.\Generated_Source\PSoC4/I2S_1.c **** *  None.
  36:.\Generated_Source\PSoC4/I2S_1.c **** *
  37:.\Generated_Source\PSoC4/I2S_1.c **** * Return:
  38:.\Generated_Source\PSoC4/I2S_1.c **** *  None.
  39:.\Generated_Source\PSoC4/I2S_1.c **** *
  40:.\Generated_Source\PSoC4/I2S_1.c **** *******************************************************************************/
  41:.\Generated_Source\PSoC4/I2S_1.c **** void I2S_1_Enable(void) 
  42:.\Generated_Source\PSoC4/I2S_1.c **** {
  32              		.loc 1 42 0
  33              		.cfi_startproc
  34 0000 90B5     		push	{r4, r7, lr}
  35              		.cfi_def_cfa_offset 12
  36              		.cfi_offset 4, -12
  37              		.cfi_offset 7, -8
  38              		.cfi_offset 14, -4
  39 0002 83B0     		sub	sp, sp, #12
  40              		.cfi_def_cfa_offset 24
  41 0004 00AF     		add	r7, sp, #0
  42              		.cfi_def_cfa_register 7
  43:.\Generated_Source\PSoC4/I2S_1.c ****     uint8 enableInterrupts;
  44:.\Generated_Source\PSoC4/I2S_1.c **** 
  45:.\Generated_Source\PSoC4/I2S_1.c ****     enableInterrupts = CyEnterCriticalSection();
  43              		.loc 1 45 0
  44 0006 FC1D     		add	r4, r7, #7
  45 0008 FFF7FEFF 		bl	CyEnterCriticalSection
  46 000c 031C     		mov	r3, r0
  47 000e 2370     		strb	r3, [r4]
  46:.\Generated_Source\PSoC4/I2S_1.c ****     I2S_1_AUX_CONTROL_REG |= I2S_1_CNT_START;
  48              		.loc 1 46 0
  49 0010 0B4A     		ldr	r2, .L2
  50 0012 0B4B     		ldr	r3, .L2
  51 0014 1B78     		ldrb	r3, [r3]
  52 0016 DBB2     		uxtb	r3, r3
  53 0018 2021     		mov	r1, #32
  54 001a 0B43     		orr	r3, r1
  55 001c DBB2     		uxtb	r3, r3
  56 001e 1370     		strb	r3, [r2]
  47:.\Generated_Source\PSoC4/I2S_1.c ****     CyExitCriticalSection(enableInterrupts);
  57              		.loc 1 47 0
  58 0020 FB1D     		add	r3, r7, #7
  59 0022 1B78     		ldrb	r3, [r3]
  60 0024 181C     		mov	r0, r3
  61 0026 FFF7FEFF 		bl	CyExitCriticalSection
  48:.\Generated_Source\PSoC4/I2S_1.c **** 
  49:.\Generated_Source\PSoC4/I2S_1.c ****     I2S_1_CONTROL_REG |= I2S_1_EN;
  62              		.loc 1 49 0
  63 002a 064A     		ldr	r2, .L2+4
  64 002c 054B     		ldr	r3, .L2+4
  65 002e 1B78     		ldrb	r3, [r3]
ARM GAS  C:\Users\ilias\AppData\Local\Temp\ccpfg9oC.s 			page 3


  66 0030 DBB2     		uxtb	r3, r3
  67 0032 0421     		mov	r1, #4
  68 0034 0B43     		orr	r3, r1
  69 0036 DBB2     		uxtb	r3, r3
  70 0038 1370     		strb	r3, [r2]
  50:.\Generated_Source\PSoC4/I2S_1.c **** }
  71              		.loc 1 50 0
  72 003a BD46     		mov	sp, r7
  73 003c 03B0     		add	sp, sp, #12
  74              		@ sp needed
  75 003e 90BD     		pop	{r4, r7, pc}
  76              	.L3:
  77              		.align	2
  78              	.L2:
  79 0040 90000F40 		.word	1074725008
  80 0044 71000F40 		.word	1074724977
  81              		.cfi_endproc
  82              	.LFE2:
  83              		.size	I2S_1_Enable, .-I2S_1_Enable
  84              		.section	.text.I2S_1_Init,"ax",%progbits
  85              		.align	2
  86              		.global	I2S_1_Init
  87              		.code	16
  88              		.thumb_func
  89              		.type	I2S_1_Init, %function
  90              	I2S_1_Init:
  91              	.LFB3:
  51:.\Generated_Source\PSoC4/I2S_1.c **** 
  52:.\Generated_Source\PSoC4/I2S_1.c **** 
  53:.\Generated_Source\PSoC4/I2S_1.c **** /*******************************************************************************
  54:.\Generated_Source\PSoC4/I2S_1.c **** * Function Name: I2S_1_Init
  55:.\Generated_Source\PSoC4/I2S_1.c **** ********************************************************************************
  56:.\Generated_Source\PSoC4/I2S_1.c **** *
  57:.\Generated_Source\PSoC4/I2S_1.c **** * Summary:
  58:.\Generated_Source\PSoC4/I2S_1.c **** *  Initializes or restores default I2S configuration provided with customizer.
  59:.\Generated_Source\PSoC4/I2S_1.c **** *  It is not necessary to call I2S_Init() because the I2S_Start() routine calls
  60:.\Generated_Source\PSoC4/I2S_1.c **** *  this function, which is the preferred method to begin component operation.
  61:.\Generated_Source\PSoC4/I2S_1.c **** *
  62:.\Generated_Source\PSoC4/I2S_1.c **** * Parameters:
  63:.\Generated_Source\PSoC4/I2S_1.c **** *  None.
  64:.\Generated_Source\PSoC4/I2S_1.c **** *
  65:.\Generated_Source\PSoC4/I2S_1.c **** * Return:
  66:.\Generated_Source\PSoC4/I2S_1.c **** *  None.
  67:.\Generated_Source\PSoC4/I2S_1.c **** *
  68:.\Generated_Source\PSoC4/I2S_1.c **** *******************************************************************************/
  69:.\Generated_Source\PSoC4/I2S_1.c **** void I2S_1_Init(void) 
  70:.\Generated_Source\PSoC4/I2S_1.c **** {
  92              		.loc 1 70 0
  93              		.cfi_startproc
  94 0000 80B5     		push	{r7, lr}
  95              		.cfi_def_cfa_offset 8
  96              		.cfi_offset 7, -8
  97              		.cfi_offset 14, -4
  98 0002 00AF     		add	r7, sp, #0
  99              		.cfi_def_cfa_register 7
  71:.\Generated_Source\PSoC4/I2S_1.c ****     #if (I2S_1_CLIP_DETECT_ENABLE)
  72:.\Generated_Source\PSoC4/I2S_1.c ****         static const uint8 CYCODE I2S_1_posThresholds[] = {0u};
ARM GAS  C:\Users\ilias\AppData\Local\Temp\ccpfg9oC.s 			page 4


  73:.\Generated_Source\PSoC4/I2S_1.c ****         static const int8  CYCODE I2S_1_negThresholds[] = {-1};
  74:.\Generated_Source\PSoC4/I2S_1.c ****     #endif /* I2S_1_CLIP_DETECT_ENABLE */
  75:.\Generated_Source\PSoC4/I2S_1.c **** 
  76:.\Generated_Source\PSoC4/I2S_1.c ****     #if (I2S_1_DYNAMIC_BIT_RESOLUTION)
  77:.\Generated_Source\PSoC4/I2S_1.c ****         (void)I2S_1_SetDataBits(I2S_1_DATA_BITS);
  78:.\Generated_Source\PSoC4/I2S_1.c ****     #endif /* I2S_1_DYNAMIC_BIT_RESOLUTION */
  79:.\Generated_Source\PSoC4/I2S_1.c **** 
  80:.\Generated_Source\PSoC4/I2S_1.c ****     /* Initialize Tx interrupt source selected in customizer */
  81:.\Generated_Source\PSoC4/I2S_1.c ****     #if (I2S_1_TX_DIRECTION_ENABLE)
  82:.\Generated_Source\PSoC4/I2S_1.c ****         I2S_1_SET_TX_INT_MASK(CH0, I2S_1_TX_INT_SOURCE);
  83:.\Generated_Source\PSoC4/I2S_1.c ****         #if (I2S_1_TX_STEREO_1_PRESENT)
  84:.\Generated_Source\PSoC4/I2S_1.c ****             I2S_1_SET_TX_INT_MASK(CH1, I2S_1_TX_INT_SOURCE);
  85:.\Generated_Source\PSoC4/I2S_1.c ****         #endif /* I2S_1_TX_STEREO_1_PRESENT */
  86:.\Generated_Source\PSoC4/I2S_1.c ****         #if (I2S_1_TX_STEREO_2_PRESENT)
  87:.\Generated_Source\PSoC4/I2S_1.c ****             I2S_1_SET_TX_INT_MASK(CH2, I2S_1_TX_INT_SOURCE);
  88:.\Generated_Source\PSoC4/I2S_1.c ****         #endif /* I2S_1_TX_STEREO_2_PRESENT */
  89:.\Generated_Source\PSoC4/I2S_1.c ****         #if (I2S_1_TX_STEREO_3_PRESENT)
  90:.\Generated_Source\PSoC4/I2S_1.c ****             I2S_1_SET_TX_INT_MASK(CH3, I2S_1_TX_INT_SOURCE);
  91:.\Generated_Source\PSoC4/I2S_1.c ****         #endif /* I2S_1_TX_STEREO_3_PRESENT */
  92:.\Generated_Source\PSoC4/I2S_1.c ****         #if (I2S_1_TX_STEREO_4_PRESENT)
  93:.\Generated_Source\PSoC4/I2S_1.c ****             I2S_1_SET_TX_INT_MASK(CH4, I2S_1_TX_INT_SOURCE);
  94:.\Generated_Source\PSoC4/I2S_1.c ****         #endif /* I2S_1_TX_STEREO_4_PRESENT */
  95:.\Generated_Source\PSoC4/I2S_1.c ****     #endif /* (I2S_1_TX_DIRECTION_ENABLE) */
  96:.\Generated_Source\PSoC4/I2S_1.c ****     
  97:.\Generated_Source\PSoC4/I2S_1.c ****     /* Initialize Rx interrupt source and clipping thresholds selected in customizer */
  98:.\Generated_Source\PSoC4/I2S_1.c ****     #if (I2S_1_RX_DIRECTION_ENABLE)
  99:.\Generated_Source\PSoC4/I2S_1.c ****         I2S_1_SET_RX_INT_MASK(CH0, I2S_1_RX_INT_SOURCE);
 100              		.loc 1 99 0
 101 0004 074A     		ldr	r2, .L5
 102 0006 074B     		ldr	r3, .L5
 103 0008 1B78     		ldrb	r3, [r3]
 104 000a DBB2     		uxtb	r3, r3
 105 000c 0721     		mov	r1, #7
 106 000e 8B43     		bic	r3, r1
 107 0010 DBB2     		uxtb	r3, r3
 108 0012 1370     		strb	r3, [r2]
 109 0014 034B     		ldr	r3, .L5
 110 0016 034A     		ldr	r2, .L5
 111 0018 1278     		ldrb	r2, [r2]
 112 001a D2B2     		uxtb	r2, r2
 113 001c 1A70     		strb	r2, [r3]
 100:.\Generated_Source\PSoC4/I2S_1.c ****         #if (I2S_1_CLIP_DETECT_ENABLE)
 101:.\Generated_Source\PSoC4/I2S_1.c ****             I2S_1_SET_POS_THRESHOLD(CH0, I2S_1_posThresholds[I2S_1_STEREO_0]);
 102:.\Generated_Source\PSoC4/I2S_1.c ****             I2S_1_SET_NEG_THRESHOLD(CH0, I2S_1_negThresholds[I2S_1_STEREO_0]);
 103:.\Generated_Source\PSoC4/I2S_1.c ****         #endif /* I2S_1_CLIP_DETECT_ENABLE */
 104:.\Generated_Source\PSoC4/I2S_1.c ****         #if (I2S_1_RX_STEREO_1_PRESENT)
 105:.\Generated_Source\PSoC4/I2S_1.c ****             I2S_1_SET_RX_INT_MASK(CH1, I2S_1_RX_INT_SOURCE);
 106:.\Generated_Source\PSoC4/I2S_1.c ****             #if (I2S_1_CLIP_DETECT_ENABLE)
 107:.\Generated_Source\PSoC4/I2S_1.c ****                 I2S_1_SET_POS_THRESHOLD(CH1, I2S_1_posThresholds[I2S_1_STEREO_1]);
 108:.\Generated_Source\PSoC4/I2S_1.c ****                 I2S_1_SET_NEG_THRESHOLD(CH1, I2S_1_negThresholds[I2S_1_STEREO_1]);
 109:.\Generated_Source\PSoC4/I2S_1.c ****             #endif /* I2S_1_CLIP_DETECT_ENABLE */
 110:.\Generated_Source\PSoC4/I2S_1.c ****         #endif /* I2S_1_RX_STEREO_1_PRESENT */
 111:.\Generated_Source\PSoC4/I2S_1.c ****         #if (I2S_1_RX_STEREO_2_PRESENT)
 112:.\Generated_Source\PSoC4/I2S_1.c ****             I2S_1_SET_RX_INT_MASK(CH2, I2S_1_RX_INT_SOURCE);
 113:.\Generated_Source\PSoC4/I2S_1.c ****             #if (I2S_1_CLIP_DETECT_ENABLE)
 114:.\Generated_Source\PSoC4/I2S_1.c ****                 I2S_1_SET_POS_THRESHOLD(CH2, I2S_1_posThresholds[I2S_1_STEREO_2]);
 115:.\Generated_Source\PSoC4/I2S_1.c ****                 I2S_1_SET_NEG_THRESHOLD(CH2, I2S_1_negThresholds[I2S_1_STEREO_2]);
ARM GAS  C:\Users\ilias\AppData\Local\Temp\ccpfg9oC.s 			page 5


 116:.\Generated_Source\PSoC4/I2S_1.c ****             #endif /* I2S_1_CLIP_DETECT_ENABLE */
 117:.\Generated_Source\PSoC4/I2S_1.c ****         #endif /* I2S_1_RX_STEREO_2_PRESENT */
 118:.\Generated_Source\PSoC4/I2S_1.c ****         #if (I2S_1_RX_STEREO_3_PRESENT)
 119:.\Generated_Source\PSoC4/I2S_1.c ****             I2S_1_SET_RX_INT_MASK(CH3, I2S_1_RX_INT_SOURCE);
 120:.\Generated_Source\PSoC4/I2S_1.c ****             #if (I2S_1_CLIP_DETECT_ENABLE)
 121:.\Generated_Source\PSoC4/I2S_1.c ****                 I2S_1_SET_POS_THRESHOLD(CH3, I2S_1_posThresholds[I2S_1_STEREO_3]);
 122:.\Generated_Source\PSoC4/I2S_1.c ****                 I2S_1_SET_NEG_THRESHOLD(CH3, I2S_1_negThresholds[I2S_1_STEREO_3]);
 123:.\Generated_Source\PSoC4/I2S_1.c ****             #endif /* I2S_1_CLIP_DETECT_ENABLE */
 124:.\Generated_Source\PSoC4/I2S_1.c ****         #endif /* I2S_1_RX_STEREO_3_PRESENT */
 125:.\Generated_Source\PSoC4/I2S_1.c ****         #if (I2S_1_RX_STEREO_4_PRESENT)
 126:.\Generated_Source\PSoC4/I2S_1.c ****             I2S_1_SET_RX_INT_MASK(CH4, I2S_1_RX_INT_SOURCE);
 127:.\Generated_Source\PSoC4/I2S_1.c ****             #if (I2S_1_CLIP_DETECT_ENABLE)
 128:.\Generated_Source\PSoC4/I2S_1.c ****                 I2S_1_SET_POS_THRESHOLD(CH4, I2S_1_posThresholds[I2S_1_STEREO_4]);
 129:.\Generated_Source\PSoC4/I2S_1.c ****                 I2S_1_SET_NEG_THRESHOLD(CH4, I2S_1_negThresholds[I2S_1_STEREO_4]);
 130:.\Generated_Source\PSoC4/I2S_1.c ****             #endif /* I2S_1_CLIP_DETECT_ENABLE */
 131:.\Generated_Source\PSoC4/I2S_1.c ****         #endif /* I2S_1_RX_STEREO_4_PRESENT */
 132:.\Generated_Source\PSoC4/I2S_1.c ****     #endif /* (I2S_1_RX_DIRECTION_ENABLE) */
 133:.\Generated_Source\PSoC4/I2S_1.c **** }
 114              		.loc 1 133 0
 115 001e BD46     		mov	sp, r7
 116              		@ sp needed
 117 0020 80BD     		pop	{r7, pc}
 118              	.L6:
 119 0022 C046     		.align	2
 120              	.L5:
 121 0024 81000F40 		.word	1074724993
 122              		.cfi_endproc
 123              	.LFE3:
 124              		.size	I2S_1_Init, .-I2S_1_Init
 125              		.section	.text.I2S_1_Start,"ax",%progbits
 126              		.align	2
 127              		.global	I2S_1_Start
 128              		.code	16
 129              		.thumb_func
 130              		.type	I2S_1_Start, %function
 131              	I2S_1_Start:
 132              	.LFB4:
 134:.\Generated_Source\PSoC4/I2S_1.c **** 
 135:.\Generated_Source\PSoC4/I2S_1.c **** 
 136:.\Generated_Source\PSoC4/I2S_1.c **** /*******************************************************************************
 137:.\Generated_Source\PSoC4/I2S_1.c **** * Function Name: I2S_1_Start
 138:.\Generated_Source\PSoC4/I2S_1.c **** ********************************************************************************
 139:.\Generated_Source\PSoC4/I2S_1.c **** *
 140:.\Generated_Source\PSoC4/I2S_1.c **** * Summary:
 141:.\Generated_Source\PSoC4/I2S_1.c **** *  Starts the I2S interface. Starts the generation of the sck and ws outputs.
 142:.\Generated_Source\PSoC4/I2S_1.c **** *  The Tx and Rx directions remain disabled.
 143:.\Generated_Source\PSoC4/I2S_1.c **** *
 144:.\Generated_Source\PSoC4/I2S_1.c **** * Parameters:
 145:.\Generated_Source\PSoC4/I2S_1.c **** *  None.
 146:.\Generated_Source\PSoC4/I2S_1.c **** *
 147:.\Generated_Source\PSoC4/I2S_1.c **** * Return:
 148:.\Generated_Source\PSoC4/I2S_1.c **** *  None.
 149:.\Generated_Source\PSoC4/I2S_1.c **** *
 150:.\Generated_Source\PSoC4/I2S_1.c **** * Global Variables:
 151:.\Generated_Source\PSoC4/I2S_1.c **** *  I2S_1_initVar - used to check initial configuration, modified on
 152:.\Generated_Source\PSoC4/I2S_1.c **** *  first function call.
 153:.\Generated_Source\PSoC4/I2S_1.c **** *
ARM GAS  C:\Users\ilias\AppData\Local\Temp\ccpfg9oC.s 			page 6


 154:.\Generated_Source\PSoC4/I2S_1.c **** * Reentrant:
 155:.\Generated_Source\PSoC4/I2S_1.c **** *  No.
 156:.\Generated_Source\PSoC4/I2S_1.c **** *
 157:.\Generated_Source\PSoC4/I2S_1.c **** *******************************************************************************/
 158:.\Generated_Source\PSoC4/I2S_1.c **** void I2S_1_Start(void) 
 159:.\Generated_Source\PSoC4/I2S_1.c **** {
 133              		.loc 1 159 0
 134              		.cfi_startproc
 135 0000 80B5     		push	{r7, lr}
 136              		.cfi_def_cfa_offset 8
 137              		.cfi_offset 7, -8
 138              		.cfi_offset 14, -4
 139 0002 00AF     		add	r7, sp, #0
 140              		.cfi_def_cfa_register 7
 160:.\Generated_Source\PSoC4/I2S_1.c ****     if(0u == I2S_1_initVar)
 141              		.loc 1 160 0
 142 0004 064B     		ldr	r3, .L9
 143 0006 1B78     		ldrb	r3, [r3]
 144 0008 002B     		cmp	r3, #0
 145 000a 04D1     		bne	.L8
 161:.\Generated_Source\PSoC4/I2S_1.c ****     {
 162:.\Generated_Source\PSoC4/I2S_1.c ****         I2S_1_Init();
 146              		.loc 1 162 0
 147 000c FFF7FEFF 		bl	I2S_1_Init
 163:.\Generated_Source\PSoC4/I2S_1.c ****         I2S_1_initVar = 1u;
 148              		.loc 1 163 0
 149 0010 034B     		ldr	r3, .L9
 150 0012 0122     		mov	r2, #1
 151 0014 1A70     		strb	r2, [r3]
 152              	.L8:
 164:.\Generated_Source\PSoC4/I2S_1.c ****     }
 165:.\Generated_Source\PSoC4/I2S_1.c **** 
 166:.\Generated_Source\PSoC4/I2S_1.c ****     I2S_1_Enable();
 153              		.loc 1 166 0
 154 0016 FFF7FEFF 		bl	I2S_1_Enable
 167:.\Generated_Source\PSoC4/I2S_1.c **** }
 155              		.loc 1 167 0
 156 001a BD46     		mov	sp, r7
 157              		@ sp needed
 158 001c 80BD     		pop	{r7, pc}
 159              	.L10:
 160 001e C046     		.align	2
 161              	.L9:
 162 0020 00000000 		.word	I2S_1_initVar
 163              		.cfi_endproc
 164              	.LFE4:
 165              		.size	I2S_1_Start, .-I2S_1_Start
 166              		.section	.text.I2S_1_Stop,"ax",%progbits
 167              		.align	2
 168              		.global	I2S_1_Stop
 169              		.code	16
 170              		.thumb_func
 171              		.type	I2S_1_Stop, %function
 172              	I2S_1_Stop:
 173              	.LFB5:
 168:.\Generated_Source\PSoC4/I2S_1.c **** 
 169:.\Generated_Source\PSoC4/I2S_1.c **** 
ARM GAS  C:\Users\ilias\AppData\Local\Temp\ccpfg9oC.s 			page 7


 170:.\Generated_Source\PSoC4/I2S_1.c **** /*******************************************************************************
 171:.\Generated_Source\PSoC4/I2S_1.c **** * Function Name: I2S_1_Stop
 172:.\Generated_Source\PSoC4/I2S_1.c **** ********************************************************************************
 173:.\Generated_Source\PSoC4/I2S_1.c **** *
 174:.\Generated_Source\PSoC4/I2S_1.c **** * Summary:
 175:.\Generated_Source\PSoC4/I2S_1.c **** *  Disables the I2S interface. The sck and ws outputs are set to 0. The Tx and
 176:.\Generated_Source\PSoC4/I2S_1.c **** *  Rx directions are disabled and their FIFOs are cleared.
 177:.\Generated_Source\PSoC4/I2S_1.c **** *
 178:.\Generated_Source\PSoC4/I2S_1.c **** * Parameters:
 179:.\Generated_Source\PSoC4/I2S_1.c **** *  None.
 180:.\Generated_Source\PSoC4/I2S_1.c **** *
 181:.\Generated_Source\PSoC4/I2S_1.c **** * Return:
 182:.\Generated_Source\PSoC4/I2S_1.c **** *  None.
 183:.\Generated_Source\PSoC4/I2S_1.c **** *
 184:.\Generated_Source\PSoC4/I2S_1.c **** *******************************************************************************/
 185:.\Generated_Source\PSoC4/I2S_1.c **** void I2S_1_Stop(void) 
 186:.\Generated_Source\PSoC4/I2S_1.c **** {
 174              		.loc 1 186 0
 175              		.cfi_startproc
 176 0000 90B5     		push	{r4, r7, lr}
 177              		.cfi_def_cfa_offset 12
 178              		.cfi_offset 4, -12
 179              		.cfi_offset 7, -8
 180              		.cfi_offset 14, -4
 181 0002 83B0     		sub	sp, sp, #12
 182              		.cfi_def_cfa_offset 24
 183 0004 00AF     		add	r7, sp, #0
 184              		.cfi_def_cfa_register 7
 187:.\Generated_Source\PSoC4/I2S_1.c ****     uint8 enableInterrupts;
 188:.\Generated_Source\PSoC4/I2S_1.c **** 
 189:.\Generated_Source\PSoC4/I2S_1.c ****     I2S_1_CONTROL_REG &= (uint8)~I2S_1_EN;
 185              		.loc 1 189 0
 186 0006 124A     		ldr	r2, .L12
 187 0008 114B     		ldr	r3, .L12
 188 000a 1B78     		ldrb	r3, [r3]
 189 000c DBB2     		uxtb	r3, r3
 190 000e 0421     		mov	r1, #4
 191 0010 8B43     		bic	r3, r1
 192 0012 DBB2     		uxtb	r3, r3
 193 0014 1370     		strb	r3, [r2]
 190:.\Generated_Source\PSoC4/I2S_1.c **** 
 191:.\Generated_Source\PSoC4/I2S_1.c ****     enableInterrupts = CyEnterCriticalSection();
 194              		.loc 1 191 0
 195 0016 FC1D     		add	r4, r7, #7
 196 0018 FFF7FEFF 		bl	CyEnterCriticalSection
 197 001c 031C     		mov	r3, r0
 198 001e 2370     		strb	r3, [r4]
 192:.\Generated_Source\PSoC4/I2S_1.c ****     I2S_1_AUX_CONTROL_REG &= (uint8)~I2S_1_CNT_START;
 199              		.loc 1 192 0
 200 0020 0C4A     		ldr	r2, .L12+4
 201 0022 0C4B     		ldr	r3, .L12+4
 202 0024 1B78     		ldrb	r3, [r3]
 203 0026 DBB2     		uxtb	r3, r3
 204 0028 2021     		mov	r1, #32
 205 002a 8B43     		bic	r3, r1
 206 002c DBB2     		uxtb	r3, r3
 207 002e 1370     		strb	r3, [r2]
ARM GAS  C:\Users\ilias\AppData\Local\Temp\ccpfg9oC.s 			page 8


 193:.\Generated_Source\PSoC4/I2S_1.c ****     CyExitCriticalSection(enableInterrupts);
 208              		.loc 1 193 0
 209 0030 FB1D     		add	r3, r7, #7
 210 0032 1B78     		ldrb	r3, [r3]
 211 0034 181C     		mov	r0, r3
 212 0036 FFF7FEFF 		bl	CyExitCriticalSection
 194:.\Generated_Source\PSoC4/I2S_1.c **** 
 195:.\Generated_Source\PSoC4/I2S_1.c ****     /* Clear counter value to force reload when component is enabled */
 196:.\Generated_Source\PSoC4/I2S_1.c ****     I2S_1_CNT_COUNT_REG = 0u;
 213              		.loc 1 196 0
 214 003a 074B     		ldr	r3, .L12+8
 215 003c 0022     		mov	r2, #0
 216 003e 1A70     		strb	r2, [r3]
 197:.\Generated_Source\PSoC4/I2S_1.c **** 
 198:.\Generated_Source\PSoC4/I2S_1.c ****     #if (I2S_1_TX_DIRECTION_ENABLE)
 199:.\Generated_Source\PSoC4/I2S_1.c ****         I2S_1_DisableTx();
 200:.\Generated_Source\PSoC4/I2S_1.c ****         I2S_1_ClearTxFIFO();
 201:.\Generated_Source\PSoC4/I2S_1.c ****     #endif /* (I2S_1_TX_DIRECTION_ENABLE) */
 202:.\Generated_Source\PSoC4/I2S_1.c ****     
 203:.\Generated_Source\PSoC4/I2S_1.c ****     #if (I2S_1_RX_DIRECTION_ENABLE)
 204:.\Generated_Source\PSoC4/I2S_1.c ****         I2S_1_DisableRx();
 217              		.loc 1 204 0
 218 0040 FFF7FEFF 		bl	I2S_1_DisableRx
 205:.\Generated_Source\PSoC4/I2S_1.c ****         I2S_1_ClearRxFIFO();
 219              		.loc 1 205 0
 220 0044 FFF7FEFF 		bl	I2S_1_ClearRxFIFO
 206:.\Generated_Source\PSoC4/I2S_1.c ****     #endif /* (I2S_1_RX_DIRECTION_ENABLE) */
 207:.\Generated_Source\PSoC4/I2S_1.c **** }
 221              		.loc 1 207 0
 222 0048 BD46     		mov	sp, r7
 223 004a 03B0     		add	sp, sp, #12
 224              		@ sp needed
 225 004c 90BD     		pop	{r4, r7, pc}
 226              	.L13:
 227 004e C046     		.align	2
 228              	.L12:
 229 0050 71000F40 		.word	1074724977
 230 0054 90000F40 		.word	1074725008
 231 0058 70000F40 		.word	1074724976
 232              		.cfi_endproc
 233              	.LFE5:
 234              		.size	I2S_1_Stop, .-I2S_1_Stop
 235              		.section	.text.I2S_1_EnableRx,"ax",%progbits
 236              		.align	2
 237              		.global	I2S_1_EnableRx
 238              		.code	16
 239              		.thumb_func
 240              		.type	I2S_1_EnableRx, %function
 241              	I2S_1_EnableRx:
 242              	.LFB6:
 208:.\Generated_Source\PSoC4/I2S_1.c **** 
 209:.\Generated_Source\PSoC4/I2S_1.c **** #if (I2S_1_DYNAMIC_BIT_RESOLUTION)
 210:.\Generated_Source\PSoC4/I2S_1.c ****     /*******************************************************************************
 211:.\Generated_Source\PSoC4/I2S_1.c ****     * Function Name: I2S_1_SetDataBits
 212:.\Generated_Source\PSoC4/I2S_1.c ****     ********************************************************************************
 213:.\Generated_Source\PSoC4/I2S_1.c ****     *
 214:.\Generated_Source\PSoC4/I2S_1.c ****     * Summary:
ARM GAS  C:\Users\ilias\AppData\Local\Temp\ccpfg9oC.s 			page 9


 215:.\Generated_Source\PSoC4/I2S_1.c ****     *  Sets the number of data bits for each sample. The component must be stopped
 216:.\Generated_Source\PSoC4/I2S_1.c ****     *  before calling this API.
 217:.\Generated_Source\PSoC4/I2S_1.c ****     *
 218:.\Generated_Source\PSoC4/I2S_1.c ****     * Parameters:
 219:.\Generated_Source\PSoC4/I2S_1.c ****     *  dataBits: the number of data bits for each sample. Valid values - 8/16/24/32.
 220:.\Generated_Source\PSoC4/I2S_1.c ****     *  If Tx or Rx byte swapping is enabled, valid values are 16 and 24.
 221:.\Generated_Source\PSoC4/I2S_1.c ****     *
 222:.\Generated_Source\PSoC4/I2S_1.c ****     * Return:
 223:.\Generated_Source\PSoC4/I2S_1.c ****     *  CYRET_SUCCESS  : Operation is successful
 224:.\Generated_Source\PSoC4/I2S_1.c ****     *  CYRET_BAD_PARAM: Invalid parameter value
 225:.\Generated_Source\PSoC4/I2S_1.c ****     *
 226:.\Generated_Source\PSoC4/I2S_1.c ****     * Side effects:
 227:.\Generated_Source\PSoC4/I2S_1.c ****     *  Calling this API while the component is operating may cause unexpected
 228:.\Generated_Source\PSoC4/I2S_1.c ****     *  behavior.
 229:.\Generated_Source\PSoC4/I2S_1.c ****     *
 230:.\Generated_Source\PSoC4/I2S_1.c ****     *******************************************************************************/
 231:.\Generated_Source\PSoC4/I2S_1.c ****     cystatus I2S_1_SetDataBits(uint8 dataBits)   
 232:.\Generated_Source\PSoC4/I2S_1.c ****     {
 233:.\Generated_Source\PSoC4/I2S_1.c ****         cystatus status;
 234:.\Generated_Source\PSoC4/I2S_1.c **** 
 235:.\Generated_Source\PSoC4/I2S_1.c ****         CYASSERT((dataBits >= I2S_1_MIN_DATA_BITS) && (dataBits <= I2S_1_MAX_DATA_BITS));
 236:.\Generated_Source\PSoC4/I2S_1.c **** 
 237:.\Generated_Source\PSoC4/I2S_1.c ****         status = CYRET_SUCCESS;
 238:.\Generated_Source\PSoC4/I2S_1.c ****         /* The component must be stopped prior calling this API. Therefore
 239:.\Generated_Source\PSoC4/I2S_1.c ****         * all the control bits except the bits modified are zeros.
 240:.\Generated_Source\PSoC4/I2S_1.c ****         */
 241:.\Generated_Source\PSoC4/I2S_1.c ****         switch(dataBits)
 242:.\Generated_Source\PSoC4/I2S_1.c ****         {
 243:.\Generated_Source\PSoC4/I2S_1.c ****         case I2S_1_8BIT_DATA:
 244:.\Generated_Source\PSoC4/I2S_1.c ****             I2S_1_CONTROL_REG = I2S_1_8BIT_MODE;
 245:.\Generated_Source\PSoC4/I2S_1.c ****             break;
 246:.\Generated_Source\PSoC4/I2S_1.c ****         case I2S_1_16BIT_DATA:
 247:.\Generated_Source\PSoC4/I2S_1.c ****             I2S_1_CONTROL_REG = I2S_1_16BIT_MODE;
 248:.\Generated_Source\PSoC4/I2S_1.c ****             break;
 249:.\Generated_Source\PSoC4/I2S_1.c ****         case I2S_1_24BIT_DATA:
 250:.\Generated_Source\PSoC4/I2S_1.c ****             I2S_1_CONTROL_REG = I2S_1_24BIT_MODE;
 251:.\Generated_Source\PSoC4/I2S_1.c ****             break;
 252:.\Generated_Source\PSoC4/I2S_1.c ****         case I2S_1_32BIT_DATA:
 253:.\Generated_Source\PSoC4/I2S_1.c ****             I2S_1_CONTROL_REG = I2S_1_32BIT_MODE;
 254:.\Generated_Source\PSoC4/I2S_1.c ****             break;
 255:.\Generated_Source\PSoC4/I2S_1.c ****         default: status = CYRET_BAD_PARAM;
 256:.\Generated_Source\PSoC4/I2S_1.c ****             break;
 257:.\Generated_Source\PSoC4/I2S_1.c ****         }
 258:.\Generated_Source\PSoC4/I2S_1.c **** 
 259:.\Generated_Source\PSoC4/I2S_1.c ****         return (status);
 260:.\Generated_Source\PSoC4/I2S_1.c ****     }
 261:.\Generated_Source\PSoC4/I2S_1.c **** 
 262:.\Generated_Source\PSoC4/I2S_1.c **** #endif /* I2S_1_DYNAMIC_BIT_RESOLUTION */
 263:.\Generated_Source\PSoC4/I2S_1.c **** 
 264:.\Generated_Source\PSoC4/I2S_1.c **** #if(I2S_1_TX_DIRECTION_ENABLE)
 265:.\Generated_Source\PSoC4/I2S_1.c ****     /*******************************************************************************
 266:.\Generated_Source\PSoC4/I2S_1.c ****     * Function Name: I2S_1_EnableTx
 267:.\Generated_Source\PSoC4/I2S_1.c ****     ********************************************************************************
 268:.\Generated_Source\PSoC4/I2S_1.c ****     *
 269:.\Generated_Source\PSoC4/I2S_1.c ****     * Summary:
 270:.\Generated_Source\PSoC4/I2S_1.c ****     *  Enables the Tx direction of the I2S interface.  At the next word
 271:.\Generated_Source\PSoC4/I2S_1.c ****     *  select falling edge transmission will begin.
ARM GAS  C:\Users\ilias\AppData\Local\Temp\ccpfg9oC.s 			page 10


 272:.\Generated_Source\PSoC4/I2S_1.c ****     *
 273:.\Generated_Source\PSoC4/I2S_1.c ****     * Parameters:
 274:.\Generated_Source\PSoC4/I2S_1.c ****     *  None.
 275:.\Generated_Source\PSoC4/I2S_1.c ****     *
 276:.\Generated_Source\PSoC4/I2S_1.c ****     * Return:
 277:.\Generated_Source\PSoC4/I2S_1.c ****     *  None.
 278:.\Generated_Source\PSoC4/I2S_1.c ****     *
 279:.\Generated_Source\PSoC4/I2S_1.c ****     *******************************************************************************/
 280:.\Generated_Source\PSoC4/I2S_1.c ****     void I2S_1_EnableTx(void) 
 281:.\Generated_Source\PSoC4/I2S_1.c ****     {
 282:.\Generated_Source\PSoC4/I2S_1.c ****         uint8 enableInterrupts;
 283:.\Generated_Source\PSoC4/I2S_1.c **** 
 284:.\Generated_Source\PSoC4/I2S_1.c ****         enableInterrupts = CyEnterCriticalSection();
 285:.\Generated_Source\PSoC4/I2S_1.c ****         I2S_1_TX_STS0_1_ACTL_REG |= I2S_1_INT_EN;
 286:.\Generated_Source\PSoC4/I2S_1.c ****         #ifdef I2S_1_TX_STS2_3_ACTL_REG
 287:.\Generated_Source\PSoC4/I2S_1.c ****             I2S_1_TX_STS2_3_ACTL_REG |= I2S_1_INT_EN;
 288:.\Generated_Source\PSoC4/I2S_1.c ****         #endif /* I2S_1_TX_STS2_3_ACTL_REG */
 289:.\Generated_Source\PSoC4/I2S_1.c ****         #ifdef I2S_1_TX_STS4_ACTL_REG
 290:.\Generated_Source\PSoC4/I2S_1.c ****             I2S_1_TX_STS4_ACTL_REG |= I2S_1_INT_EN;
 291:.\Generated_Source\PSoC4/I2S_1.c ****         #endif /* I2S_1_TX_STS4_ACTL_REG */
 292:.\Generated_Source\PSoC4/I2S_1.c ****         CyExitCriticalSection(enableInterrupts);
 293:.\Generated_Source\PSoC4/I2S_1.c ****         
 294:.\Generated_Source\PSoC4/I2S_1.c ****         I2S_1_CONTROL_REG |= I2S_1_TX_EN;
 295:.\Generated_Source\PSoC4/I2S_1.c ****     }
 296:.\Generated_Source\PSoC4/I2S_1.c **** 
 297:.\Generated_Source\PSoC4/I2S_1.c **** 
 298:.\Generated_Source\PSoC4/I2S_1.c ****     /*******************************************************************************
 299:.\Generated_Source\PSoC4/I2S_1.c ****     * Function Name: I2S_1_DisableTx
 300:.\Generated_Source\PSoC4/I2S_1.c ****     ********************************************************************************
 301:.\Generated_Source\PSoC4/I2S_1.c ****     *
 302:.\Generated_Source\PSoC4/I2S_1.c ****     * Summary:
 303:.\Generated_Source\PSoC4/I2S_1.c ****     *  Disables the Tx direction of the I2S interface.  At the next word
 304:.\Generated_Source\PSoC4/I2S_1.c ****     *  select falling edge transmission of data will stop and a constant 0 value
 305:.\Generated_Source\PSoC4/I2S_1.c ****     *  will be transmitted.
 306:.\Generated_Source\PSoC4/I2S_1.c ****     *
 307:.\Generated_Source\PSoC4/I2S_1.c ****     * Parameters:
 308:.\Generated_Source\PSoC4/I2S_1.c ****     *  None.
 309:.\Generated_Source\PSoC4/I2S_1.c ****     *
 310:.\Generated_Source\PSoC4/I2S_1.c ****     * Return:
 311:.\Generated_Source\PSoC4/I2S_1.c ****     *  None.
 312:.\Generated_Source\PSoC4/I2S_1.c ****     *
 313:.\Generated_Source\PSoC4/I2S_1.c ****     *******************************************************************************/
 314:.\Generated_Source\PSoC4/I2S_1.c ****     void I2S_1_DisableTx(void) 
 315:.\Generated_Source\PSoC4/I2S_1.c ****     {
 316:.\Generated_Source\PSoC4/I2S_1.c ****         uint8 enableInterrupts;
 317:.\Generated_Source\PSoC4/I2S_1.c **** 
 318:.\Generated_Source\PSoC4/I2S_1.c ****         I2S_1_CONTROL_REG &= (uint8)~I2S_1_TX_EN;
 319:.\Generated_Source\PSoC4/I2S_1.c **** 
 320:.\Generated_Source\PSoC4/I2S_1.c ****         enableInterrupts = CyEnterCriticalSection();
 321:.\Generated_Source\PSoC4/I2S_1.c ****         I2S_1_TX_STS0_1_ACTL_REG &= (uint8)~I2S_1_INT_EN;
 322:.\Generated_Source\PSoC4/I2S_1.c ****         #ifdef I2S_1_TX_STS2_3_ACTL_REG
 323:.\Generated_Source\PSoC4/I2S_1.c ****             I2S_1_TX_STS2_3_ACTL_REG &= (uint8)~I2S_1_INT_EN;
 324:.\Generated_Source\PSoC4/I2S_1.c ****         #endif /* I2S_1_TX_STS2_3_ACTL_REG */
 325:.\Generated_Source\PSoC4/I2S_1.c ****         #ifdef I2S_1_TX_STS4_ACTL_REG
 326:.\Generated_Source\PSoC4/I2S_1.c ****             I2S_1_TX_STS4_ACTL_REG &= (uint8)~I2S_1_INT_EN;
 327:.\Generated_Source\PSoC4/I2S_1.c ****         #endif /* I2S_1_TX_STS4_ACTL_REG */
 328:.\Generated_Source\PSoC4/I2S_1.c ****         CyExitCriticalSection(enableInterrupts);
ARM GAS  C:\Users\ilias\AppData\Local\Temp\ccpfg9oC.s 			page 11


 329:.\Generated_Source\PSoC4/I2S_1.c ****     }
 330:.\Generated_Source\PSoC4/I2S_1.c **** 
 331:.\Generated_Source\PSoC4/I2S_1.c **** 
 332:.\Generated_Source\PSoC4/I2S_1.c ****     /*******************************************************************************
 333:.\Generated_Source\PSoC4/I2S_1.c ****     * Function Name: I2S_1_ClearTxFIFO
 334:.\Generated_Source\PSoC4/I2S_1.c ****     ********************************************************************************
 335:.\Generated_Source\PSoC4/I2S_1.c ****     *
 336:.\Generated_Source\PSoC4/I2S_1.c ****     * Summary:
 337:.\Generated_Source\PSoC4/I2S_1.c ****     *  Clears out the FIFOs for all Tx channels. Any data present in the FIFO will
 338:.\Generated_Source\PSoC4/I2S_1.c ****     *  not be sent. This call should be made only when the Tx direction is disabled.
 339:.\Generated_Source\PSoC4/I2S_1.c ****     *
 340:.\Generated_Source\PSoC4/I2S_1.c ****     * Parameters:
 341:.\Generated_Source\PSoC4/I2S_1.c ****     *  None.
 342:.\Generated_Source\PSoC4/I2S_1.c ****     *
 343:.\Generated_Source\PSoC4/I2S_1.c ****     * Return:
 344:.\Generated_Source\PSoC4/I2S_1.c ****     *  None.
 345:.\Generated_Source\PSoC4/I2S_1.c ****     *
 346:.\Generated_Source\PSoC4/I2S_1.c ****     *******************************************************************************/
 347:.\Generated_Source\PSoC4/I2S_1.c ****     void I2S_1_ClearTxFIFO(void) 
 348:.\Generated_Source\PSoC4/I2S_1.c ****     {
 349:.\Generated_Source\PSoC4/I2S_1.c ****         uint8 enableInterrupts;
 350:.\Generated_Source\PSoC4/I2S_1.c **** 
 351:.\Generated_Source\PSoC4/I2S_1.c ****         enableInterrupts = CyEnterCriticalSection();
 352:.\Generated_Source\PSoC4/I2S_1.c ****         I2S_1_CLEAR_TX_FIFO(CH0);
 353:.\Generated_Source\PSoC4/I2S_1.c ****         #if (I2S_1_TX_STEREO_1_PRESENT)
 354:.\Generated_Source\PSoC4/I2S_1.c ****             I2S_1_CLEAR_TX_FIFO(CH1);
 355:.\Generated_Source\PSoC4/I2S_1.c ****         #endif /* I2S_1_TX_STEREO_1_PRESENT */
 356:.\Generated_Source\PSoC4/I2S_1.c ****         #if (I2S_1_TX_STEREO_2_PRESENT)
 357:.\Generated_Source\PSoC4/I2S_1.c ****             I2S_1_CLEAR_TX_FIFO(CH2);
 358:.\Generated_Source\PSoC4/I2S_1.c ****         #endif /* I2S_1_TX_STEREO_2_PRESENT */
 359:.\Generated_Source\PSoC4/I2S_1.c ****         #if (I2S_1_TX_STEREO_3_PRESENT)
 360:.\Generated_Source\PSoC4/I2S_1.c ****             I2S_1_CLEAR_TX_FIFO(CH3);
 361:.\Generated_Source\PSoC4/I2S_1.c ****         #endif /* I2S_1_TX_STEREO_3_PRESENT */
 362:.\Generated_Source\PSoC4/I2S_1.c ****         #if (I2S_1_TX_STEREO_4_PRESENT)
 363:.\Generated_Source\PSoC4/I2S_1.c ****             I2S_1_CLEAR_TX_FIFO(CH4);
 364:.\Generated_Source\PSoC4/I2S_1.c ****         #endif /* I2S_1_TX_STEREO_4_PRESENT */
 365:.\Generated_Source\PSoC4/I2S_1.c ****         CyExitCriticalSection(enableInterrupts);
 366:.\Generated_Source\PSoC4/I2S_1.c ****     }
 367:.\Generated_Source\PSoC4/I2S_1.c **** 
 368:.\Generated_Source\PSoC4/I2S_1.c **** #endif /* (I2S_1_TX_DIRECTION_ENABLE) */
 369:.\Generated_Source\PSoC4/I2S_1.c **** 
 370:.\Generated_Source\PSoC4/I2S_1.c **** 
 371:.\Generated_Source\PSoC4/I2S_1.c **** #if(I2S_1_RX_DIRECTION_ENABLE)
 372:.\Generated_Source\PSoC4/I2S_1.c ****     /*******************************************************************************
 373:.\Generated_Source\PSoC4/I2S_1.c ****     * Function Name: I2S_1_EnableRx
 374:.\Generated_Source\PSoC4/I2S_1.c ****     ********************************************************************************
 375:.\Generated_Source\PSoC4/I2S_1.c ****     *
 376:.\Generated_Source\PSoC4/I2S_1.c ****     * Summary:
 377:.\Generated_Source\PSoC4/I2S_1.c ****     *  Enables the Rx direction of the I2S interface.  At the next word
 378:.\Generated_Source\PSoC4/I2S_1.c ****     *  select falling edge reception of data will begin.
 379:.\Generated_Source\PSoC4/I2S_1.c ****     *
 380:.\Generated_Source\PSoC4/I2S_1.c ****     * Parameters:
 381:.\Generated_Source\PSoC4/I2S_1.c ****     *  None.
 382:.\Generated_Source\PSoC4/I2S_1.c ****     *
 383:.\Generated_Source\PSoC4/I2S_1.c ****     * Return:
 384:.\Generated_Source\PSoC4/I2S_1.c ****     *  None.
 385:.\Generated_Source\PSoC4/I2S_1.c ****     *
ARM GAS  C:\Users\ilias\AppData\Local\Temp\ccpfg9oC.s 			page 12


 386:.\Generated_Source\PSoC4/I2S_1.c ****     *******************************************************************************/
 387:.\Generated_Source\PSoC4/I2S_1.c ****     void I2S_1_EnableRx(void) 
 388:.\Generated_Source\PSoC4/I2S_1.c ****     {
 243              		.loc 1 388 0
 244              		.cfi_startproc
 245 0000 90B5     		push	{r4, r7, lr}
 246              		.cfi_def_cfa_offset 12
 247              		.cfi_offset 4, -12
 248              		.cfi_offset 7, -8
 249              		.cfi_offset 14, -4
 250 0002 83B0     		sub	sp, sp, #12
 251              		.cfi_def_cfa_offset 24
 252 0004 00AF     		add	r7, sp, #0
 253              		.cfi_def_cfa_register 7
 389:.\Generated_Source\PSoC4/I2S_1.c ****         uint8 enableInterrupts;
 390:.\Generated_Source\PSoC4/I2S_1.c **** 
 391:.\Generated_Source\PSoC4/I2S_1.c ****         enableInterrupts = CyEnterCriticalSection();
 254              		.loc 1 391 0
 255 0006 FC1D     		add	r4, r7, #7
 256 0008 FFF7FEFF 		bl	CyEnterCriticalSection
 257 000c 031C     		mov	r3, r0
 258 000e 2370     		strb	r3, [r4]
 392:.\Generated_Source\PSoC4/I2S_1.c ****         I2S_1_RX_STS0_1_ACTL_REG |= I2S_1_INT_EN;
 259              		.loc 1 392 0
 260 0010 0B4A     		ldr	r2, .L15
 261 0012 0B4B     		ldr	r3, .L15
 262 0014 1B78     		ldrb	r3, [r3]
 263 0016 DBB2     		uxtb	r3, r3
 264 0018 1021     		mov	r1, #16
 265 001a 0B43     		orr	r3, r1
 266 001c DBB2     		uxtb	r3, r3
 267 001e 1370     		strb	r3, [r2]
 393:.\Generated_Source\PSoC4/I2S_1.c ****         #ifdef I2S_1_RX_STS2_3_ACTL_REG
 394:.\Generated_Source\PSoC4/I2S_1.c ****             I2S_1_RX_STS2_3_ACTL_REG |= I2S_1_INT_EN;
 395:.\Generated_Source\PSoC4/I2S_1.c ****         #endif /* I2S_1_RX_STS2_3_ACTL_REG */
 396:.\Generated_Source\PSoC4/I2S_1.c ****         #ifdef I2S_1_RX_STS4_ACTL_REG
 397:.\Generated_Source\PSoC4/I2S_1.c ****             I2S_1_RX_STS4_ACTL_REG |= I2S_1_INT_EN;
 398:.\Generated_Source\PSoC4/I2S_1.c ****         #endif /* I2S_1_RX_STS4_ACTL_REG */
 399:.\Generated_Source\PSoC4/I2S_1.c ****         CyExitCriticalSection(enableInterrupts);
 268              		.loc 1 399 0
 269 0020 FB1D     		add	r3, r7, #7
 270 0022 1B78     		ldrb	r3, [r3]
 271 0024 181C     		mov	r0, r3
 272 0026 FFF7FEFF 		bl	CyExitCriticalSection
 400:.\Generated_Source\PSoC4/I2S_1.c ****         
 401:.\Generated_Source\PSoC4/I2S_1.c ****         I2S_1_CONTROL_REG |= I2S_1_RX_EN;
 273              		.loc 1 401 0
 274 002a 064A     		ldr	r2, .L15+4
 275 002c 054B     		ldr	r3, .L15+4
 276 002e 1B78     		ldrb	r3, [r3]
 277 0030 DBB2     		uxtb	r3, r3
 278 0032 0221     		mov	r1, #2
 279 0034 0B43     		orr	r3, r1
 280 0036 DBB2     		uxtb	r3, r3
 281 0038 1370     		strb	r3, [r2]
 402:.\Generated_Source\PSoC4/I2S_1.c ****     }
 282              		.loc 1 402 0
ARM GAS  C:\Users\ilias\AppData\Local\Temp\ccpfg9oC.s 			page 13


 283 003a BD46     		mov	sp, r7
 284 003c 03B0     		add	sp, sp, #12
 285              		@ sp needed
 286 003e 90BD     		pop	{r4, r7, pc}
 287              	.L16:
 288              		.align	2
 289              	.L15:
 290 0040 91000F40 		.word	1074725009
 291 0044 71000F40 		.word	1074724977
 292              		.cfi_endproc
 293              	.LFE6:
 294              		.size	I2S_1_EnableRx, .-I2S_1_EnableRx
 295              		.section	.text.I2S_1_DisableRx,"ax",%progbits
 296              		.align	2
 297              		.global	I2S_1_DisableRx
 298              		.code	16
 299              		.thumb_func
 300              		.type	I2S_1_DisableRx, %function
 301              	I2S_1_DisableRx:
 302              	.LFB7:
 403:.\Generated_Source\PSoC4/I2S_1.c **** 
 404:.\Generated_Source\PSoC4/I2S_1.c **** 
 405:.\Generated_Source\PSoC4/I2S_1.c ****     /*******************************************************************************
 406:.\Generated_Source\PSoC4/I2S_1.c ****     * Function Name: I2S_1_DisableRx
 407:.\Generated_Source\PSoC4/I2S_1.c ****     ********************************************************************************
 408:.\Generated_Source\PSoC4/I2S_1.c ****     *
 409:.\Generated_Source\PSoC4/I2S_1.c ****     * Summary:
 410:.\Generated_Source\PSoC4/I2S_1.c ****     *  Disables the Rx direction of the I2S interface.
 411:.\Generated_Source\PSoC4/I2S_1.c ****     *
 412:.\Generated_Source\PSoC4/I2S_1.c ****     * Parameters:
 413:.\Generated_Source\PSoC4/I2S_1.c ****     *  None.
 414:.\Generated_Source\PSoC4/I2S_1.c ****     *
 415:.\Generated_Source\PSoC4/I2S_1.c ****     * Return:
 416:.\Generated_Source\PSoC4/I2S_1.c ****     *  None.
 417:.\Generated_Source\PSoC4/I2S_1.c ****     *
 418:.\Generated_Source\PSoC4/I2S_1.c ****     *******************************************************************************/
 419:.\Generated_Source\PSoC4/I2S_1.c ****     void I2S_1_DisableRx(void) 
 420:.\Generated_Source\PSoC4/I2S_1.c ****     {
 303              		.loc 1 420 0
 304              		.cfi_startproc
 305 0000 90B5     		push	{r4, r7, lr}
 306              		.cfi_def_cfa_offset 12
 307              		.cfi_offset 4, -12
 308              		.cfi_offset 7, -8
 309              		.cfi_offset 14, -4
 310 0002 83B0     		sub	sp, sp, #12
 311              		.cfi_def_cfa_offset 24
 312 0004 00AF     		add	r7, sp, #0
 313              		.cfi_def_cfa_register 7
 421:.\Generated_Source\PSoC4/I2S_1.c ****         uint8 enableInterrupts;
 422:.\Generated_Source\PSoC4/I2S_1.c **** 
 423:.\Generated_Source\PSoC4/I2S_1.c ****         I2S_1_CONTROL_REG &= (uint8)~I2S_1_RX_EN;
 314              		.loc 1 423 0
 315 0006 0E4A     		ldr	r2, .L18
 316 0008 0D4B     		ldr	r3, .L18
 317 000a 1B78     		ldrb	r3, [r3]
 318 000c DBB2     		uxtb	r3, r3
ARM GAS  C:\Users\ilias\AppData\Local\Temp\ccpfg9oC.s 			page 14


 319 000e 0221     		mov	r1, #2
 320 0010 8B43     		bic	r3, r1
 321 0012 DBB2     		uxtb	r3, r3
 322 0014 1370     		strb	r3, [r2]
 424:.\Generated_Source\PSoC4/I2S_1.c **** 
 425:.\Generated_Source\PSoC4/I2S_1.c ****         enableInterrupts = CyEnterCriticalSection();
 323              		.loc 1 425 0
 324 0016 FC1D     		add	r4, r7, #7
 325 0018 FFF7FEFF 		bl	CyEnterCriticalSection
 326 001c 031C     		mov	r3, r0
 327 001e 2370     		strb	r3, [r4]
 426:.\Generated_Source\PSoC4/I2S_1.c ****         I2S_1_RX_STS0_1_ACTL_REG &= (uint8)~I2S_1_INT_EN;
 328              		.loc 1 426 0
 329 0020 084A     		ldr	r2, .L18+4
 330 0022 084B     		ldr	r3, .L18+4
 331 0024 1B78     		ldrb	r3, [r3]
 332 0026 DBB2     		uxtb	r3, r3
 333 0028 1021     		mov	r1, #16
 334 002a 8B43     		bic	r3, r1
 335 002c DBB2     		uxtb	r3, r3
 336 002e 1370     		strb	r3, [r2]
 427:.\Generated_Source\PSoC4/I2S_1.c ****         #ifdef I2S_1_RX_STS2_3_ACTL_REG
 428:.\Generated_Source\PSoC4/I2S_1.c ****             I2S_1_RX_STS2_3_ACTL_REG &= (uint8)~I2S_1_INT_EN;
 429:.\Generated_Source\PSoC4/I2S_1.c ****         #endif /* I2S_1_RX_STS2_3_ACTL_REG */
 430:.\Generated_Source\PSoC4/I2S_1.c ****         #ifdef I2S_1_RX_STS4_ACTL_REG
 431:.\Generated_Source\PSoC4/I2S_1.c ****             I2S_1_RX_STS4_ACTL_REG &= (uint8)~I2S_1_INT_EN;
 432:.\Generated_Source\PSoC4/I2S_1.c ****         #endif /* I2S_1_RX_STS4_ACTL_REG */
 433:.\Generated_Source\PSoC4/I2S_1.c ****         CyExitCriticalSection(enableInterrupts);
 337              		.loc 1 433 0
 338 0030 FB1D     		add	r3, r7, #7
 339 0032 1B78     		ldrb	r3, [r3]
 340 0034 181C     		mov	r0, r3
 341 0036 FFF7FEFF 		bl	CyExitCriticalSection
 434:.\Generated_Source\PSoC4/I2S_1.c ****     }
 342              		.loc 1 434 0
 343 003a BD46     		mov	sp, r7
 344 003c 03B0     		add	sp, sp, #12
 345              		@ sp needed
 346 003e 90BD     		pop	{r4, r7, pc}
 347              	.L19:
 348              		.align	2
 349              	.L18:
 350 0040 71000F40 		.word	1074724977
 351 0044 91000F40 		.word	1074725009
 352              		.cfi_endproc
 353              	.LFE7:
 354              		.size	I2S_1_DisableRx, .-I2S_1_DisableRx
 355              		.section	.text.I2S_1_ClearRxFIFO,"ax",%progbits
 356              		.align	2
 357              		.global	I2S_1_ClearRxFIFO
 358              		.code	16
 359              		.thumb_func
 360              		.type	I2S_1_ClearRxFIFO, %function
 361              	I2S_1_ClearRxFIFO:
 362              	.LFB8:
 435:.\Generated_Source\PSoC4/I2S_1.c **** 
 436:.\Generated_Source\PSoC4/I2S_1.c **** 
ARM GAS  C:\Users\ilias\AppData\Local\Temp\ccpfg9oC.s 			page 15


 437:.\Generated_Source\PSoC4/I2S_1.c ****     /*******************************************************************************
 438:.\Generated_Source\PSoC4/I2S_1.c ****     * Function Name: I2S_1_ClearRxFIFO
 439:.\Generated_Source\PSoC4/I2S_1.c ****     ********************************************************************************
 440:.\Generated_Source\PSoC4/I2S_1.c ****     *
 441:.\Generated_Source\PSoC4/I2S_1.c ****     * Summary:
 442:.\Generated_Source\PSoC4/I2S_1.c ****     *  Clears out the Rx FIFO.  Any data present in the FIFO will be lost.
 443:.\Generated_Source\PSoC4/I2S_1.c ****     *  This call should be made only when the Rx direction is disabled.
 444:.\Generated_Source\PSoC4/I2S_1.c ****     *
 445:.\Generated_Source\PSoC4/I2S_1.c ****     * Parameters:
 446:.\Generated_Source\PSoC4/I2S_1.c ****     *  None.
 447:.\Generated_Source\PSoC4/I2S_1.c ****     *
 448:.\Generated_Source\PSoC4/I2S_1.c ****     * Return:
 449:.\Generated_Source\PSoC4/I2S_1.c ****     *  None.
 450:.\Generated_Source\PSoC4/I2S_1.c ****     *
 451:.\Generated_Source\PSoC4/I2S_1.c ****     *******************************************************************************/
 452:.\Generated_Source\PSoC4/I2S_1.c ****     void I2S_1_ClearRxFIFO(void) 
 453:.\Generated_Source\PSoC4/I2S_1.c ****     {
 363              		.loc 1 453 0
 364              		.cfi_startproc
 365 0000 90B5     		push	{r4, r7, lr}
 366              		.cfi_def_cfa_offset 12
 367              		.cfi_offset 4, -12
 368              		.cfi_offset 7, -8
 369              		.cfi_offset 14, -4
 370 0002 83B0     		sub	sp, sp, #12
 371              		.cfi_def_cfa_offset 24
 372 0004 00AF     		add	r7, sp, #0
 373              		.cfi_def_cfa_register 7
 454:.\Generated_Source\PSoC4/I2S_1.c ****         uint8 enableInterrupts;
 455:.\Generated_Source\PSoC4/I2S_1.c **** 
 456:.\Generated_Source\PSoC4/I2S_1.c ****         enableInterrupts = CyEnterCriticalSection();
 374              		.loc 1 456 0
 375 0006 FC1D     		add	r4, r7, #7
 376 0008 FFF7FEFF 		bl	CyEnterCriticalSection
 377 000c 031C     		mov	r3, r0
 378 000e 2370     		strb	r3, [r4]
 457:.\Generated_Source\PSoC4/I2S_1.c ****         I2S_1_CLEAR_RX_FIFO(CH0);
 379              		.loc 1 457 0
 380 0010 0B4A     		ldr	r2, .L21
 381 0012 0B4B     		ldr	r3, .L21
 382 0014 1B78     		ldrb	r3, [r3]
 383 0016 DBB2     		uxtb	r3, r3
 384 0018 0321     		mov	r1, #3
 385 001a 0B43     		orr	r3, r1
 386 001c DBB2     		uxtb	r3, r3
 387 001e 1370     		strb	r3, [r2]
 388 0020 074A     		ldr	r2, .L21
 389 0022 074B     		ldr	r3, .L21
 390 0024 1B78     		ldrb	r3, [r3]
 391 0026 DBB2     		uxtb	r3, r3
 392 0028 0321     		mov	r1, #3
 393 002a 8B43     		bic	r3, r1
 394 002c DBB2     		uxtb	r3, r3
 395 002e 1370     		strb	r3, [r2]
 458:.\Generated_Source\PSoC4/I2S_1.c ****         #if (I2S_1_RX_STEREO_1_PRESENT)
 459:.\Generated_Source\PSoC4/I2S_1.c ****             I2S_1_CLEAR_RX_FIFO(CH1);
 460:.\Generated_Source\PSoC4/I2S_1.c ****         #endif /* I2S_1_RX_STEREO_1_PRESENT */
ARM GAS  C:\Users\ilias\AppData\Local\Temp\ccpfg9oC.s 			page 16


 461:.\Generated_Source\PSoC4/I2S_1.c ****         #if (I2S_1_RX_STEREO_2_PRESENT)
 462:.\Generated_Source\PSoC4/I2S_1.c ****             I2S_1_CLEAR_RX_FIFO(CH2);
 463:.\Generated_Source\PSoC4/I2S_1.c ****         #endif /* I2S_1_RX_STEREO_2_PRESENT */
 464:.\Generated_Source\PSoC4/I2S_1.c ****         #if (I2S_1_RX_STEREO_3_PRESENT)
 465:.\Generated_Source\PSoC4/I2S_1.c ****             I2S_1_CLEAR_RX_FIFO(CH3);
 466:.\Generated_Source\PSoC4/I2S_1.c ****         #endif /* I2S_1_RX_STEREO_3_PRESENT */
 467:.\Generated_Source\PSoC4/I2S_1.c ****         #if (I2S_1_RX_STEREO_4_PRESENT)
 468:.\Generated_Source\PSoC4/I2S_1.c ****             I2S_1_CLEAR_RX_FIFO(CH4);
 469:.\Generated_Source\PSoC4/I2S_1.c ****         #endif /* I2S_1_RX_STEREO_4_PRESENT */
 470:.\Generated_Source\PSoC4/I2S_1.c ****         CyExitCriticalSection(enableInterrupts);
 396              		.loc 1 470 0
 397 0030 FB1D     		add	r3, r7, #7
 398 0032 1B78     		ldrb	r3, [r3]
 399 0034 181C     		mov	r0, r3
 400 0036 FFF7FEFF 		bl	CyExitCriticalSection
 471:.\Generated_Source\PSoC4/I2S_1.c ****     }
 401              		.loc 1 471 0
 402 003a BD46     		mov	sp, r7
 403 003c 03B0     		add	sp, sp, #12
 404              		@ sp needed
 405 003e 90BD     		pop	{r4, r7, pc}
 406              	.L22:
 407              		.align	2
 408              	.L21:
 409 0040 91000F40 		.word	1074725009
 410              		.cfi_endproc
 411              	.LFE8:
 412              		.size	I2S_1_ClearRxFIFO, .-I2S_1_ClearRxFIFO
 413              		.text
 414              	.Letext0:
 415              		.file 2 ".\\Generated_Source\\PSoC4\\cytypes.h"