ARM GAS  C:\Users\ilias\AppData\Local\Temp\ccuzXXgF.s 			page 1


   1              		.cpu cortex-m0
   2              		.fpu softvfp
   3              		.eabi_attribute 20, 1
   4              		.eabi_attribute 21, 1
   5              		.eabi_attribute 23, 3
   6              		.eabi_attribute 24, 1
   7              		.eabi_attribute 25, 1
   8              		.eabi_attribute 26, 1
   9              		.eabi_attribute 30, 6
  10              		.eabi_attribute 34, 0
  11              		.eabi_attribute 18, 4
  12              		.code	16
  13              		.file	"main.c"
  14              		.text
  15              	.Ltext0:
  16              		.cfi_sections	.debug_frame
  17              		.section	.text.main,"ax",%progbits
  18              		.align	2
  19              		.global	main
  20              		.code	16
  21              		.thumb_func
  22              		.type	main, %function
  23              	main:
  24              	.LFB37:
  25              		.file 1 ".\\main.c"
   1:.\main.c      **** /* ========================================
   2:.\main.c      ****  *
   3:.\main.c      ****  * Copyright YOUR COMPANY, THE YEAR
   4:.\main.c      ****  * All Rights Reserved
   5:.\main.c      ****  * UNPUBLISHED, LICENSED SOFTWARE.
   6:.\main.c      ****  *
   7:.\main.c      ****  * CONFIDENTIAL AND PROPRIETARY INFORMATION
   8:.\main.c      ****  * WHICH IS THE PROPERTY OF your company.
   9:.\main.c      ****  *
  10:.\main.c      ****  * ========================================
  11:.\main.c      **** */
  12:.\main.c      **** #include <main.h>
  13:.\main.c      **** 
  14:.\main.c      **** extern uint8 sendNotifications;	
  15:.\main.c      **** 
  16:.\main.c      **** extern uint8 deviceConnected;
  17:.\main.c      **** 
  18:.\main.c      **** /* 'connectionHandle' stores connection parameters */
  19:.\main.c      **** extern CYBLE_CONN_HANDLE_T  connectionHandle;
  20:.\main.c      **** 
  21:.\main.c      **** int main()
  22:.\main.c      **** {
  26              		.loc 1 22 0
  27              		.cfi_startproc
  28 0000 80B5     		push	{r7, lr}
  29              		.cfi_def_cfa_offset 8
  30              		.cfi_offset 7, -8
  31              		.cfi_offset 14, -4
  32 0002 00AF     		add	r7, sp, #0
  33              		.cfi_def_cfa_register 7
  23:.\main.c      ****     /* Place your initialization/startup code here (e.g. MyInst_Start()) */
  24:.\main.c      ****     InitializeSystem();
ARM GAS  C:\Users\ilias\AppData\Local\Temp\ccuzXXgF.s 			page 2


  34              		.loc 1 24 0
  35 0004 FFF7FEFF 		bl	InitializeSystem
  36              	.L3:
  25:.\main.c      ****     for(;;)
  26:.\main.c      ****     {
  27:.\main.c      ****         CyBle_ProcessEvents();
  37              		.loc 1 27 0
  38 0008 FFF7FEFF 		bl	CyBle_ProcessEvents
  28:.\main.c      ****         if(TRUE == deviceConnected)
  39              		.loc 1 28 0
  40 000c 054B     		ldr	r3, .L4
  41 000e 1B78     		ldrb	r3, [r3]
  42 0010 012B     		cmp	r3, #1
  43 0012 05D1     		bne	.L2
  29:.\main.c      **** 		{
  30:.\main.c      **** 			
  31:.\main.c      **** 			/* Send CapSense Slider data when respective notification is enabled */
  32:.\main.c      **** 			if(sendNotifications == TRUE)
  44              		.loc 1 32 0
  45 0014 044B     		ldr	r3, .L4+4
  46 0016 1B78     		ldrb	r3, [r3]
  47 0018 012B     		cmp	r3, #1
  48 001a 01D1     		bne	.L2
  33:.\main.c      **** 			{
  34:.\main.c      **** 				//if(CYBLE_BLESS_STATE_ECO_STABLE ==CyBle_GetBleSsState())
  35:.\main.c      **** 				//{
  36:.\main.c      **** 					/* Check for CapSense slider swipe and send data accordingly */
  37:.\main.c      **** 					HandleData();
  49              		.loc 1 37 0
  50 001c FFF7FEFF 		bl	HandleData
  51              	.L2:
  38:.\main.c      **** 				//}
  39:.\main.c      **** 			}
  40:.\main.c      **** 		}
  41:.\main.c      ****     }
  52              		.loc 1 41 0
  53 0020 F2E7     		b	.L3
  54              	.L5:
  55 0022 C046     		.align	2
  56              	.L4:
  57 0024 00000000 		.word	deviceConnected
  58 0028 00000000 		.word	sendNotifications
  59              		.cfi_endproc
  60              	.LFE37:
  61              		.size	main, .-main
  62              		.section	.rodata
  63              		.align	2
  64              	.LC3:
  65 0000 73746172 		.ascii	"started\000"
  65      74656400 
  66              		.section	.text.InitializeSystem,"ax",%progbits
  67              		.align	2
  68              		.global	InitializeSystem
  69              		.code	16
  70              		.thumb_func
  71              		.type	InitializeSystem, %function
  72              	InitializeSystem:
ARM GAS  C:\Users\ilias\AppData\Local\Temp\ccuzXXgF.s 			page 3


  73              	.LFB38:
  42:.\main.c      **** }
  43:.\main.c      **** 
  44:.\main.c      **** void InitializeSystem(void)
  45:.\main.c      **** {
  74              		.loc 1 45 0
  75              		.cfi_startproc
  76 0000 80B5     		push	{r7, lr}
  77              		.cfi_def_cfa_offset 8
  78              		.cfi_offset 7, -8
  79              		.cfi_offset 14, -4
  80 0002 00AF     		add	r7, sp, #0
  81              		.cfi_def_cfa_register 7
  46:.\main.c      **** 	/* Enable global interrupt mask */
  47:.\main.c      **** 	CyGlobalIntEnable; 
  82              		.loc 1 47 0
  83              	@ 47 ".\main.c" 1
  84 0004 62B6     		CPSIE   i
  85              	@ 0 "" 2
  48:.\main.c      ****     UART_1_Start();
  86              		.loc 1 48 0
  87              		.code	16
  88 0006 FFF7FEFF 		bl	UART_1_Start
  49:.\main.c      **** 
  50:.\main.c      **** 	/* Start BLE component and register the CustomEventHandler function. This 
  51:.\main.c      **** 	* function exposes the events from BLE component for application use */
  52:.\main.c      ****     CyBle_Start(GenericAppEventHandler);
  89              		.loc 1 52 0
  90 000a 064B     		ldr	r3, .L7
  91 000c 181C     		mov	r0, r3
  92 000e FFF7FEFF 		bl	CyBle_Start
  53:.\main.c      ****     UART_1_UartPutString("started");
  93              		.loc 1 53 0
  94 0012 054B     		ldr	r3, .L7+4
  95 0014 181C     		mov	r0, r3
  96 0016 FFF7FEFF 		bl	UART_1_UartPutString
  54:.\main.c      ****     CyBle_ProcessEvents();
  97              		.loc 1 54 0
  98 001a FFF7FEFF 		bl	CyBle_ProcessEvents
  55:.\main.c      **** }
  99              		.loc 1 55 0
 100 001e BD46     		mov	sp, r7
 101              		@ sp needed
 102 0020 80BD     		pop	{r7, pc}
 103              	.L8:
 104 0022 C046     		.align	2
 105              	.L7:
 106 0024 00000000 		.word	GenericAppEventHandler
 107 0028 00000000 		.word	.LC3
 108              		.cfi_endproc
 109              	.LFE38:
 110              		.size	InitializeSystem, .-InitializeSystem
 111              		.section	.text.HandleData,"ax",%progbits
 112              		.align	2
 113              		.global	HandleData
 114              		.code	16
 115              		.thumb_func
ARM GAS  C:\Users\ilias\AppData\Local\Temp\ccuzXXgF.s 			page 4


 116              		.type	HandleData, %function
 117              	HandleData:
 118              	.LFB39:
  56:.\main.c      **** 
  57:.\main.c      **** void HandleData(void)
  58:.\main.c      **** {
 119              		.loc 1 58 0
 120              		.cfi_startproc
 121 0000 80B5     		push	{r7, lr}
 122              		.cfi_def_cfa_offset 8
 123              		.cfi_offset 7, -8
 124              		.cfi_offset 14, -4
 125 0002 82B0     		sub	sp, sp, #8
 126              		.cfi_def_cfa_offset 16
 127 0004 00AF     		add	r7, sp, #0
 128              		.cfi_def_cfa_register 7
  59:.\main.c      ****     uint32 size = UART_1_SpiUartGetRxBufferSize();    
 129              		.loc 1 59 0
 130 0006 FFF7FEFF 		bl	UART_1_SpiUartGetRxBufferSize
 131 000a 031C     		mov	r3, r0
 132 000c 7B60     		str	r3, [r7, #4]
  60:.\main.c      **** 	static uint8 lastData;	
  61:.\main.c      **** 	
  62:.\main.c      **** 	uint8 newData;// UART_1_rx_Read() + lastData;
  63:.\main.c      ****     //newData = UART_1_UartGetChar();
  64:.\main.c      ****     //newData = (data & 0xff000000);
  65:.\main.c      ****     //newData += lastData;
  66:.\main.c      ****     
  67:.\main.c      ****     if (0 != size) 
 133              		.loc 1 67 0
 134 000e 7B68     		ldr	r3, [r7, #4]
 135 0010 002B     		cmp	r3, #0
 136 0012 06D0     		beq	.L10
  68:.\main.c      ****     {
  69:.\main.c      **** 	    SendDataOverNotification((uint8)UART_1_UartGetByte());
 137              		.loc 1 69 0
 138 0014 FFF7FEFF 		bl	UART_1_UartGetByte
 139 0018 031C     		mov	r3, r0
 140 001a DBB2     		uxtb	r3, r3
 141 001c 181C     		mov	r0, r3
 142 001e FFF7FEFF 		bl	SendDataOverNotification
 143              	.L10:
  70:.\main.c      ****     }
  71:.\main.c      ****     lastData = newData;
 144              		.loc 1 71 0
 145 0022 034B     		ldr	r3, .L11
 146 0024 FA1C     		add	r2, r7, #3
 147 0026 1278     		ldrb	r2, [r2]
 148 0028 1A70     		strb	r2, [r3]
  72:.\main.c      **** }
 149              		.loc 1 72 0
 150 002a BD46     		mov	sp, r7
 151 002c 02B0     		add	sp, sp, #8
 152              		@ sp needed
 153 002e 80BD     		pop	{r7, pc}
 154              	.L12:
 155              		.align	2
ARM GAS  C:\Users\ilias\AppData\Local\Temp\ccuzXXgF.s 			page 5


 156              	.L11:
 157 0030 00000000 		.word	lastData.6736
 158              		.cfi_endproc
 159              	.LFE39:
 160              		.size	HandleData, .-HandleData
 161              		.bss
 162              	lastData.6736:
 163 0000 00       		.space	1
 164              		.text
 165              	.Letext0:
 166              		.file 2 "Generated_Source\\PSoC4/cytypes.h"